
./ftp:     file format elf64-x86-64


Disassembly of section .init:

0000000000401f78 <_init>:
  401f78:	48 83 ec 08          	sub    $0x8,%rsp
  401f7c:	48 8b 05 75 d0 20 00 	mov    0x20d075(%rip),%rax        # 60eff8 <_DYNAMIC+0x1f0>
  401f83:	48 85 c0             	test   %rax,%rax
  401f86:	74 05                	je     401f8d <_init+0x15>
  401f88:	e8 63 07 00 00       	callq  4026f0 <seteuid@plt+0x10>
  401f8d:	48 83 c4 08          	add    $0x8,%rsp
  401f91:	c3                   	retq   

Disassembly of section .plt:

0000000000401fa0 <inet_ntop@plt-0x10>:
  401fa0:	ff 35 62 d0 20 00    	pushq  0x20d062(%rip)        # 60f008 <_GLOBAL_OFFSET_TABLE_+0x8>
  401fa6:	ff 25 64 d0 20 00    	jmpq   *0x20d064(%rip)        # 60f010 <_GLOBAL_OFFSET_TABLE_+0x10>
  401fac:	0f 1f 40 00          	nopl   0x0(%rax)

0000000000401fb0 <inet_ntop@plt>:
  401fb0:	ff 25 62 d0 20 00    	jmpq   *0x20d062(%rip)        # 60f018 <_GLOBAL_OFFSET_TABLE_+0x18>
  401fb6:	68 00 00 00 00       	pushq  $0x0
  401fbb:	e9 e0 ff ff ff       	jmpq   401fa0 <_init+0x28>

0000000000401fc0 <getenv@plt>:
  401fc0:	ff 25 5a d0 20 00    	jmpq   *0x20d05a(%rip)        # 60f020 <_GLOBAL_OFFSET_TABLE_+0x20>
  401fc6:	68 01 00 00 00       	pushq  $0x1
  401fcb:	e9 d0 ff ff ff       	jmpq   401fa0 <_init+0x28>

0000000000401fd0 <utime@plt>:
  401fd0:	ff 25 52 d0 20 00    	jmpq   *0x20d052(%rip)        # 60f028 <_GLOBAL_OFFSET_TABLE_+0x28>
  401fd6:	68 02 00 00 00       	pushq  $0x2
  401fdb:	e9 c0 ff ff ff       	jmpq   401fa0 <_init+0x28>

0000000000401fe0 <free@plt>:
  401fe0:	ff 25 4a d0 20 00    	jmpq   *0x20d04a(%rip)        # 60f030 <_GLOBAL_OFFSET_TABLE_+0x30>
  401fe6:	68 03 00 00 00       	pushq  $0x3
  401feb:	e9 b0 ff ff ff       	jmpq   401fa0 <_init+0x28>

0000000000401ff0 <recv@plt>:
  401ff0:	ff 25 42 d0 20 00    	jmpq   *0x20d042(%rip)        # 60f038 <_GLOBAL_OFFSET_TABLE_+0x38>
  401ff6:	68 04 00 00 00       	pushq  $0x4
  401ffb:	e9 a0 ff ff ff       	jmpq   401fa0 <_init+0x28>

0000000000402000 <closelog@plt>:
  402000:	ff 25 3a d0 20 00    	jmpq   *0x20d03a(%rip)        # 60f040 <_GLOBAL_OFFSET_TABLE_+0x40>
  402006:	68 05 00 00 00       	pushq  $0x5
  40200b:	e9 90 ff ff ff       	jmpq   401fa0 <_init+0x28>

0000000000402010 <localtime@plt>:
  402010:	ff 25 32 d0 20 00    	jmpq   *0x20d032(%rip)        # 60f048 <_GLOBAL_OFFSET_TABLE_+0x48>
  402016:	68 06 00 00 00       	pushq  $0x6
  40201b:	e9 80 ff ff ff       	jmpq   401fa0 <_init+0x28>

0000000000402020 <__errno_location@plt>:
  402020:	ff 25 2a d0 20 00    	jmpq   *0x20d02a(%rip)        # 60f050 <_GLOBAL_OFFSET_TABLE_+0x50>
  402026:	68 07 00 00 00       	pushq  $0x7
  40202b:	e9 70 ff ff ff       	jmpq   401fa0 <_init+0x28>

0000000000402030 <unlink@plt>:
  402030:	ff 25 22 d0 20 00    	jmpq   *0x20d022(%rip)        # 60f058 <_GLOBAL_OFFSET_TABLE_+0x58>
  402036:	68 08 00 00 00       	pushq  $0x8
  40203b:	e9 60 ff ff ff       	jmpq   401fa0 <_init+0x28>

0000000000402040 <_exit@plt>:
  402040:	ff 25 1a d0 20 00    	jmpq   *0x20d01a(%rip)        # 60f060 <_GLOBAL_OFFSET_TABLE_+0x60>
  402046:	68 09 00 00 00       	pushq  $0x9
  40204b:	e9 50 ff ff ff       	jmpq   401fa0 <_init+0x28>

0000000000402050 <chroot@plt>:
  402050:	ff 25 12 d0 20 00    	jmpq   *0x20d012(%rip)        # 60f068 <_GLOBAL_OFFSET_TABLE_+0x68>
  402056:	68 0a 00 00 00       	pushq  $0xa
  40205b:	e9 40 ff ff ff       	jmpq   401fa0 <_init+0x28>

0000000000402060 <mkdir@plt>:
  402060:	ff 25 0a d0 20 00    	jmpq   *0x20d00a(%rip)        # 60f070 <_GLOBAL_OFFSET_TABLE_+0x70>
  402066:	68 0b 00 00 00       	pushq  $0xb
  40206b:	e9 30 ff ff ff       	jmpq   401fa0 <_init+0x28>

0000000000402070 <sendmsg@plt>:
  402070:	ff 25 02 d0 20 00    	jmpq   *0x20d002(%rip)        # 60f078 <_GLOBAL_OFFSET_TABLE_+0x78>
  402076:	68 0c 00 00 00       	pushq  $0xc
  40207b:	e9 20 ff ff ff       	jmpq   401fa0 <_init+0x28>

0000000000402080 <toupper@plt>:
  402080:	ff 25 fa cf 20 00    	jmpq   *0x20cffa(%rip)        # 60f080 <_GLOBAL_OFFSET_TABLE_+0x80>
  402086:	68 0d 00 00 00       	pushq  $0xd
  40208b:	e9 10 ff ff ff       	jmpq   401fa0 <_init+0x28>

0000000000402090 <sigaction@plt>:
  402090:	ff 25 f2 cf 20 00    	jmpq   *0x20cff2(%rip)        # 60f088 <_GLOBAL_OFFSET_TABLE_+0x88>
  402096:	68 0e 00 00 00       	pushq  $0xe
  40209b:	e9 00 ff ff ff       	jmpq   401fa0 <_init+0x28>

00000000004020a0 <setsockopt@plt>:
  4020a0:	ff 25 ea cf 20 00    	jmpq   *0x20cfea(%rip)        # 60f090 <_GLOBAL_OFFSET_TABLE_+0x90>
  4020a6:	68 0f 00 00 00       	pushq  $0xf
  4020ab:	e9 f0 fe ff ff       	jmpq   401fa0 <_init+0x28>

00000000004020b0 <readlink@plt>:
  4020b0:	ff 25 e2 cf 20 00    	jmpq   *0x20cfe2(%rip)        # 60f098 <_GLOBAL_OFFSET_TABLE_+0x98>
  4020b6:	68 10 00 00 00       	pushq  $0x10
  4020bb:	e9 e0 fe ff ff       	jmpq   401fa0 <_init+0x28>

00000000004020c0 <fcntl@plt>:
  4020c0:	ff 25 da cf 20 00    	jmpq   *0x20cfda(%rip)        # 60f0a0 <_GLOBAL_OFFSET_TABLE_+0xa0>
  4020c6:	68 11 00 00 00       	pushq  $0x11
  4020cb:	e9 d0 fe ff ff       	jmpq   401fa0 <_init+0x28>

00000000004020d0 <write@plt>:
  4020d0:	ff 25 d2 cf 20 00    	jmpq   *0x20cfd2(%rip)        # 60f0a8 <_GLOBAL_OFFSET_TABLE_+0xa8>
  4020d6:	68 12 00 00 00       	pushq  $0x12
  4020db:	e9 c0 fe ff ff       	jmpq   401fa0 <_init+0x28>

00000000004020e0 <getpid@plt>:
  4020e0:	ff 25 ca cf 20 00    	jmpq   *0x20cfca(%rip)        # 60f0b0 <_GLOBAL_OFFSET_TABLE_+0xb0>
  4020e6:	68 13 00 00 00       	pushq  $0x13
  4020eb:	e9 b0 fe ff ff       	jmpq   401fa0 <_init+0x28>

00000000004020f0 <inet_ntoa@plt>:
  4020f0:	ff 25 c2 cf 20 00    	jmpq   *0x20cfc2(%rip)        # 60f0b8 <_GLOBAL_OFFSET_TABLE_+0xb8>
  4020f6:	68 14 00 00 00       	pushq  $0x14
  4020fb:	e9 a0 fe ff ff       	jmpq   401fa0 <_init+0x28>

0000000000402100 <getpeername@plt>:
  402100:	ff 25 ba cf 20 00    	jmpq   *0x20cfba(%rip)        # 60f0c0 <_GLOBAL_OFFSET_TABLE_+0xc0>
  402106:	68 15 00 00 00       	pushq  $0x15
  40210b:	e9 90 fe ff ff       	jmpq   401fa0 <_init+0x28>

0000000000402110 <gethostent@plt>:
  402110:	ff 25 b2 cf 20 00    	jmpq   *0x20cfb2(%rip)        # 60f0c8 <_GLOBAL_OFFSET_TABLE_+0xc8>
  402116:	68 16 00 00 00       	pushq  $0x16
  40211b:	e9 80 fe ff ff       	jmpq   401fa0 <_init+0x28>

0000000000402120 <opendir@plt>:
  402120:	ff 25 aa cf 20 00    	jmpq   *0x20cfaa(%rip)        # 60f0d0 <_GLOBAL_OFFSET_TABLE_+0xd0>
  402126:	68 17 00 00 00       	pushq  $0x17
  40212b:	e9 70 fe ff ff       	jmpq   401fa0 <_init+0x28>

0000000000402130 <getpwuid@plt>:
  402130:	ff 25 a2 cf 20 00    	jmpq   *0x20cfa2(%rip)        # 60f0d8 <_GLOBAL_OFFSET_TABLE_+0xd8>
  402136:	68 18 00 00 00       	pushq  $0x18
  40213b:	e9 60 fe ff ff       	jmpq   401fa0 <_init+0x28>

0000000000402140 <ctime@plt>:
  402140:	ff 25 9a cf 20 00    	jmpq   *0x20cf9a(%rip)        # 60f0e0 <_GLOBAL_OFFSET_TABLE_+0xe0>
  402146:	68 19 00 00 00       	pushq  $0x19
  40214b:	e9 50 fe ff ff       	jmpq   401fa0 <_init+0x28>

0000000000402150 <shutdown@plt>:
  402150:	ff 25 92 cf 20 00    	jmpq   *0x20cf92(%rip)        # 60f0e8 <_GLOBAL_OFFSET_TABLE_+0xe8>
  402156:	68 1a 00 00 00       	pushq  $0x1a
  40215b:	e9 40 fe ff ff       	jmpq   401fa0 <_init+0x28>

0000000000402160 <rmdir@plt>:
  402160:	ff 25 8a cf 20 00    	jmpq   *0x20cf8a(%rip)        # 60f0f0 <_GLOBAL_OFFSET_TABLE_+0xf0>
  402166:	68 1b 00 00 00       	pushq  $0x1b
  40216b:	e9 30 fe ff ff       	jmpq   401fa0 <_init+0x28>

0000000000402170 <strlen@plt>:
  402170:	ff 25 82 cf 20 00    	jmpq   *0x20cf82(%rip)        # 60f0f8 <_GLOBAL_OFFSET_TABLE_+0xf8>
  402176:	68 1c 00 00 00       	pushq  $0x1c
  40217b:	e9 20 fe ff ff       	jmpq   401fa0 <_init+0x28>

0000000000402180 <__lxstat@plt>:
  402180:	ff 25 7a cf 20 00    	jmpq   *0x20cf7a(%rip)        # 60f100 <_GLOBAL_OFFSET_TABLE_+0x100>
  402186:	68 1d 00 00 00       	pushq  $0x1d
  40218b:	e9 10 fe ff ff       	jmpq   401fa0 <_init+0x28>

0000000000402190 <chdir@plt>:
  402190:	ff 25 72 cf 20 00    	jmpq   *0x20cf72(%rip)        # 60f108 <_GLOBAL_OFFSET_TABLE_+0x108>
  402196:	68 1e 00 00 00       	pushq  $0x1e
  40219b:	e9 00 fe ff ff       	jmpq   401fa0 <_init+0x28>

00000000004021a0 <__stack_chk_fail@plt>:
  4021a0:	ff 25 6a cf 20 00    	jmpq   *0x20cf6a(%rip)        # 60f110 <_GLOBAL_OFFSET_TABLE_+0x110>
  4021a6:	68 1f 00 00 00       	pushq  $0x1f
  4021ab:	e9 f0 fd ff ff       	jmpq   401fa0 <_init+0x28>

00000000004021b0 <getuid@plt>:
  4021b0:	ff 25 62 cf 20 00    	jmpq   *0x20cf62(%rip)        # 60f118 <_GLOBAL_OFFSET_TABLE_+0x118>
  4021b6:	68 20 00 00 00       	pushq  $0x20
  4021bb:	e9 e0 fd ff ff       	jmpq   401fa0 <_init+0x28>

00000000004021c0 <htons@plt>:
  4021c0:	ff 25 5a cf 20 00    	jmpq   *0x20cf5a(%rip)        # 60f120 <_GLOBAL_OFFSET_TABLE_+0x120>
  4021c6:	68 21 00 00 00       	pushq  $0x21
  4021cb:	e9 d0 fd ff ff       	jmpq   401fa0 <_init+0x28>

00000000004021d0 <dup2@plt>:
  4021d0:	ff 25 52 cf 20 00    	jmpq   *0x20cf52(%rip)        # 60f128 <_GLOBAL_OFFSET_TABLE_+0x128>
  4021d6:	68 22 00 00 00       	pushq  $0x22
  4021db:	e9 c0 fd ff ff       	jmpq   401fa0 <_init+0x28>

00000000004021e0 <getgrgid@plt>:
  4021e0:	ff 25 4a cf 20 00    	jmpq   *0x20cf4a(%rip)        # 60f130 <_GLOBAL_OFFSET_TABLE_+0x130>
  4021e6:	68 23 00 00 00       	pushq  $0x23
  4021eb:	e9 b0 fd ff ff       	jmpq   401fa0 <_init+0x28>

00000000004021f0 <snprintf@plt>:
  4021f0:	ff 25 42 cf 20 00    	jmpq   *0x20cf42(%rip)        # 60f138 <_GLOBAL_OFFSET_TABLE_+0x138>
  4021f6:	68 24 00 00 00       	pushq  $0x24
  4021fb:	e9 a0 fd ff ff       	jmpq   401fa0 <_init+0x28>

0000000000402200 <uname@plt>:
  402200:	ff 25 3a cf 20 00    	jmpq   *0x20cf3a(%rip)        # 60f140 <_GLOBAL_OFFSET_TABLE_+0x140>
  402206:	68 25 00 00 00       	pushq  $0x25
  40220b:	e9 90 fd ff ff       	jmpq   401fa0 <_init+0x28>

0000000000402210 <lseek@plt>:
  402210:	ff 25 32 cf 20 00    	jmpq   *0x20cf32(%rip)        # 60f148 <_GLOBAL_OFFSET_TABLE_+0x148>
  402216:	68 26 00 00 00       	pushq  $0x26
  40221b:	e9 80 fd ff ff       	jmpq   401fa0 <_init+0x28>

0000000000402220 <gettimeofday@plt>:
  402220:	ff 25 2a cf 20 00    	jmpq   *0x20cf2a(%rip)        # 60f150 <_GLOBAL_OFFSET_TABLE_+0x150>
  402226:	68 27 00 00 00       	pushq  $0x27
  40222b:	e9 70 fd ff ff       	jmpq   401fa0 <_init+0x28>

0000000000402230 <htonl@plt>:
  402230:	ff 25 22 cf 20 00    	jmpq   *0x20cf22(%rip)        # 60f158 <_GLOBAL_OFFSET_TABLE_+0x158>
  402236:	68 28 00 00 00       	pushq  $0x28
  40223b:	e9 60 fd ff ff       	jmpq   401fa0 <_init+0x28>

0000000000402240 <memset@plt>:
  402240:	ff 25 1a cf 20 00    	jmpq   *0x20cf1a(%rip)        # 60f160 <_GLOBAL_OFFSET_TABLE_+0x160>
  402246:	68 29 00 00 00       	pushq  $0x29
  40224b:	e9 50 fd ff ff       	jmpq   401fa0 <_init+0x28>

0000000000402250 <geteuid@plt>:
  402250:	ff 25 12 cf 20 00    	jmpq   *0x20cf12(%rip)        # 60f168 <_GLOBAL_OFFSET_TABLE_+0x168>
  402256:	68 2a 00 00 00       	pushq  $0x2a
  40225b:	e9 40 fd ff ff       	jmpq   401fa0 <_init+0x28>

0000000000402260 <cap_get_bound@plt>:
  402260:	ff 25 0a cf 20 00    	jmpq   *0x20cf0a(%rip)        # 60f170 <_GLOBAL_OFFSET_TABLE_+0x170>
  402266:	68 2b 00 00 00       	pushq  $0x2b
  40226b:	e9 30 fd ff ff       	jmpq   401fa0 <_init+0x28>

0000000000402270 <getcwd@plt>:
  402270:	ff 25 02 cf 20 00    	jmpq   *0x20cf02(%rip)        # 60f178 <_GLOBAL_OFFSET_TABLE_+0x178>
  402276:	68 2c 00 00 00       	pushq  $0x2c
  40227b:	e9 20 fd ff ff       	jmpq   401fa0 <_init+0x28>

0000000000402280 <alarm@plt>:
  402280:	ff 25 fa ce 20 00    	jmpq   *0x20cefa(%rip)        # 60f180 <_GLOBAL_OFFSET_TABLE_+0x180>
  402286:	68 2d 00 00 00       	pushq  $0x2d
  40228b:	e9 10 fd ff ff       	jmpq   401fa0 <_init+0x28>

0000000000402290 <close@plt>:
  402290:	ff 25 f2 ce 20 00    	jmpq   *0x20cef2(%rip)        # 60f188 <_GLOBAL_OFFSET_TABLE_+0x188>
  402296:	68 2e 00 00 00       	pushq  $0x2e
  40229b:	e9 00 fd ff ff       	jmpq   401fa0 <_init+0x28>

00000000004022a0 <rewinddir@plt>:
  4022a0:	ff 25 ea ce 20 00    	jmpq   *0x20ceea(%rip)        # 60f190 <_GLOBAL_OFFSET_TABLE_+0x190>
  4022a6:	68 2f 00 00 00       	pushq  $0x2f
  4022ab:	e9 f0 fc ff ff       	jmpq   401fa0 <_init+0x28>

00000000004022b0 <crypt@plt>:
  4022b0:	ff 25 e2 ce 20 00    	jmpq   *0x20cee2(%rip)        # 60f198 <_GLOBAL_OFFSET_TABLE_+0x198>
  4022b6:	68 30 00 00 00       	pushq  $0x30
  4022bb:	e9 e0 fc ff ff       	jmpq   401fa0 <_init+0x28>

00000000004022c0 <setsid@plt>:
  4022c0:	ff 25 da ce 20 00    	jmpq   *0x20ceda(%rip)        # 60f1a0 <_GLOBAL_OFFSET_TABLE_+0x1a0>
  4022c6:	68 31 00 00 00       	pushq  $0x31
  4022cb:	e9 d0 fc ff ff       	jmpq   401fa0 <_init+0x28>

00000000004022d0 <closedir@plt>:
  4022d0:	ff 25 d2 ce 20 00    	jmpq   *0x20ced2(%rip)        # 60f1a8 <_GLOBAL_OFFSET_TABLE_+0x1a8>
  4022d6:	68 32 00 00 00       	pushq  $0x32
  4022db:	e9 c0 fc ff ff       	jmpq   401fa0 <_init+0x28>

00000000004022e0 <read@plt>:
  4022e0:	ff 25 ca ce 20 00    	jmpq   *0x20ceca(%rip)        # 60f1b0 <_GLOBAL_OFFSET_TABLE_+0x1b0>
  4022e6:	68 33 00 00 00       	pushq  $0x33
  4022eb:	e9 b0 fc ff ff       	jmpq   401fa0 <_init+0x28>

00000000004022f0 <__libc_start_main@plt>:
  4022f0:	ff 25 c2 ce 20 00    	jmpq   *0x20cec2(%rip)        # 60f1b8 <_GLOBAL_OFFSET_TABLE_+0x1b8>
  4022f6:	68 34 00 00 00       	pushq  $0x34
  4022fb:	e9 a0 fc ff ff       	jmpq   401fa0 <_init+0x28>

0000000000402300 <srand@plt>:
  402300:	ff 25 ba ce 20 00    	jmpq   *0x20ceba(%rip)        # 60f1c0 <_GLOBAL_OFFSET_TABLE_+0x1c0>
  402306:	68 35 00 00 00       	pushq  $0x35
  40230b:	e9 90 fc ff ff       	jmpq   401fa0 <_init+0x28>

0000000000402310 <memcmp@plt>:
  402310:	ff 25 b2 ce 20 00    	jmpq   *0x20ceb2(%rip)        # 60f1c8 <_GLOBAL_OFFSET_TABLE_+0x1c8>
  402316:	68 36 00 00 00       	pushq  $0x36
  40231b:	e9 80 fc ff ff       	jmpq   401fa0 <_init+0x28>

0000000000402320 <atoll@plt>:
  402320:	ff 25 aa ce 20 00    	jmpq   *0x20ceaa(%rip)        # 60f1d0 <_GLOBAL_OFFSET_TABLE_+0x1d0>
  402326:	68 37 00 00 00       	pushq  $0x37
  40232b:	e9 70 fc ff ff       	jmpq   401fa0 <_init+0x28>

0000000000402330 <cap_set_proc@plt>:
  402330:	ff 25 a2 ce 20 00    	jmpq   *0x20cea2(%rip)        # 60f1d8 <_GLOBAL_OFFSET_TABLE_+0x1d8>
  402336:	68 38 00 00 00       	pushq  $0x38
  40233b:	e9 60 fc ff ff       	jmpq   401fa0 <_init+0x28>

0000000000402340 <strcmp@plt>:
  402340:	ff 25 9a ce 20 00    	jmpq   *0x20ce9a(%rip)        # 60f1e0 <_GLOBAL_OFFSET_TABLE_+0x1e0>
  402346:	68 39 00 00 00       	pushq  $0x39
  40234b:	e9 50 fc ff ff       	jmpq   401fa0 <_init+0x28>

0000000000402350 <getpwnam@plt>:
  402350:	ff 25 92 ce 20 00    	jmpq   *0x20ce92(%rip)        # 60f1e8 <_GLOBAL_OFFSET_TABLE_+0x1e8>
  402356:	68 3a 00 00 00       	pushq  $0x3a
  40235b:	e9 40 fc ff ff       	jmpq   401fa0 <_init+0x28>

0000000000402360 <gethostbyname@plt>:
  402360:	ff 25 8a ce 20 00    	jmpq   *0x20ce8a(%rip)        # 60f1f0 <_GLOBAL_OFFSET_TABLE_+0x1f0>
  402366:	68 3b 00 00 00       	pushq  $0x3b
  40236b:	e9 30 fc ff ff       	jmpq   401fa0 <_init+0x28>

0000000000402370 <sigemptyset@plt>:
  402370:	ff 25 82 ce 20 00    	jmpq   *0x20ce82(%rip)        # 60f1f8 <_GLOBAL_OFFSET_TABLE_+0x1f8>
  402376:	68 3c 00 00 00       	pushq  $0x3c
  40237b:	e9 20 fc ff ff       	jmpq   401fa0 <_init+0x28>

0000000000402380 <umask@plt>:
  402380:	ff 25 7a ce 20 00    	jmpq   *0x20ce7a(%rip)        # 60f200 <_GLOBAL_OFFSET_TABLE_+0x200>
  402386:	68 3d 00 00 00       	pushq  $0x3d
  40238b:	e9 10 fc ff ff       	jmpq   401fa0 <_init+0x28>

0000000000402390 <memcpy@plt>:
  402390:	ff 25 72 ce 20 00    	jmpq   *0x20ce72(%rip)        # 60f208 <_GLOBAL_OFFSET_TABLE_+0x208>
  402396:	68 3e 00 00 00       	pushq  $0x3e
  40239b:	e9 00 fc ff ff       	jmpq   401fa0 <_init+0x28>

00000000004023a0 <socketpair@plt>:
  4023a0:	ff 25 6a ce 20 00    	jmpq   *0x20ce6a(%rip)        # 60f210 <_GLOBAL_OFFSET_TABLE_+0x210>
  4023a6:	68 3f 00 00 00       	pushq  $0x3f
  4023ab:	e9 f0 fb ff ff       	jmpq   401fa0 <_init+0x28>

00000000004023b0 <prctl@plt>:
  4023b0:	ff 25 62 ce 20 00    	jmpq   *0x20ce62(%rip)        # 60f218 <_GLOBAL_OFFSET_TABLE_+0x218>
  4023b6:	68 40 00 00 00       	pushq  $0x40
  4023bb:	e9 e0 fb ff ff       	jmpq   401fa0 <_init+0x28>

00000000004023c0 <inet_pton@plt>:
  4023c0:	ff 25 5a ce 20 00    	jmpq   *0x20ce5a(%rip)        # 60f220 <_GLOBAL_OFFSET_TABLE_+0x220>
  4023c6:	68 41 00 00 00       	pushq  $0x41
  4023cb:	e9 d0 fb ff ff       	jmpq   401fa0 <_init+0x28>

00000000004023d0 <tzset@plt>:
  4023d0:	ff 25 52 ce 20 00    	jmpq   *0x20ce52(%rip)        # 60f228 <_GLOBAL_OFFSET_TABLE_+0x228>
  4023d6:	68 42 00 00 00       	pushq  $0x42
  4023db:	e9 c0 fb ff ff       	jmpq   401fa0 <_init+0x28>

00000000004023e0 <cap_init@plt>:
  4023e0:	ff 25 4a ce 20 00    	jmpq   *0x20ce4a(%rip)        # 60f230 <_GLOBAL_OFFSET_TABLE_+0x230>
  4023e6:	68 43 00 00 00       	pushq  $0x43
  4023eb:	e9 b0 fb ff ff       	jmpq   401fa0 <_init+0x28>

00000000004023f0 <time@plt>:
  4023f0:	ff 25 42 ce 20 00    	jmpq   *0x20ce42(%rip)        # 60f238 <_GLOBAL_OFFSET_TABLE_+0x238>
  4023f6:	68 44 00 00 00       	pushq  $0x44
  4023fb:	e9 a0 fb ff ff       	jmpq   401fa0 <_init+0x28>

0000000000402400 <select@plt>:
  402400:	ff 25 3a ce 20 00    	jmpq   *0x20ce3a(%rip)        # 60f240 <_GLOBAL_OFFSET_TABLE_+0x240>
  402406:	68 45 00 00 00       	pushq  $0x45
  40240b:	e9 90 fb ff ff       	jmpq   401fa0 <_init+0x28>

0000000000402410 <inet_aton@plt>:
  402410:	ff 25 32 ce 20 00    	jmpq   *0x20ce32(%rip)        # 60f248 <_GLOBAL_OFFSET_TABLE_+0x248>
  402416:	68 46 00 00 00       	pushq  $0x46
  40241b:	e9 80 fb ff ff       	jmpq   401fa0 <_init+0x28>

0000000000402420 <__xstat@plt>:
  402420:	ff 25 2a ce 20 00    	jmpq   *0x20ce2a(%rip)        # 60f250 <_GLOBAL_OFFSET_TABLE_+0x250>
  402426:	68 47 00 00 00       	pushq  $0x47
  40242b:	e9 70 fb ff ff       	jmpq   401fa0 <_init+0x28>

0000000000402430 <readdir@plt>:
  402430:	ff 25 22 ce 20 00    	jmpq   *0x20ce22(%rip)        # 60f258 <_GLOBAL_OFFSET_TABLE_+0x258>
  402436:	68 48 00 00 00       	pushq  $0x48
  40243b:	e9 60 fb ff ff       	jmpq   401fa0 <_init+0x28>

0000000000402440 <malloc@plt>:
  402440:	ff 25 1a ce 20 00    	jmpq   *0x20ce1a(%rip)        # 60f260 <_GLOBAL_OFFSET_TABLE_+0x260>
  402446:	68 49 00 00 00       	pushq  $0x49
  40244b:	e9 50 fb ff ff       	jmpq   401fa0 <_init+0x28>

0000000000402450 <getifaddrs@plt>:
  402450:	ff 25 12 ce 20 00    	jmpq   *0x20ce12(%rip)        # 60f268 <_GLOBAL_OFFSET_TABLE_+0x268>
  402456:	68 4a 00 00 00       	pushq  $0x4a
  40245b:	e9 40 fb ff ff       	jmpq   401fa0 <_init+0x28>

0000000000402460 <syslog@plt>:
  402460:	ff 25 0a ce 20 00    	jmpq   *0x20ce0a(%rip)        # 60f270 <_GLOBAL_OFFSET_TABLE_+0x270>
  402466:	68 4b 00 00 00       	pushq  $0x4b
  40246b:	e9 30 fb ff ff       	jmpq   401fa0 <_init+0x28>

0000000000402470 <__fxstat@plt>:
  402470:	ff 25 02 ce 20 00    	jmpq   *0x20ce02(%rip)        # 60f278 <_GLOBAL_OFFSET_TABLE_+0x278>
  402476:	68 4c 00 00 00       	pushq  $0x4c
  40247b:	e9 20 fb ff ff       	jmpq   401fa0 <_init+0x28>

0000000000402480 <listen@plt>:
  402480:	ff 25 fa cd 20 00    	jmpq   *0x20cdfa(%rip)        # 60f280 <_GLOBAL_OFFSET_TABLE_+0x280>
  402486:	68 4d 00 00 00       	pushq  $0x4d
  40248b:	e9 10 fb ff ff       	jmpq   401fa0 <_init+0x28>

0000000000402490 <getegid@plt>:
  402490:	ff 25 f2 cd 20 00    	jmpq   *0x20cdf2(%rip)        # 60f288 <_GLOBAL_OFFSET_TABLE_+0x288>
  402496:	68 4e 00 00 00       	pushq  $0x4e
  40249b:	e9 00 fb ff ff       	jmpq   401fa0 <_init+0x28>

00000000004024a0 <setrlimit@plt>:
  4024a0:	ff 25 ea cd 20 00    	jmpq   *0x20cdea(%rip)        # 60f290 <_GLOBAL_OFFSET_TABLE_+0x290>
  4024a6:	68 4f 00 00 00       	pushq  $0x4f
  4024ab:	e9 f0 fa ff ff       	jmpq   401fa0 <_init+0x28>

00000000004024b0 <sendfile@plt>:
  4024b0:	ff 25 e2 cd 20 00    	jmpq   *0x20cde2(%rip)        # 60f298 <_GLOBAL_OFFSET_TABLE_+0x298>
  4024b6:	68 50 00 00 00       	pushq  $0x50
  4024bb:	e9 e0 fa ff ff       	jmpq   401fa0 <_init+0x28>

00000000004024c0 <realloc@plt>:
  4024c0:	ff 25 da cd 20 00    	jmpq   *0x20cdda(%rip)        # 60f2a0 <_GLOBAL_OFFSET_TABLE_+0x2a0>
  4024c6:	68 51 00 00 00       	pushq  $0x51
  4024cb:	e9 d0 fa ff ff       	jmpq   401fa0 <_init+0x28>

00000000004024d0 <recvmsg@plt>:
  4024d0:	ff 25 d2 cd 20 00    	jmpq   *0x20cdd2(%rip)        # 60f2a8 <_GLOBAL_OFFSET_TABLE_+0x2a8>
  4024d6:	68 52 00 00 00       	pushq  $0x52
  4024db:	e9 c0 fa ff ff       	jmpq   401fa0 <_init+0x28>

00000000004024e0 <ntohs@plt>:
  4024e0:	ff 25 ca cd 20 00    	jmpq   *0x20cdca(%rip)        # 60f2b0 <_GLOBAL_OFFSET_TABLE_+0x2b0>
  4024e6:	68 53 00 00 00       	pushq  $0x53
  4024eb:	e9 b0 fa ff ff       	jmpq   401fa0 <_init+0x28>

00000000004024f0 <fchmod@plt>:
  4024f0:	ff 25 c2 cd 20 00    	jmpq   *0x20cdc2(%rip)        # 60f2b8 <_GLOBAL_OFFSET_TABLE_+0x2b8>
  4024f6:	68 54 00 00 00       	pushq  $0x54
  4024fb:	e9 a0 fa ff ff       	jmpq   401fa0 <_init+0x28>

0000000000402500 <chmod@plt>:
  402500:	ff 25 ba cd 20 00    	jmpq   *0x20cdba(%rip)        # 60f2c0 <_GLOBAL_OFFSET_TABLE_+0x2c0>
  402506:	68 55 00 00 00       	pushq  $0x55
  40250b:	e9 90 fa ff ff       	jmpq   401fa0 <_init+0x28>

0000000000402510 <bind@plt>:
  402510:	ff 25 b2 cd 20 00    	jmpq   *0x20cdb2(%rip)        # 60f2c8 <_GLOBAL_OFFSET_TABLE_+0x2c8>
  402516:	68 56 00 00 00       	pushq  $0x56
  40251b:	e9 80 fa ff ff       	jmpq   401fa0 <_init+0x28>

0000000000402520 <strftime@plt>:
  402520:	ff 25 aa cd 20 00    	jmpq   *0x20cdaa(%rip)        # 60f2d0 <_GLOBAL_OFFSET_TABLE_+0x2d0>
  402526:	68 57 00 00 00       	pushq  $0x57
  40252b:	e9 70 fa ff ff       	jmpq   401fa0 <_init+0x28>

0000000000402530 <setgid@plt>:
  402530:	ff 25 a2 cd 20 00    	jmpq   *0x20cda2(%rip)        # 60f2d8 <_GLOBAL_OFFSET_TABLE_+0x2d8>
  402536:	68 58 00 00 00       	pushq  $0x58
  40253b:	e9 60 fa ff ff       	jmpq   401fa0 <_init+0x28>

0000000000402540 <waitpid@plt>:
  402540:	ff 25 9a cd 20 00    	jmpq   *0x20cd9a(%rip)        # 60f2e0 <_GLOBAL_OFFSET_TABLE_+0x2e0>
  402546:	68 59 00 00 00       	pushq  $0x59
  40254b:	e9 50 fa ff ff       	jmpq   401fa0 <_init+0x28>

0000000000402550 <getspnam@plt>:
  402550:	ff 25 92 cd 20 00    	jmpq   *0x20cd92(%rip)        # 60f2e8 <_GLOBAL_OFFSET_TABLE_+0x2e8>
  402556:	68 5a 00 00 00       	pushq  $0x5a
  40255b:	e9 40 fa ff ff       	jmpq   401fa0 <_init+0x28>

0000000000402560 <open@plt>:
  402560:	ff 25 8a cd 20 00    	jmpq   *0x20cd8a(%rip)        # 60f2f0 <_GLOBAL_OFFSET_TABLE_+0x2f0>
  402566:	68 5b 00 00 00       	pushq  $0x5b
  40256b:	e9 30 fa ff ff       	jmpq   401fa0 <_init+0x28>

0000000000402570 <access@plt>:
  402570:	ff 25 82 cd 20 00    	jmpq   *0x20cd82(%rip)        # 60f2f8 <_GLOBAL_OFFSET_TABLE_+0x2f8>
  402576:	68 5c 00 00 00       	pushq  $0x5c
  40257b:	e9 20 fa ff ff       	jmpq   401fa0 <_init+0x28>

0000000000402580 <fchown@plt>:
  402580:	ff 25 7a cd 20 00    	jmpq   *0x20cd7a(%rip)        # 60f300 <_GLOBAL_OFFSET_TABLE_+0x300>
  402586:	68 5d 00 00 00       	pushq  $0x5d
  40258b:	e9 10 fa ff ff       	jmpq   401fa0 <_init+0x28>

0000000000402590 <rename@plt>:
  402590:	ff 25 72 cd 20 00    	jmpq   *0x20cd72(%rip)        # 60f308 <_GLOBAL_OFFSET_TABLE_+0x308>
  402596:	68 5e 00 00 00       	pushq  $0x5e
  40259b:	e9 00 fa ff ff       	jmpq   401fa0 <_init+0x28>

00000000004025a0 <cap_free@plt>:
  4025a0:	ff 25 6a cd 20 00    	jmpq   *0x20cd6a(%rip)        # 60f310 <_GLOBAL_OFFSET_TABLE_+0x310>
  4025a6:	68 5f 00 00 00       	pushq  $0x5f
  4025ab:	e9 f0 f9 ff ff       	jmpq   401fa0 <_init+0x28>

00000000004025b0 <accept@plt>:
  4025b0:	ff 25 62 cd 20 00    	jmpq   *0x20cd62(%rip)        # 60f318 <_GLOBAL_OFFSET_TABLE_+0x318>
  4025b6:	68 60 00 00 00       	pushq  $0x60
  4025bb:	e9 e0 f9 ff ff       	jmpq   401fa0 <_init+0x28>

00000000004025c0 <getsockname@plt>:
  4025c0:	ff 25 5a cd 20 00    	jmpq   *0x20cd5a(%rip)        # 60f320 <_GLOBAL_OFFSET_TABLE_+0x320>
  4025c6:	68 61 00 00 00       	pushq  $0x61
  4025cb:	e9 d0 f9 ff ff       	jmpq   401fa0 <_init+0x28>

00000000004025d0 <__cxa_atexit@plt>:
  4025d0:	ff 25 52 cd 20 00    	jmpq   *0x20cd52(%rip)        # 60f328 <_GLOBAL_OFFSET_TABLE_+0x328>
  4025d6:	68 62 00 00 00       	pushq  $0x62
  4025db:	e9 c0 f9 ff ff       	jmpq   401fa0 <_init+0x28>

00000000004025e0 <atoi@plt>:
  4025e0:	ff 25 4a cd 20 00    	jmpq   *0x20cd4a(%rip)        # 60f330 <_GLOBAL_OFFSET_TABLE_+0x330>
  4025e6:	68 63 00 00 00       	pushq  $0x63
  4025eb:	e9 b0 f9 ff ff       	jmpq   401fa0 <_init+0x28>

00000000004025f0 <openlog@plt>:
  4025f0:	ff 25 42 cd 20 00    	jmpq   *0x20cd42(%rip)        # 60f338 <_GLOBAL_OFFSET_TABLE_+0x338>
  4025f6:	68 64 00 00 00       	pushq  $0x64
  4025fb:	e9 a0 f9 ff ff       	jmpq   401fa0 <_init+0x28>

0000000000402600 <getpagesize@plt>:
  402600:	ff 25 3a cd 20 00    	jmpq   *0x20cd3a(%rip)        # 60f340 <_GLOBAL_OFFSET_TABLE_+0x340>
  402606:	68 65 00 00 00       	pushq  $0x65
  40260b:	e9 90 f9 ff ff       	jmpq   401fa0 <_init+0x28>

0000000000402610 <cap_set_flag@plt>:
  402610:	ff 25 32 cd 20 00    	jmpq   *0x20cd32(%rip)        # 60f348 <_GLOBAL_OFFSET_TABLE_+0x348>
  402616:	68 66 00 00 00       	pushq  $0x66
  40261b:	e9 80 f9 ff ff       	jmpq   401fa0 <_init+0x28>

0000000000402620 <sprintf@plt>:
  402620:	ff 25 2a cd 20 00    	jmpq   *0x20cd2a(%rip)        # 60f350 <_GLOBAL_OFFSET_TABLE_+0x350>
  402626:	68 67 00 00 00       	pushq  $0x67
  40262b:	e9 70 f9 ff ff       	jmpq   401fa0 <_init+0x28>

0000000000402630 <connect@plt>:
  402630:	ff 25 22 cd 20 00    	jmpq   *0x20cd22(%rip)        # 60f358 <_GLOBAL_OFFSET_TABLE_+0x358>
  402636:	68 68 00 00 00       	pushq  $0x68
  40263b:	e9 60 f9 ff ff       	jmpq   401fa0 <_init+0x28>

0000000000402640 <setuid@plt>:
  402640:	ff 25 1a cd 20 00    	jmpq   *0x20cd1a(%rip)        # 60f360 <_GLOBAL_OFFSET_TABLE_+0x360>
  402646:	68 69 00 00 00       	pushq  $0x69
  40264b:	e9 50 f9 ff ff       	jmpq   401fa0 <_init+0x28>

0000000000402650 <__cmsg_nxthdr@plt>:
  402650:	ff 25 12 cd 20 00    	jmpq   *0x20cd12(%rip)        # 60f368 <_GLOBAL_OFFSET_TABLE_+0x368>
  402656:	68 6a 00 00 00       	pushq  $0x6a
  40265b:	e9 40 f9 ff ff       	jmpq   401fa0 <_init+0x28>

0000000000402660 <strdup@plt>:
  402660:	ff 25 0a cd 20 00    	jmpq   *0x20cd0a(%rip)        # 60f370 <_GLOBAL_OFFSET_TABLE_+0x370>
  402666:	68 6b 00 00 00       	pushq  $0x6b
  40266b:	e9 30 f9 ff ff       	jmpq   401fa0 <_init+0x28>

0000000000402670 <strerror@plt>:
  402670:	ff 25 02 cd 20 00    	jmpq   *0x20cd02(%rip)        # 60f378 <_GLOBAL_OFFSET_TABLE_+0x378>
  402676:	68 6c 00 00 00       	pushq  $0x6c
  40267b:	e9 20 f9 ff ff       	jmpq   401fa0 <_init+0x28>

0000000000402680 <sleep@plt>:
  402680:	ff 25 fa cc 20 00    	jmpq   *0x20ccfa(%rip)        # 60f380 <_GLOBAL_OFFSET_TABLE_+0x380>
  402686:	68 6d 00 00 00       	pushq  $0x6d
  40268b:	e9 10 f9 ff ff       	jmpq   401fa0 <_init+0x28>

0000000000402690 <setegid@plt>:
  402690:	ff 25 f2 cc 20 00    	jmpq   *0x20ccf2(%rip)        # 60f388 <_GLOBAL_OFFSET_TABLE_+0x388>
  402696:	68 6e 00 00 00       	pushq  $0x6e
  40269b:	e9 00 f9 ff ff       	jmpq   401fa0 <_init+0x28>

00000000004026a0 <fork@plt>:
  4026a0:	ff 25 ea cc 20 00    	jmpq   *0x20ccea(%rip)        # 60f390 <_GLOBAL_OFFSET_TABLE_+0x390>
  4026a6:	68 6f 00 00 00       	pushq  $0x6f
  4026ab:	e9 f0 f8 ff ff       	jmpq   401fa0 <_init+0x28>

00000000004026b0 <rand@plt>:
  4026b0:	ff 25 e2 cc 20 00    	jmpq   *0x20cce2(%rip)        # 60f398 <_GLOBAL_OFFSET_TABLE_+0x398>
  4026b6:	68 70 00 00 00       	pushq  $0x70
  4026bb:	e9 e0 f8 ff ff       	jmpq   401fa0 <_init+0x28>

00000000004026c0 <__ctype_b_loc@plt>:
  4026c0:	ff 25 da cc 20 00    	jmpq   *0x20ccda(%rip)        # 60f3a0 <_GLOBAL_OFFSET_TABLE_+0x3a0>
  4026c6:	68 71 00 00 00       	pushq  $0x71
  4026cb:	e9 d0 f8 ff ff       	jmpq   401fa0 <_init+0x28>

00000000004026d0 <socket@plt>:
  4026d0:	ff 25 d2 cc 20 00    	jmpq   *0x20ccd2(%rip)        # 60f3a8 <_GLOBAL_OFFSET_TABLE_+0x3a8>
  4026d6:	68 72 00 00 00       	pushq  $0x72
  4026db:	e9 c0 f8 ff ff       	jmpq   401fa0 <_init+0x28>

00000000004026e0 <seteuid@plt>:
  4026e0:	ff 25 ca cc 20 00    	jmpq   *0x20ccca(%rip)        # 60f3b0 <_GLOBAL_OFFSET_TABLE_+0x3b0>
  4026e6:	68 73 00 00 00       	pushq  $0x73
  4026eb:	e9 b0 f8 ff ff       	jmpq   401fa0 <_init+0x28>

Disassembly of section .plt.got:

00000000004026f0 <.plt.got>:
  4026f0:	ff 25 02 c9 20 00    	jmpq   *0x20c902(%rip)        # 60eff8 <_DYNAMIC+0x1f0>
  4026f6:	66 90                	xchg   %ax,%ax

Disassembly of section .text:

0000000000402700 <_start>:
  402700:	31 ed                	xor    %ebp,%ebp
  402702:	49 89 d1             	mov    %rdx,%r9
  402705:	5e                   	pop    %rsi
  402706:	48 89 e2             	mov    %rsp,%rdx
  402709:	48 83 e4 f0          	and    $0xfffffffffffffff0,%rsp
  40270d:	50                   	push   %rax
  40270e:	54                   	push   %rsp
  40270f:	49 c7 c0 80 a6 40 00 	mov    $0x40a680,%r8
  402716:	48 c7 c1 10 a6 40 00 	mov    $0x40a610,%rcx
  40271d:	48 c7 c7 24 52 40 00 	mov    $0x405224,%rdi
  402724:	e8 c7 fb ff ff       	callq  4022f0 <__libc_start_main@plt>
  402729:	f4                   	hlt    
  40272a:	66 0f 1f 44 00 00    	nopw   0x0(%rax,%rax,1)

0000000000402730 <deregister_tm_clones>:
  402730:	b8 cf f3 60 00       	mov    $0x60f3cf,%eax
  402735:	55                   	push   %rbp
  402736:	48 2d c8 f3 60 00    	sub    $0x60f3c8,%rax
  40273c:	48 83 f8 0e          	cmp    $0xe,%rax
  402740:	48 89 e5             	mov    %rsp,%rbp
  402743:	76 1b                	jbe    402760 <deregister_tm_clones+0x30>
  402745:	b8 00 00 00 00       	mov    $0x0,%eax
  40274a:	48 85 c0             	test   %rax,%rax
  40274d:	74 11                	je     402760 <deregister_tm_clones+0x30>
  40274f:	5d                   	pop    %rbp
  402750:	bf c8 f3 60 00       	mov    $0x60f3c8,%edi
  402755:	ff e0                	jmpq   *%rax
  402757:	66 0f 1f 84 00 00 00 	nopw   0x0(%rax,%rax,1)
  40275e:	00 00 
  402760:	5d                   	pop    %rbp
  402761:	c3                   	retq   
  402762:	0f 1f 40 00          	nopl   0x0(%rax)
  402766:	66 2e 0f 1f 84 00 00 	nopw   %cs:0x0(%rax,%rax,1)
  40276d:	00 00 00 

0000000000402770 <register_tm_clones>:
  402770:	be c8 f3 60 00       	mov    $0x60f3c8,%esi
  402775:	55                   	push   %rbp
  402776:	48 81 ee c8 f3 60 00 	sub    $0x60f3c8,%rsi
  40277d:	48 c1 fe 03          	sar    $0x3,%rsi
  402781:	48 89 e5             	mov    %rsp,%rbp
  402784:	48 89 f0             	mov    %rsi,%rax
  402787:	48 c1 e8 3f          	shr    $0x3f,%rax
  40278b:	48 01 c6             	add    %rax,%rsi
  40278e:	48 d1 fe             	sar    %rsi
  402791:	74 15                	je     4027a8 <register_tm_clones+0x38>
  402793:	b8 00 00 00 00       	mov    $0x0,%eax
  402798:	48 85 c0             	test   %rax,%rax
  40279b:	74 0b                	je     4027a8 <register_tm_clones+0x38>
  40279d:	5d                   	pop    %rbp
  40279e:	bf c8 f3 60 00       	mov    $0x60f3c8,%edi
  4027a3:	ff e0                	jmpq   *%rax
  4027a5:	0f 1f 00             	nopl   (%rax)
  4027a8:	5d                   	pop    %rbp
  4027a9:	c3                   	retq   
  4027aa:	66 0f 1f 44 00 00    	nopw   0x0(%rax,%rax,1)

00000000004027b0 <__do_global_dtors_aux>:
  4027b0:	80 3d 11 cc 20 00 00 	cmpb   $0x0,0x20cc11(%rip)        # 60f3c8 <__TMC_END__>
  4027b7:	75 11                	jne    4027ca <__do_global_dtors_aux+0x1a>
  4027b9:	55                   	push   %rbp
  4027ba:	48 89 e5             	mov    %rsp,%rbp
  4027bd:	e8 6e ff ff ff       	callq  402730 <deregister_tm_clones>
  4027c2:	5d                   	pop    %rbp
  4027c3:	c6 05 fe cb 20 00 01 	movb   $0x1,0x20cbfe(%rip)        # 60f3c8 <__TMC_END__>
  4027ca:	f3 c3                	repz retq 
  4027cc:	0f 1f 40 00          	nopl   0x0(%rax)

00000000004027d0 <frame_dummy>:
  4027d0:	bf 00 ee 60 00       	mov    $0x60ee00,%edi
  4027d5:	48 83 3f 00          	cmpq   $0x0,(%rdi)
  4027d9:	75 05                	jne    4027e0 <frame_dummy+0x10>
  4027db:	eb 93                	jmp    402770 <register_tm_clones>
  4027dd:	0f 1f 00             	nopl   (%rax)
  4027e0:	b8 00 00 00 00       	mov    $0x0,%eax
  4027e5:	48 85 c0             	test   %rax,%rax
  4027e8:	74 f1                	je     4027db <frame_dummy+0xb>
  4027ea:	55                   	push   %rbp
  4027eb:	48 89 e5             	mov    %rsp,%rbp
  4027ee:	ff d0                	callq  *%rax
  4027f0:	5d                   	pop    %rbp
  4027f1:	e9 7a ff ff ff       	jmpq   402770 <register_tm_clones>

00000000004027f6 <get_netdata>:
  4027f6:	55                   	push   %rbp
  4027f7:	48 89 e5             	mov    %rsp,%rbp
  4027fa:	48 83 ec 50          	sub    $0x50,%rsp
  4027fe:	48 89 7d b8          	mov    %rdi,-0x48(%rbp)
  402802:	89 f0                	mov    %esi,%eax
  402804:	88 45 b4             	mov    %al,-0x4c(%rbp)
  402807:	64 48 8b 04 25 28 00 	mov    %fs:0x28,%rax
  40280e:	00 00 
  402810:	48 89 45 f8          	mov    %rax,-0x8(%rbp)
  402814:	31 c0                	xor    %eax,%eax
  402816:	48 c7 45 d0 00 00 00 	movq   $0x0,-0x30(%rbp)
  40281d:	00 
  40281e:	c7 45 d8 00 00 00 00 	movl   $0x0,-0x28(%rbp)
  402825:	c7 45 dc 00 00 00 00 	movl   $0x0,-0x24(%rbp)
  40282c:	48 c7 45 e0 00 00 00 	movq   $0x0,-0x20(%rbp)
  402833:	00 
  402834:	c7 45 e8 00 00 00 00 	movl   $0x0,-0x18(%rbp)
  40283b:	c7 45 ec 00 00 00 00 	movl   $0x0,-0x14(%rbp)
  402842:	c7 45 c8 00 00 00 00 	movl   $0x0,-0x38(%rbp)
  402849:	c7 45 c4 00 00 00 00 	movl   $0x0,-0x3c(%rbp)
  402850:	c7 45 cc 00 00 00 00 	movl   $0x0,-0x34(%rbp)
  402857:	48 8d 45 d0          	lea    -0x30(%rbp),%rax
  40285b:	ba 00 10 00 00       	mov    $0x1000,%edx
  402860:	be 00 00 00 00       	mov    $0x0,%esi
  402865:	48 89 c7             	mov    %rax,%rdi
  402868:	e8 af 34 00 00       	callq  405d1c <private_str_alloc_memchunk>
  40286d:	48 8d 45 d0          	lea    -0x30(%rbp),%rax
  402871:	ba 00 10 00 00       	mov    $0x1000,%edx
  402876:	48 89 c6             	mov    %rax,%rsi
  402879:	bf 01 00 00 00       	mov    $0x1,%edi
  40287e:	e8 e1 00 00 00       	callq  402964 <message_recv_peek>
  402883:	89 45 cc             	mov    %eax,-0x34(%rbp)
  402886:	83 7d cc 00          	cmpl   $0x0,-0x34(%rbp)
  40288a:	75 16                	jne    4028a2 <get_netdata+0xac>
  40288c:	48 8d 45 d0          	lea    -0x30(%rbp),%rax
  402890:	48 89 c7             	mov    %rax,%rdi
  402893:	e8 59 37 00 00       	callq  405ff1 <str_free>
  402898:	b8 00 00 00 00       	mov    $0x0,%eax
  40289d:	e9 ac 00 00 00       	jmpq   40294e <get_netdata+0x158>
  4028a2:	48 8d 55 c4          	lea    -0x3c(%rbp),%rdx
  4028a6:	48 8d 4d e0          	lea    -0x20(%rbp),%rcx
  4028aa:	48 8d 45 d0          	lea    -0x30(%rbp),%rax
  4028ae:	48 89 ce             	mov    %rcx,%rsi
  4028b1:	48 89 c7             	mov    %rax,%rdi
  4028b4:	e8 16 47 00 00       	callq  406fcf <str_getline>
  4028b9:	89 45 c8             	mov    %eax,-0x38(%rbp)
  4028bc:	48 8b 45 e0          	mov    -0x20(%rbp),%rax
  4028c0:	be 0e 00 00 00       	mov    $0xe,%esi
  4028c5:	48 89 c7             	mov    %rax,%rdi
  4028c8:	e8 70 6d 00 00       	callq  40963d <sysutil_syslog>
  4028cd:	83 7d c8 00          	cmpl   $0x0,-0x38(%rbp)
  4028d1:	74 43                	je     402916 <get_netdata+0x120>
  4028d3:	8b 45 c4             	mov    -0x3c(%rbp),%eax
  4028d6:	8d 50 01             	lea    0x1(%rax),%edx
  4028d9:	48 8d 45 d0          	lea    -0x30(%rbp),%rax
  4028dd:	48 89 c6             	mov    %rax,%rsi
  4028e0:	bf 01 00 00 00       	mov    $0x1,%edi
  4028e5:	e8 be 03 00 00       	callq  402ca8 <read_data>
  4028ea:	89 45 cc             	mov    %eax,-0x34(%rbp)
  4028ed:	48 8d 4d e0          	lea    -0x20(%rbp),%rcx
  4028f1:	48 8b 45 b8          	mov    -0x48(%rbp),%rax
  4028f5:	ba 10 00 00 00       	mov    $0x10,%edx
  4028fa:	48 89 ce             	mov    %rcx,%rsi
  4028fd:	48 89 c7             	mov    %rax,%rdi
  402900:	e8 e4 58 00 00       	callq  4081e9 <sysutil_memcpy>
  402905:	48 8d 45 d0          	lea    -0x30(%rbp),%rax
  402909:	48 89 c7             	mov    %rax,%rdi
  40290c:	e8 e0 36 00 00       	callq  405ff1 <str_free>
  402911:	8b 45 c4             	mov    -0x3c(%rbp),%eax
  402914:	eb 38                	jmp    40294e <get_netdata+0x158>
  402916:	8b 55 cc             	mov    -0x34(%rbp),%edx
  402919:	48 8d 45 d0          	lea    -0x30(%rbp),%rax
  40291d:	48 89 c6             	mov    %rax,%rsi
  402920:	bf 01 00 00 00       	mov    $0x1,%edi
  402925:	e8 7e 03 00 00       	callq  402ca8 <read_data>
  40292a:	48 8d 45 d0          	lea    -0x30(%rbp),%rax
  40292e:	48 89 c7             	mov    %rax,%rdi
  402931:	e8 89 36 00 00       	callq  405fbf <str_empty>
  402936:	48 8d 45 e0          	lea    -0x20(%rbp),%rax
  40293a:	48 89 c7             	mov    %rax,%rdi
  40293d:	e8 af 36 00 00       	callq  405ff1 <str_free>
  402942:	c7 45 c4 00 00 00 00 	movl   $0x0,-0x3c(%rbp)
  402949:	e9 1f ff ff ff       	jmpq   40286d <get_netdata+0x77>
  40294e:	48 8b 4d f8          	mov    -0x8(%rbp),%rcx
  402952:	64 48 33 0c 25 28 00 	xor    %fs:0x28,%rcx
  402959:	00 00 
  40295b:	74 05                	je     402962 <get_netdata+0x16c>
  40295d:	e8 3e f8 ff ff       	callq  4021a0 <__stack_chk_fail@plt>
  402962:	c9                   	leaveq 
  402963:	c3                   	retq   

0000000000402964 <message_recv_peek>:
  402964:	55                   	push   %rbp
  402965:	48 89 e5             	mov    %rsp,%rbp
  402968:	48 83 ec 20          	sub    $0x20,%rsp
  40296c:	89 7d ec             	mov    %edi,-0x14(%rbp)
  40296f:	48 89 75 e0          	mov    %rsi,-0x20(%rbp)
  402973:	89 55 e8             	mov    %edx,-0x18(%rbp)
  402976:	eb 21                	jmp    402999 <message_recv_peek+0x35>
  402978:	e8 a3 f6 ff ff       	callq  402020 <__errno_location@plt>
  40297d:	8b 00                	mov    (%rax),%eax
  40297f:	83 f8 0b             	cmp    $0xb,%eax
  402982:	74 15                	je     402999 <message_recv_peek+0x35>
  402984:	e8 97 f6 ff ff       	callq  402020 <__errno_location@plt>
  402989:	8b 00                	mov    (%rax),%eax
  40298b:	83 f8 04             	cmp    $0x4,%eax
  40298e:	75 02                	jne    402992 <message_recv_peek+0x2e>
  402990:	eb 07                	jmp    402999 <message_recv_peek+0x35>
  402992:	b8 00 00 00 00       	mov    $0x0,%eax
  402997:	eb 37                	jmp    4029d0 <message_recv_peek+0x6c>
  402999:	48 8b 45 e0          	mov    -0x20(%rbp),%rax
  40299d:	48 8b 00             	mov    (%rax),%rax
  4029a0:	8b 55 e8             	mov    -0x18(%rbp),%edx
  4029a3:	48 89 c6             	mov    %rax,%rsi
  4029a6:	bf 01 00 00 00       	mov    $0x1,%edi
  4029ab:	e8 b8 69 00 00       	callq  409368 <sysutil_recv_peek>
  4029b0:	89 45 fc             	mov    %eax,-0x4(%rbp)
  4029b3:	83 7d fc 00          	cmpl   $0x0,-0x4(%rbp)
  4029b7:	7e bf                	jle    402978 <message_recv_peek+0x14>
  4029b9:	8b 55 fc             	mov    -0x4(%rbp),%edx
  4029bc:	48 8b 45 e0          	mov    -0x20(%rbp),%rax
  4029c0:	89 50 0c             	mov    %edx,0xc(%rax)
  4029c3:	8b 55 fc             	mov    -0x4(%rbp),%edx
  4029c6:	48 8b 45 e0          	mov    -0x20(%rbp),%rax
  4029ca:	89 50 08             	mov    %edx,0x8(%rax)
  4029cd:	8b 45 fc             	mov    -0x4(%rbp),%eax
  4029d0:	c9                   	leaveq 
  4029d1:	c3                   	retq   

00000000004029d2 <write_cmd_respond>:
  4029d2:	55                   	push   %rbp
  4029d3:	48 89 e5             	mov    %rsp,%rbp
  4029d6:	48 83 ec 30          	sub    $0x30,%rsp
  4029da:	89 7d dc             	mov    %edi,-0x24(%rbp)
  4029dd:	89 75 d8             	mov    %esi,-0x28(%rbp)
  4029e0:	48 89 55 d0          	mov    %rdx,-0x30(%rbp)
  4029e4:	64 48 8b 04 25 28 00 	mov    %fs:0x28,%rax
  4029eb:	00 00 
  4029ed:	48 89 45 f8          	mov    %rax,-0x8(%rbp)
  4029f1:	31 c0                	xor    %eax,%eax
  4029f3:	48 c7 45 e0 00 00 00 	movq   $0x0,-0x20(%rbp)
  4029fa:	00 
  4029fb:	c7 45 e8 00 00 00 00 	movl   $0x0,-0x18(%rbp)
  402a02:	c7 45 ec 00 00 00 00 	movl   $0x0,-0x14(%rbp)
  402a09:	8b 55 d8             	mov    -0x28(%rbp),%edx
  402a0c:	48 8d 45 f0          	lea    -0x10(%rbp),%rax
  402a10:	89 d1                	mov    %edx,%ecx
  402a12:	ba 18 a7 40 00       	mov    $0x40a718,%edx
  402a17:	be 04 00 00 00       	mov    $0x4,%esi
  402a1c:	48 89 c7             	mov    %rax,%rdi
  402a1f:	b8 00 00 00 00       	mov    $0x0,%eax
  402a24:	e8 c7 f7 ff ff       	callq  4021f0 <snprintf@plt>
  402a29:	48 8d 55 f0          	lea    -0x10(%rbp),%rdx
  402a2d:	48 8d 45 e0          	lea    -0x20(%rbp),%rax
  402a31:	48 89 d6             	mov    %rdx,%rsi
  402a34:	48 89 c7             	mov    %rax,%rdi
  402a37:	e8 3b 38 00 00       	callq  406277 <str_append_text>
  402a3c:	48 8d 45 e0          	lea    -0x20(%rbp),%rax
  402a40:	be 20 00 00 00       	mov    $0x20,%esi
  402a45:	48 89 c7             	mov    %rax,%rdi
  402a48:	e8 ca 39 00 00       	callq  406417 <str_append_char>
  402a4d:	48 8b 55 d0          	mov    -0x30(%rbp),%rdx
  402a51:	48 8d 45 e0          	lea    -0x20(%rbp),%rax
  402a55:	48 89 d6             	mov    %rdx,%rsi
  402a58:	48 89 c7             	mov    %rax,%rdi
  402a5b:	e8 17 38 00 00       	callq  406277 <str_append_text>
  402a60:	8b 55 e8             	mov    -0x18(%rbp),%edx
  402a63:	48 8d 4d e0          	lea    -0x20(%rbp),%rcx
  402a67:	8b 45 dc             	mov    -0x24(%rbp),%eax
  402a6a:	48 89 ce             	mov    %rcx,%rsi
  402a6d:	89 c7                	mov    %eax,%edi
  402a6f:	e8 f5 01 00 00       	callq  402c69 <write_data>
  402a74:	48 8d 45 e0          	lea    -0x20(%rbp),%rax
  402a78:	48 89 c7             	mov    %rax,%rdi
  402a7b:	e8 71 35 00 00       	callq  405ff1 <str_free>
  402a80:	90                   	nop
  402a81:	48 8b 45 f8          	mov    -0x8(%rbp),%rax
  402a85:	64 48 33 04 25 28 00 	xor    %fs:0x28,%rax
  402a8c:	00 00 
  402a8e:	74 05                	je     402a95 <write_cmd_respond+0xc3>
  402a90:	e8 0b f7 ff ff       	callq  4021a0 <__stack_chk_fail@plt>
  402a95:	c9                   	leaveq 
  402a96:	c3                   	retq   

0000000000402a97 <write_data_respond>:
  402a97:	55                   	push   %rbp
  402a98:	48 89 e5             	mov    %rsp,%rbp
  402a9b:	48 83 ec 30          	sub    $0x30,%rsp
  402a9f:	89 7d dc             	mov    %edi,-0x24(%rbp)
  402aa2:	89 75 d8             	mov    %esi,-0x28(%rbp)
  402aa5:	48 89 55 d0          	mov    %rdx,-0x30(%rbp)
  402aa9:	64 48 8b 04 25 28 00 	mov    %fs:0x28,%rax
  402ab0:	00 00 
  402ab2:	48 89 45 f8          	mov    %rax,-0x8(%rbp)
  402ab6:	31 c0                	xor    %eax,%eax
  402ab8:	48 c7 45 e0 00 00 00 	movq   $0x0,-0x20(%rbp)
  402abf:	00 
  402ac0:	c7 45 e8 00 00 00 00 	movl   $0x0,-0x18(%rbp)
  402ac7:	c7 45 ec 00 00 00 00 	movl   $0x0,-0x14(%rbp)
  402ace:	48 8b 55 d0          	mov    -0x30(%rbp),%rdx
  402ad2:	48 8d 45 e0          	lea    -0x20(%rbp),%rax
  402ad6:	48 89 d6             	mov    %rdx,%rsi
  402ad9:	48 89 c7             	mov    %rax,%rdi
  402adc:	e8 96 37 00 00       	callq  406277 <str_append_text>
  402ae1:	83 7d d8 00          	cmpl   $0x0,-0x28(%rbp)
  402ae5:	74 11                	je     402af8 <write_data_respond+0x61>
  402ae7:	48 8d 45 e0          	lea    -0x20(%rbp),%rax
  402aeb:	be 1b a7 40 00       	mov    $0x40a71b,%esi
  402af0:	48 89 c7             	mov    %rax,%rdi
  402af3:	e8 7f 37 00 00       	callq  406277 <str_append_text>
  402af8:	8b 55 e8             	mov    -0x18(%rbp),%edx
  402afb:	48 8d 4d e0          	lea    -0x20(%rbp),%rcx
  402aff:	8b 45 dc             	mov    -0x24(%rbp),%eax
  402b02:	48 89 ce             	mov    %rcx,%rsi
  402b05:	89 c7                	mov    %eax,%edi
  402b07:	e8 5d 01 00 00       	callq  402c69 <write_data>
  402b0c:	48 8d 45 e0          	lea    -0x20(%rbp),%rax
  402b10:	48 89 c7             	mov    %rax,%rdi
  402b13:	e8 d9 34 00 00       	callq  405ff1 <str_free>
  402b18:	90                   	nop
  402b19:	48 8b 45 f8          	mov    -0x8(%rbp),%rax
  402b1d:	64 48 33 04 25 28 00 	xor    %fs:0x28,%rax
  402b24:	00 00 
  402b26:	74 05                	je     402b2d <write_data_respond+0x96>
  402b28:	e8 73 f6 ff ff       	callq  4021a0 <__stack_chk_fail@plt>
  402b2d:	c9                   	leaveq 
  402b2e:	c3                   	retq   

0000000000402b2f <write_file_data>:
  402b2f:	55                   	push   %rbp
  402b30:	48 89 e5             	mov    %rsp,%rbp
  402b33:	48 83 ec 40          	sub    $0x40,%rsp
  402b37:	48 89 7d c8          	mov    %rdi,-0x38(%rbp)
  402b3b:	48 89 75 c0          	mov    %rsi,-0x40(%rbp)
  402b3f:	c7 45 d8 00 10 00 00 	movl   $0x1000,-0x28(%rbp)
  402b46:	48 8b 45 c8          	mov    -0x38(%rbp),%rax
  402b4a:	48 8b 80 e8 00 00 00 	mov    0xe8(%rax),%rax
  402b51:	48 89 45 e8          	mov    %rax,-0x18(%rbp)
  402b55:	48 c7 45 f0 00 00 00 	movq   $0x0,-0x10(%rbp)
  402b5c:	00 
  402b5d:	48 c7 45 e0 00 00 00 	movq   $0x0,-0x20(%rbp)
  402b64:	00 
  402b65:	48 8b 45 c0          	mov    -0x40(%rbp),%rax
  402b69:	be 01 00 00 00       	mov    $0x1,%esi
  402b6e:	48 89 c7             	mov    %rax,%rdi
  402b71:	e8 f6 4b 00 00       	callq  40776c <sysutil_open_file>
  402b76:	89 45 dc             	mov    %eax,-0x24(%rbp)
  402b79:	83 7d dc 00          	cmpl   $0x0,-0x24(%rbp)
  402b7d:	79 0a                	jns    402b89 <write_file_data+0x5a>
  402b7f:	b8 ff ff ff ff       	mov    $0xffffffff,%eax
  402b84:	e9 de 00 00 00       	jmpq   402c67 <write_file_data+0x138>
  402b89:	8b 45 d8             	mov    -0x28(%rbp),%eax
  402b8c:	48 98                	cltq   
  402b8e:	48 3b 45 e8          	cmp    -0x18(%rbp),%rax
  402b92:	7e 07                	jle    402b9b <write_file_data+0x6c>
  402b94:	48 8b 45 e8          	mov    -0x18(%rbp),%rax
  402b98:	89 45 d8             	mov    %eax,-0x28(%rbp)
  402b9b:	be 0e 00 00 00       	mov    $0xe,%esi
  402ba0:	bf 1e a7 40 00       	mov    $0x40a71e,%edi
  402ba5:	e8 93 6a 00 00       	callq  40963d <sysutil_syslog>
  402baa:	e9 8f 00 00 00       	jmpq   402c3e <write_file_data+0x10f>
  402baf:	48 8b 55 e8          	mov    -0x18(%rbp),%rdx
  402bb3:	48 8b 45 c8          	mov    -0x38(%rbp),%rax
  402bb7:	48 8d 78 78          	lea    0x78(%rax),%rdi
  402bbb:	48 8b 45 c8          	mov    -0x38(%rbp),%rax
  402bbf:	8b 40 30             	mov    0x30(%rax),%eax
  402bc2:	8b 75 dc             	mov    -0x24(%rbp),%esi
  402bc5:	48 89 d1             	mov    %rdx,%rcx
  402bc8:	48 89 fa             	mov    %rdi,%rdx
  402bcb:	89 c7                	mov    %eax,%edi
  402bcd:	e8 de f8 ff ff       	callq  4024b0 <sendfile@plt>
  402bd2:	48 89 45 e0          	mov    %rax,-0x20(%rbp)
  402bd6:	48 83 7d e0 00       	cmpq   $0x0,-0x20(%rbp)
  402bdb:	79 42                	jns    402c1f <write_file_data+0xf0>
  402bdd:	e8 3e f4 ff ff       	callq  402020 <__errno_location@plt>
  402be2:	8b 00                	mov    (%rax),%eax
  402be4:	83 f8 04             	cmp    $0x4,%eax
  402be7:	75 02                	jne    402beb <write_file_data+0xbc>
  402be9:	eb 53                	jmp    402c3e <write_file_data+0x10f>
  402beb:	e8 30 f4 ff ff       	callq  402020 <__errno_location@plt>
  402bf0:	8b 00                	mov    (%rax),%eax
  402bf2:	89 c7                	mov    %eax,%edi
  402bf4:	e8 77 fa ff ff       	callq  402670 <strerror@plt>
  402bf9:	48 89 45 f8          	mov    %rax,-0x8(%rbp)
  402bfd:	48 8b 45 f8          	mov    -0x8(%rbp),%rax
  402c01:	be 0e 00 00 00       	mov    $0xe,%esi
  402c06:	48 89 c7             	mov    %rax,%rdi
  402c09:	e8 2f 6a 00 00       	callq  40963d <sysutil_syslog>
  402c0e:	8b 45 dc             	mov    -0x24(%rbp),%eax
  402c11:	89 c7                	mov    %eax,%edi
  402c13:	e8 81 4c 00 00       	callq  407899 <sysutil_close>
  402c18:	b8 ff ff ff ff       	mov    $0xffffffff,%eax
  402c1d:	eb 48                	jmp    402c67 <write_file_data+0x138>
  402c1f:	48 8b 45 c8          	mov    -0x38(%rbp),%rax
  402c23:	8b 80 98 00 00 00    	mov    0x98(%rax),%eax
  402c29:	85 c0                	test   %eax,%eax
  402c2b:	74 11                	je     402c3e <write_file_data+0x10f>
  402c2d:	8b 45 dc             	mov    -0x24(%rbp),%eax
  402c30:	89 c7                	mov    %eax,%edi
  402c32:	e8 62 4c 00 00       	callq  407899 <sysutil_close>
  402c37:	b8 00 00 00 00       	mov    $0x0,%eax
  402c3c:	eb 29                	jmp    402c67 <write_file_data+0x138>
  402c3e:	48 8b 45 e0          	mov    -0x20(%rbp),%rax
  402c42:	48 3b 45 e8          	cmp    -0x18(%rbp),%rax
  402c46:	0f 8c 63 ff ff ff    	jl     402baf <write_file_data+0x80>
  402c4c:	48 8b 45 c8          	mov    -0x38(%rbp),%rax
  402c50:	48 c7 40 78 00 00 00 	movq   $0x0,0x78(%rax)
  402c57:	00 
  402c58:	8b 45 dc             	mov    -0x24(%rbp),%eax
  402c5b:	89 c7                	mov    %eax,%edi
  402c5d:	e8 37 4c 00 00       	callq  407899 <sysutil_close>
  402c62:	b8 01 00 00 00       	mov    $0x1,%eax
  402c67:	c9                   	leaveq 
  402c68:	c3                   	retq   

0000000000402c69 <write_data>:
  402c69:	55                   	push   %rbp
  402c6a:	48 89 e5             	mov    %rsp,%rbp
  402c6d:	48 83 ec 20          	sub    $0x20,%rsp
  402c71:	89 7d ec             	mov    %edi,-0x14(%rbp)
  402c74:	48 89 75 e0          	mov    %rsi,-0x20(%rbp)
  402c78:	89 55 e8             	mov    %edx,-0x18(%rbp)
  402c7b:	48 8b 45 e0          	mov    -0x20(%rbp),%rax
  402c7f:	48 8b 08             	mov    (%rax),%rcx
  402c82:	8b 55 e8             	mov    -0x18(%rbp),%edx
  402c85:	8b 45 ec             	mov    -0x14(%rbp),%eax
  402c88:	48 89 ce             	mov    %rcx,%rsi
  402c8b:	89 c7                	mov    %eax,%edi
  402c8d:	e8 58 4e 00 00       	callq  407aea <sysutil_write_loop>
  402c92:	89 45 fc             	mov    %eax,-0x4(%rbp)
  402c95:	83 7d fc 00          	cmpl   $0x0,-0x4(%rbp)
  402c99:	79 0a                	jns    402ca5 <write_data+0x3c>
  402c9b:	bf 31 a7 40 00       	mov    $0x40a731,%edi
  402ca0:	e8 35 46 00 00       	callq  4072da <die>
  402ca5:	90                   	nop
  402ca6:	c9                   	leaveq 
  402ca7:	c3                   	retq   

0000000000402ca8 <read_data>:
  402ca8:	55                   	push   %rbp
  402ca9:	48 89 e5             	mov    %rsp,%rbp
  402cac:	48 83 ec 10          	sub    $0x10,%rsp
  402cb0:	89 7d fc             	mov    %edi,-0x4(%rbp)
  402cb3:	48 89 75 f0          	mov    %rsi,-0x10(%rbp)
  402cb7:	89 55 f8             	mov    %edx,-0x8(%rbp)
  402cba:	48 8b 45 f0          	mov    -0x10(%rbp),%rax
  402cbe:	48 8b 08             	mov    (%rax),%rcx
  402cc1:	8b 55 f8             	mov    -0x8(%rbp),%edx
  402cc4:	8b 45 fc             	mov    -0x4(%rbp),%eax
  402cc7:	48 89 ce             	mov    %rcx,%rsi
  402cca:	89 c7                	mov    %eax,%edi
  402ccc:	e8 b2 4d 00 00       	callq  407a83 <sysutil_read_loop>
  402cd1:	c9                   	leaveq 
  402cd2:	c3                   	retq   

0000000000402cd3 <get_internal_cmd_data>:
  402cd3:	55                   	push   %rbp
  402cd4:	48 89 e5             	mov    %rsp,%rbp
  402cd7:	48 83 ec 20          	sub    $0x20,%rsp
  402cdb:	89 7d ec             	mov    %edi,-0x14(%rbp)
  402cde:	48 89 75 e0          	mov    %rsi,-0x20(%rbp)
  402ce2:	c7 45 fc 00 00 00 00 	movl   $0x0,-0x4(%rbp)
  402ce9:	48 8b 45 e0          	mov    -0x20(%rbp),%rax
  402ced:	48 8b 08             	mov    (%rax),%rcx
  402cf0:	8b 45 ec             	mov    -0x14(%rbp),%eax
  402cf3:	ba 00 04 00 00       	mov    $0x400,%edx
  402cf8:	48 89 ce             	mov    %rcx,%rsi
  402cfb:	89 c7                	mov    %eax,%edi
  402cfd:	e8 c7 4c 00 00       	callq  4079c9 <sysutil_read>
  402d02:	8b 55 fc             	mov    -0x4(%rbp),%edx
  402d05:	48 8b 45 e0          	mov    -0x20(%rbp),%rax
  402d09:	89 50 08             	mov    %edx,0x8(%rax)
  402d0c:	90                   	nop
  402d0d:	c9                   	leaveq 
  402d0e:	c3                   	retq   

0000000000402d0f <write_internal_cmd_request>:
  402d0f:	55                   	push   %rbp
  402d10:	48 89 e5             	mov    %rsp,%rbp
  402d13:	48 83 ec 10          	sub    $0x10,%rsp
  402d17:	89 7d fc             	mov    %edi,-0x4(%rbp)
  402d1a:	48 89 75 f0          	mov    %rsi,-0x10(%rbp)
  402d1e:	48 8b 45 f0          	mov    -0x10(%rbp),%rax
  402d22:	48 8b 00             	mov    (%rax),%rax
  402d25:	be 0e 00 00 00       	mov    $0xe,%esi
  402d2a:	48 89 c7             	mov    %rax,%rdi
  402d2d:	e8 0b 69 00 00       	callq  40963d <sysutil_syslog>
  402d32:	48 8b 45 f0          	mov    -0x10(%rbp),%rax
  402d36:	8b 50 08             	mov    0x8(%rax),%edx
  402d39:	48 8b 4d f0          	mov    -0x10(%rbp),%rcx
  402d3d:	8b 45 fc             	mov    -0x4(%rbp),%eax
  402d40:	48 89 ce             	mov    %rcx,%rsi
  402d43:	89 c7                	mov    %eax,%edi
  402d45:	e8 1f ff ff ff       	callq  402c69 <write_data>
  402d4a:	90                   	nop
  402d4b:	c9                   	leaveq 
  402d4c:	c3                   	retq   

0000000000402d4d <write_internal_cmd_respond>:
  402d4d:	55                   	push   %rbp
  402d4e:	48 89 e5             	mov    %rsp,%rbp
  402d51:	48 83 ec 30          	sub    $0x30,%rsp
  402d55:	89 7d dc             	mov    %edi,-0x24(%rbp)
  402d58:	89 75 d8             	mov    %esi,-0x28(%rbp)
  402d5b:	48 89 55 d0          	mov    %rdx,-0x30(%rbp)
  402d5f:	64 48 8b 04 25 28 00 	mov    %fs:0x28,%rax
  402d66:	00 00 
  402d68:	48 89 45 f8          	mov    %rax,-0x8(%rbp)
  402d6c:	31 c0                	xor    %eax,%eax
  402d6e:	48 c7 45 e0 00 00 00 	movq   $0x0,-0x20(%rbp)
  402d75:	00 
  402d76:	c7 45 e8 00 00 00 00 	movl   $0x0,-0x18(%rbp)
  402d7d:	c7 45 ec 00 00 00 00 	movl   $0x0,-0x14(%rbp)
  402d84:	8b 45 d8             	mov    -0x28(%rbp),%eax
  402d87:	0f be d0             	movsbl %al,%edx
  402d8a:	48 8d 45 e0          	lea    -0x20(%rbp),%rax
  402d8e:	89 d6                	mov    %edx,%esi
  402d90:	48 89 c7             	mov    %rax,%rdi
  402d93:	e8 7f 36 00 00       	callq  406417 <str_append_char>
  402d98:	48 83 7d d0 00       	cmpq   $0x0,-0x30(%rbp)
  402d9d:	74 24                	je     402dc3 <write_internal_cmd_respond+0x76>
  402d9f:	48 8d 45 e0          	lea    -0x20(%rbp),%rax
  402da3:	be 20 00 00 00       	mov    $0x20,%esi
  402da8:	48 89 c7             	mov    %rax,%rdi
  402dab:	e8 67 36 00 00       	callq  406417 <str_append_char>
  402db0:	48 8b 55 d0          	mov    -0x30(%rbp),%rdx
  402db4:	48 8d 45 e0          	lea    -0x20(%rbp),%rax
  402db8:	48 89 d6             	mov    %rdx,%rsi
  402dbb:	48 89 c7             	mov    %rax,%rdi
  402dbe:	e8 23 34 00 00       	callq  4061e6 <str_append_str>
  402dc3:	be 0e 00 00 00       	mov    $0xe,%esi
  402dc8:	bf 37 a7 40 00       	mov    $0x40a737,%edi
  402dcd:	e8 6b 68 00 00       	callq  40963d <sysutil_syslog>
  402dd2:	48 8b 45 e0          	mov    -0x20(%rbp),%rax
  402dd6:	be 0e 00 00 00       	mov    $0xe,%esi
  402ddb:	48 89 c7             	mov    %rax,%rdi
  402dde:	e8 5a 68 00 00       	callq  40963d <sysutil_syslog>
  402de3:	8b 55 e8             	mov    -0x18(%rbp),%edx
  402de6:	48 8d 4d e0          	lea    -0x20(%rbp),%rcx
  402dea:	8b 45 dc             	mov    -0x24(%rbp),%eax
  402ded:	48 89 ce             	mov    %rcx,%rsi
  402df0:	89 c7                	mov    %eax,%edi
  402df2:	e8 72 fe ff ff       	callq  402c69 <write_data>
  402df7:	48 8d 45 e0          	lea    -0x20(%rbp),%rax
  402dfb:	48 89 c7             	mov    %rax,%rdi
  402dfe:	e8 ee 31 00 00       	callq  405ff1 <str_free>
  402e03:	90                   	nop
  402e04:	48 8b 45 f8          	mov    -0x8(%rbp),%rax
  402e08:	64 48 33 04 25 28 00 	xor    %fs:0x28,%rax
  402e0f:	00 00 
  402e11:	74 05                	je     402e18 <write_internal_cmd_respond+0xcb>
  402e13:	e8 88 f3 ff ff       	callq  4021a0 <__stack_chk_fail@plt>
  402e18:	c9                   	leaveq 
  402e19:	c3                   	retq   

0000000000402e1a <recv_portmod_socket>:
  402e1a:	55                   	push   %rbp
  402e1b:	48 89 e5             	mov    %rsp,%rbp
  402e1e:	48 83 ec 20          	sub    $0x20,%rsp
  402e22:	48 89 7d e8          	mov    %rdi,-0x18(%rbp)
  402e26:	64 48 8b 04 25 28 00 	mov    %fs:0x28,%rax
  402e2d:	00 00 
  402e2f:	48 89 45 f8          	mov    %rax,-0x8(%rbp)
  402e33:	31 c0                	xor    %eax,%eax
  402e35:	c7 45 f4 00 00 00 00 	movl   $0x0,-0xc(%rbp)
  402e3c:	48 8b 45 e8          	mov    -0x18(%rbp),%rax
  402e40:	8b 80 14 01 00 00    	mov    0x114(%rax),%eax
  402e46:	48 8d 55 f4          	lea    -0xc(%rbp),%rdx
  402e4a:	48 89 d6             	mov    %rdx,%rsi
  402e4d:	89 c7                	mov    %eax,%edi
  402e4f:	e8 cc 6d 00 00       	callq  409c20 <sysutil_recvfd>
  402e54:	8b 55 f4             	mov    -0xc(%rbp),%edx
  402e57:	48 8b 45 e8          	mov    -0x18(%rbp),%rax
  402e5b:	89 50 30             	mov    %edx,0x30(%rax)
  402e5e:	be 0e 00 00 00       	mov    $0xe,%esi
  402e63:	bf 4e a7 40 00       	mov    $0x40a74e,%edi
  402e68:	e8 d0 67 00 00       	callq  40963d <sysutil_syslog>
  402e6d:	90                   	nop
  402e6e:	48 8b 45 f8          	mov    -0x8(%rbp),%rax
  402e72:	64 48 33 04 25 28 00 	xor    %fs:0x28,%rax
  402e79:	00 00 
  402e7b:	74 05                	je     402e82 <recv_portmod_socket+0x68>
  402e7d:	e8 1e f3 ff ff       	callq  4021a0 <__stack_chk_fail@plt>
  402e82:	c9                   	leaveq 
  402e83:	c3                   	retq   

0000000000402e84 <clear_data_connection>:
  402e84:	55                   	push   %rbp
  402e85:	48 89 e5             	mov    %rsp,%rbp
  402e88:	48 83 ec 10          	sub    $0x10,%rsp
  402e8c:	48 89 7d f8          	mov    %rdi,-0x8(%rbp)
  402e90:	48 8b 45 f8          	mov    -0x8(%rbp),%rax
  402e94:	8b 40 30             	mov    0x30(%rax),%eax
  402e97:	89 c7                	mov    %eax,%edi
  402e99:	e8 90 64 00 00       	callq  40932e <sysutil_shutdown_failok>
  402e9e:	48 8b 45 f8          	mov    -0x8(%rbp),%rax
  402ea2:	8b 80 84 00 00 00    	mov    0x84(%rax),%eax
  402ea8:	85 c0                	test   %eax,%eax
  402eaa:	74 2b                	je     402ed7 <clear_data_connection+0x53>
  402eac:	48 8b 45 f8          	mov    -0x8(%rbp),%rax
  402eb0:	8b 40 20             	mov    0x20(%rax),%eax
  402eb3:	89 c7                	mov    %eax,%edi
  402eb5:	e8 df 49 00 00       	callq  407899 <sysutil_close>
  402eba:	48 8b 45 f8          	mov    -0x8(%rbp),%rax
  402ebe:	c7 40 20 ff ff ff ff 	movl   $0xffffffff,0x20(%rax)
  402ec5:	48 8b 45 f8          	mov    -0x8(%rbp),%rax
  402ec9:	48 83 c0 08          	add    $0x8,%rax
  402ecd:	48 89 c7             	mov    %rax,%rdi
  402ed0:	e8 62 55 00 00       	callq  408437 <sysutil_sockaddr_clear>
  402ed5:	eb 10                	jmp    402ee7 <clear_data_connection+0x63>
  402ed7:	48 8b 45 f8          	mov    -0x8(%rbp),%rax
  402edb:	48 83 c0 28          	add    $0x28,%rax
  402edf:	48 89 c7             	mov    %rax,%rdi
  402ee2:	e8 50 55 00 00       	callq  408437 <sysutil_sockaddr_clear>
  402ee7:	90                   	nop
  402ee8:	c9                   	leaveq 
  402ee9:	c3                   	retq   

0000000000402eea <test_filename>:
  402eea:	55                   	push   %rbp
  402eeb:	48 89 e5             	mov    %rsp,%rbp
  402eee:	48 83 ec 20          	sub    $0x20,%rsp
  402ef2:	48 89 7d f8          	mov    %rdi,-0x8(%rbp)
  402ef6:	48 89 75 f0          	mov    %rsi,-0x10(%rbp)
  402efa:	89 55 ec             	mov    %edx,-0x14(%rbp)
  402efd:	48 8b 45 f8          	mov    -0x8(%rbp),%rax
  402f01:	48 89 c7             	mov    %rax,%rdi
  402f04:	e8 88 31 00 00       	callq  406091 <str_isempty>
  402f09:	85 c0                	test   %eax,%eax
  402f0b:	75 65                	jne    402f72 <test_filename+0x88>
  402f0d:	48 8b 45 f8          	mov    -0x8(%rbp),%rax
  402f11:	48 89 c7             	mov    %rax,%rdi
  402f14:	e8 91 31 00 00       	callq  4060aa <str_getlen>
  402f19:	3d 80 00 00 00       	cmp    $0x80,%eax
  402f1e:	77 52                	ja     402f72 <test_filename+0x88>
  402f20:	48 8b 45 f8          	mov    -0x8(%rbp),%rax
  402f24:	48 89 c7             	mov    %rax,%rdi
  402f27:	e8 ae 3e 00 00       	callq  406dda <str_all_space>
  402f2c:	85 c0                	test   %eax,%eax
  402f2e:	75 42                	jne    402f72 <test_filename+0x88>
  402f30:	48 8b 45 f8          	mov    -0x8(%rbp),%rax
  402f34:	48 89 c7             	mov    %rax,%rdi
  402f37:	e8 ae 3f 00 00       	callq  406eea <str_contains_unprintable>
  402f3c:	85 c0                	test   %eax,%eax
  402f3e:	75 32                	jne    402f72 <test_filename+0x88>
  402f40:	48 8b 45 f8          	mov    -0x8(%rbp),%rax
  402f44:	48 8b 00             	mov    (%rax),%rax
  402f47:	8b 55 ec             	mov    -0x14(%rbp),%edx
  402f4a:	89 d6                	mov    %edx,%esi
  402f4c:	48 89 c7             	mov    %rax,%rdi
  402f4f:	e8 1c f6 ff ff       	callq  402570 <access@plt>
  402f54:	85 c0                	test   %eax,%eax
  402f56:	75 1a                	jne    402f72 <test_filename+0x88>
  402f58:	48 8b 45 f8          	mov    -0x8(%rbp),%rax
  402f5c:	48 8b 00             	mov    (%rax),%rax
  402f5f:	48 8b 55 f0          	mov    -0x10(%rbp),%rdx
  402f63:	48 89 d6             	mov    %rdx,%rsi
  402f66:	48 89 c7             	mov    %rax,%rdi
  402f69:	e8 48 4c 00 00       	callq  407bb6 <sysutil_lstat>
  402f6e:	85 c0                	test   %eax,%eax
  402f70:	74 22                	je     402f94 <test_filename+0xaa>
  402f72:	48 8b 45 f8          	mov    -0x8(%rbp),%rax
  402f76:	48 89 c7             	mov    %rax,%rdi
  402f79:	e8 73 30 00 00       	callq  405ff1 <str_free>
  402f7e:	48 8b 45 f0          	mov    -0x10(%rbp),%rax
  402f82:	48 8b 00             	mov    (%rax),%rax
  402f85:	48 89 c7             	mov    %rax,%rdi
  402f88:	e8 3a 50 00 00       	callq  407fc7 <sysutil_free>
  402f8d:	b8 00 00 00 00       	mov    $0x0,%eax
  402f92:	eb 05                	jmp    402f99 <test_filename+0xaf>
  402f94:	b8 01 00 00 00       	mov    $0x1,%eax
  402f99:	c9                   	leaveq 
  402f9a:	c3                   	retq   

0000000000402f9b <prepare_port_pattern>:
  402f9b:	55                   	push   %rbp
  402f9c:	48 89 e5             	mov    %rsp,%rbp
  402f9f:	53                   	push   %rbx
  402fa0:	48 83 ec 78          	sub    $0x78,%rsp
  402fa4:	48 89 7d 88          	mov    %rdi,-0x78(%rbp)
  402fa8:	48 89 75 80          	mov    %rsi,-0x80(%rbp)
  402fac:	64 48 8b 04 25 28 00 	mov    %fs:0x28,%rax
  402fb3:	00 00 
  402fb5:	48 89 45 e8          	mov    %rax,-0x18(%rbp)
  402fb9:	31 c0                	xor    %eax,%eax
  402fbb:	48 c7 45 a0 00 00 00 	movq   $0x0,-0x60(%rbp)
  402fc2:	00 
  402fc3:	48 c7 45 b0 00 00 00 	movq   $0x0,-0x50(%rbp)
  402fca:	00 
  402fcb:	c7 45 b8 00 00 00 00 	movl   $0x0,-0x48(%rbp)
  402fd2:	c7 45 bc 00 00 00 00 	movl   $0x0,-0x44(%rbp)
  402fd9:	48 c7 45 c0 00 00 00 	movq   $0x0,-0x40(%rbp)
  402fe0:	00 
  402fe1:	c7 45 c8 00 00 00 00 	movl   $0x0,-0x38(%rbp)
  402fe8:	c7 45 cc 00 00 00 00 	movl   $0x0,-0x34(%rbp)
  402fef:	48 c7 45 d0 00 00 00 	movq   $0x0,-0x30(%rbp)
  402ff6:	00 
  402ff7:	c7 45 d8 00 00 00 00 	movl   $0x0,-0x28(%rbp)
  402ffe:	c7 45 dc 00 00 00 00 	movl   $0x0,-0x24(%rbp)
  403005:	48 8d 4d b0          	lea    -0x50(%rbp),%rcx
  403009:	48 8b 45 88          	mov    -0x78(%rbp),%rax
  40300d:	ba 20 00 00 00       	mov    $0x20,%edx
  403012:	48 89 ce             	mov    %rcx,%rsi
  403015:	48 89 c7             	mov    %rax,%rdi
  403018:	e8 e2 36 00 00       	callq  4066ff <str_split_char>
  40301d:	48 8d 45 b0          	lea    -0x50(%rbp),%rax
  403021:	ba 2e 00 00 00       	mov    $0x2e,%edx
  403026:	be 2c 00 00 00       	mov    $0x2c,%esi
  40302b:	48 89 c7             	mov    %rax,%rdi
  40302e:	e8 5d 36 00 00       	callq  406690 <str_replace_char>
  403033:	48 8d 4d d0          	lea    -0x30(%rbp),%rcx
  403037:	48 8d 45 b0          	lea    -0x50(%rbp),%rax
  40303b:	ba 2e 00 00 00       	mov    $0x2e,%edx
  403040:	48 89 ce             	mov    %rcx,%rsi
  403043:	48 89 c7             	mov    %rax,%rdi
  403046:	e8 b4 37 00 00       	callq  4067ff <str_split_char_reverse>
  40304b:	48 8d 4d c0          	lea    -0x40(%rbp),%rcx
  40304f:	48 8d 45 b0          	lea    -0x50(%rbp),%rax
  403053:	ba 2e 00 00 00       	mov    $0x2e,%edx
  403058:	48 89 ce             	mov    %rcx,%rsi
  40305b:	48 89 c7             	mov    %rax,%rdi
  40305e:	e8 9c 37 00 00       	callq  4067ff <str_split_char_reverse>
  403063:	48 8b 45 c0          	mov    -0x40(%rbp),%rax
  403067:	48 89 c7             	mov    %rax,%rdi
  40306a:	e8 41 52 00 00       	callq  4082b0 <sysutil_atoi>
  40306f:	c1 e0 08             	shl    $0x8,%eax
  403072:	89 c3                	mov    %eax,%ebx
  403074:	48 8b 45 d0          	mov    -0x30(%rbp),%rax
  403078:	48 89 c7             	mov    %rax,%rdi
  40307b:	e8 30 52 00 00       	callq  4082b0 <sysutil_atoi>
  403080:	01 d8                	add    %ebx,%eax
  403082:	89 45 98             	mov    %eax,-0x68(%rbp)
  403085:	48 8d 45 c0          	lea    -0x40(%rbp),%rax
  403089:	48 89 c7             	mov    %rax,%rdi
  40308c:	e8 60 2f 00 00       	callq  405ff1 <str_free>
  403091:	48 8d 45 d0          	lea    -0x30(%rbp),%rax
  403095:	48 89 c7             	mov    %rax,%rdi
  403098:	e8 54 2f 00 00       	callq  405ff1 <str_free>
  40309d:	48 c7 45 a8 00 00 00 	movq   $0x0,-0x58(%rbp)
  4030a4:	00 
  4030a5:	e8 e1 56 00 00       	callq  40878b <sysutil_get_ipv4_sock>
  4030aa:	89 45 9c             	mov    %eax,-0x64(%rbp)
  4030ad:	8b 45 9c             	mov    -0x64(%rbp),%eax
  4030b0:	89 c7                	mov    %eax,%edi
  4030b2:	e8 bb 5f 00 00       	callq  409072 <sysutil_activate_reuseaddr>
  4030b7:	8b 45 9c             	mov    -0x64(%rbp),%eax
  4030ba:	89 c7                	mov    %eax,%edi
  4030bc:	e8 b7 61 00 00       	callq  409278 <sysutil_activate_noblock>
  4030c1:	48 8d 45 a8          	lea    -0x58(%rbp),%rax
  4030c5:	48 89 c7             	mov    %rax,%rdi
  4030c8:	e8 9f 53 00 00       	callq  40846c <sysutil_sockaddr_alloc_ipv4>
  4030cd:	48 8b 45 a8          	mov    -0x58(%rbp),%rax
  4030d1:	48 89 c7             	mov    %rax,%rdi
  4030d4:	e8 a0 54 00 00       	callq  408579 <sysutil_sockaddr_set_any>
  4030d9:	48 8b 45 a8          	mov    -0x58(%rbp),%rax
  4030dd:	be 14 00 00 00       	mov    $0x14,%esi
  4030e2:	48 89 c7             	mov    %rax,%rdi
  4030e5:	e8 4b 55 00 00       	callq  408635 <sysutil_sockaddr_set_port>
  4030ea:	48 8b 55 a8          	mov    -0x58(%rbp),%rdx
  4030ee:	8b 45 9c             	mov    -0x64(%rbp),%eax
  4030f1:	48 89 d6             	mov    %rdx,%rsi
  4030f4:	89 c7                	mov    %eax,%edi
  4030f6:	e8 35 57 00 00       	callq  408830 <sysutil_bind>
  4030fb:	48 8b 45 a8          	mov    -0x58(%rbp),%rax
  4030ff:	48 89 c7             	mov    %rax,%rdi
  403102:	e8 c0 4e 00 00       	callq  407fc7 <sysutil_free>
  403107:	48 8d 45 a0          	lea    -0x60(%rbp),%rax
  40310b:	48 89 c7             	mov    %rax,%rdi
  40310e:	e8 59 53 00 00       	callq  40846c <sysutil_sockaddr_alloc_ipv4>
  403113:	48 8b 55 b0          	mov    -0x50(%rbp),%rdx
  403117:	48 8b 45 a0          	mov    -0x60(%rbp),%rax
  40311b:	48 89 d6             	mov    %rdx,%rsi
  40311e:	48 89 c7             	mov    %rax,%rdi
  403121:	e8 07 54 00 00       	callq  40852d <sysutil_sockaddr_set_ipv4addr>
  403126:	8b 45 98             	mov    -0x68(%rbp),%eax
  403129:	0f b7 d0             	movzwl %ax,%edx
  40312c:	48 8b 45 a0          	mov    -0x60(%rbp),%rax
  403130:	89 d6                	mov    %edx,%esi
  403132:	48 89 c7             	mov    %rax,%rdi
  403135:	e8 fb 54 00 00       	callq  408635 <sysutil_sockaddr_set_port>
  40313a:	48 8d 45 b0          	lea    -0x50(%rbp),%rax
  40313e:	48 89 c7             	mov    %rax,%rdi
  403141:	e8 ab 2e 00 00       	callq  405ff1 <str_free>
  403146:	48 8b 4d a0          	mov    -0x60(%rbp),%rcx
  40314a:	8b 45 9c             	mov    -0x64(%rbp),%eax
  40314d:	ba 00 00 00 00       	mov    $0x0,%edx
  403152:	48 89 ce             	mov    %rcx,%rsi
  403155:	89 c7                	mov    %eax,%edi
  403157:	e8 20 5b 00 00       	callq  408c7c <sysutil_connect_timeout>
  40315c:	85 c0                	test   %eax,%eax
  40315e:	79 2e                	jns    40318e <prepare_port_pattern+0x1f3>
  403160:	48 8b 45 a0          	mov    -0x60(%rbp),%rax
  403164:	48 89 c7             	mov    %rax,%rdi
  403167:	e8 5b 4e 00 00       	callq  407fc7 <sysutil_free>
  40316c:	48 8b 45 80          	mov    -0x80(%rbp),%rax
  403170:	8b 80 10 01 00 00    	mov    0x110(%rax),%eax
  403176:	ba 00 00 00 00       	mov    $0x0,%edx
  40317b:	be 04 00 00 00       	mov    $0x4,%esi
  403180:	89 c7                	mov    %eax,%edi
  403182:	e8 c6 fb ff ff       	callq  402d4d <write_internal_cmd_respond>
  403187:	b8 ff ff ff ff       	mov    $0xffffffff,%eax
  40318c:	eb 53                	jmp    4031e1 <prepare_port_pattern+0x246>
  40318e:	be 0e 00 00 00       	mov    $0xe,%esi
  403193:	bf 5b a7 40 00       	mov    $0x40a75b,%edi
  403198:	e8 a0 64 00 00       	callq  40963d <sysutil_syslog>
  40319d:	48 8b 45 80          	mov    -0x80(%rbp),%rax
  4031a1:	8b 55 9c             	mov    -0x64(%rbp),%edx
  4031a4:	89 50 30             	mov    %edx,0x30(%rax)
  4031a7:	48 8b 55 a0          	mov    -0x60(%rbp),%rdx
  4031ab:	48 8b 45 80          	mov    -0x80(%rbp),%rax
  4031af:	48 89 50 28          	mov    %rdx,0x28(%rax)
  4031b3:	48 8b 45 80          	mov    -0x80(%rbp),%rax
  4031b7:	c7 80 84 00 00 00 00 	movl   $0x0,0x84(%rax)
  4031be:	00 00 00 
  4031c1:	48 8b 45 80          	mov    -0x80(%rbp),%rax
  4031c5:	8b 80 10 01 00 00    	mov    0x110(%rax),%eax
  4031cb:	ba 00 00 00 00       	mov    $0x0,%edx
  4031d0:	be 03 00 00 00       	mov    $0x3,%esi
  4031d5:	89 c7                	mov    %eax,%edi
  4031d7:	e8 71 fb ff ff       	callq  402d4d <write_internal_cmd_respond>
  4031dc:	b8 00 00 00 00       	mov    $0x0,%eax
  4031e1:	48 8b 5d e8          	mov    -0x18(%rbp),%rbx
  4031e5:	64 48 33 1c 25 28 00 	xor    %fs:0x28,%rbx
  4031ec:	00 00 
  4031ee:	74 05                	je     4031f5 <prepare_port_pattern+0x25a>
  4031f0:	e8 ab ef ff ff       	callq  4021a0 <__stack_chk_fail@plt>
  4031f5:	48 83 c4 78          	add    $0x78,%rsp
  4031f9:	5b                   	pop    %rbx
  4031fa:	5d                   	pop    %rbp
  4031fb:	c3                   	retq   

00000000004031fc <prepare_pasv_pattern>:
  4031fc:	55                   	push   %rbp
  4031fd:	48 89 e5             	mov    %rsp,%rbp
  403200:	48 83 ec 70          	sub    $0x70,%rsp
  403204:	48 89 7d 98          	mov    %rdi,-0x68(%rbp)
  403208:	64 48 8b 04 25 28 00 	mov    %fs:0x28,%rax
  40320f:	00 00 
  403211:	48 89 45 f8          	mov    %rax,-0x8(%rbp)
  403215:	31 c0                	xor    %eax,%eax
  403217:	48 c7 45 c0 00 00 00 	movq   $0x0,-0x40(%rbp)
  40321e:	00 
  40321f:	c7 45 c8 00 00 00 00 	movl   $0x0,-0x38(%rbp)
  403226:	c7 45 cc 00 00 00 00 	movl   $0x0,-0x34(%rbp)
  40322d:	bf 00 00 00 00       	mov    $0x0,%edi
  403232:	e8 b9 f1 ff ff       	callq  4023f0 <time@plt>
  403237:	89 c7                	mov    %eax,%edi
  403239:	e8 c2 f0 ff ff       	callq  402300 <srand@plt>
  40323e:	e8 6d f4 ff ff       	callq  4026b0 <rand@plt>
  403243:	89 c1                	mov    %eax,%ecx
  403245:	ba 25 67 41 10       	mov    $0x10416725,%edx
  40324a:	89 c8                	mov    %ecx,%eax
  40324c:	f7 ea                	imul   %edx
  40324e:	c1 fa 0c             	sar    $0xc,%edx
  403251:	89 c8                	mov    %ecx,%eax
  403253:	c1 f8 1f             	sar    $0x1f,%eax
  403256:	29 c2                	sub    %eax,%edx
  403258:	89 d0                	mov    %edx,%eax
  40325a:	69 c0 fa fb 00 00    	imul   $0xfbfa,%eax,%eax
  403260:	29 c1                	sub    %eax,%ecx
  403262:	89 c8                	mov    %ecx,%eax
  403264:	05 01 04 00 00       	add    $0x401,%eax
  403269:	89 45 a4             	mov    %eax,-0x5c(%rbp)
  40326c:	8b 45 a4             	mov    -0x5c(%rbp),%eax
  40326f:	8d 90 ff 00 00 00    	lea    0xff(%rax),%edx
  403275:	85 c0                	test   %eax,%eax
  403277:	0f 48 c2             	cmovs  %edx,%eax
  40327a:	c1 f8 08             	sar    $0x8,%eax
  40327d:	89 45 a8             	mov    %eax,-0x58(%rbp)
  403280:	8b 45 a4             	mov    -0x5c(%rbp),%eax
  403283:	99                   	cltd   
  403284:	c1 ea 18             	shr    $0x18,%edx
  403287:	01 d0                	add    %edx,%eax
  403289:	0f b6 c0             	movzbl %al,%eax
  40328c:	29 d0                	sub    %edx,%eax
  40328e:	89 45 ac             	mov    %eax,-0x54(%rbp)
  403291:	8b 45 a4             	mov    -0x5c(%rbp),%eax
  403294:	0f b7 c0             	movzwl %ax,%eax
  403297:	89 c7                	mov    %eax,%edi
  403299:	e8 f2 53 00 00       	callq  408690 <sysutil_is_port_reserved>
  40329e:	85 c0                	test   %eax,%eax
  4032a0:	75 9c                	jne    40323e <prepare_pasv_pattern+0x42>
  4032a2:	48 c7 45 e0 00 00 00 	movq   $0x0,-0x20(%rbp)
  4032a9:	00 
  4032aa:	e8 dc 54 00 00       	callq  40878b <sysutil_get_ipv4_sock>
  4032af:	89 45 b0             	mov    %eax,-0x50(%rbp)
  4032b2:	8b 45 b0             	mov    -0x50(%rbp),%eax
  4032b5:	89 c7                	mov    %eax,%edi
  4032b7:	e8 bc 5f 00 00       	callq  409278 <sysutil_activate_noblock>
  4032bc:	48 8d 45 e0          	lea    -0x20(%rbp),%rax
  4032c0:	48 89 c7             	mov    %rax,%rdi
  4032c3:	e8 a4 51 00 00       	callq  40846c <sysutil_sockaddr_alloc_ipv4>
  4032c8:	48 8b 45 e0          	mov    -0x20(%rbp),%rax
  4032cc:	48 89 c7             	mov    %rax,%rdi
  4032cf:	e8 a5 52 00 00       	callq  408579 <sysutil_sockaddr_set_any>
  4032d4:	8b 45 a4             	mov    -0x5c(%rbp),%eax
  4032d7:	0f b7 d0             	movzwl %ax,%edx
  4032da:	48 8b 45 e0          	mov    -0x20(%rbp),%rax
  4032de:	89 d6                	mov    %edx,%esi
  4032e0:	48 89 c7             	mov    %rax,%rdi
  4032e3:	e8 4d 53 00 00       	callq  408635 <sysutil_sockaddr_set_port>
  4032e8:	48 8b 55 e0          	mov    -0x20(%rbp),%rdx
  4032ec:	8b 45 b0             	mov    -0x50(%rbp),%eax
  4032ef:	48 89 d6             	mov    %rdx,%rsi
  4032f2:	89 c7                	mov    %eax,%edi
  4032f4:	e8 37 55 00 00       	callq  408830 <sysutil_bind>
  4032f9:	8b 45 b0             	mov    -0x50(%rbp),%eax
  4032fc:	be 01 00 00 00       	mov    $0x1,%esi
  403301:	89 c7                	mov    %eax,%edi
  403303:	e8 d1 55 00 00       	callq  4088d9 <sysutil_listen>
  403308:	48 8d 45 e0          	lea    -0x20(%rbp),%rax
  40330c:	48 89 c7             	mov    %rax,%rdi
  40330f:	e8 23 51 00 00       	callq  408437 <sysutil_sockaddr_clear>
  403314:	48 c7 45 d0 00 00 00 	movq   $0x0,-0x30(%rbp)
  40331b:	00 
  40331c:	c7 45 d8 00 00 00 00 	movl   $0x0,-0x28(%rbp)
  403323:	c7 45 dc 00 00 00 00 	movl   $0x0,-0x24(%rbp)
  40332a:	48 c7 45 e0 00 00 00 	movq   $0x0,-0x20(%rbp)
  403331:	00 
  403332:	c7 45 e8 00 00 00 00 	movl   $0x0,-0x18(%rbp)
  403339:	c7 45 ec 00 00 00 00 	movl   $0x0,-0x14(%rbp)
  403340:	c7 45 f0 00 00 00 00 	movl   $0x0,-0x10(%rbp)
  403347:	48 8d 45 c0          	lea    -0x40(%rbp),%rax
  40334b:	be 6d a7 40 00       	mov    $0x40a76d,%esi
  403350:	48 89 c7             	mov    %rax,%rdi
  403353:	e8 64 2a 00 00       	callq  405dbc <str_alloc_text>
  403358:	8b 55 a8             	mov    -0x58(%rbp),%edx
  40335b:	48 8d 45 f0          	lea    -0x10(%rbp),%rax
  40335f:	89 d1                	mov    %edx,%ecx
  403361:	ba 18 a7 40 00       	mov    $0x40a718,%edx
  403366:	be 04 00 00 00       	mov    $0x4,%esi
  40336b:	48 89 c7             	mov    %rax,%rdi
  40336e:	b8 00 00 00 00       	mov    $0x0,%eax
  403373:	e8 78 ee ff ff       	callq  4021f0 <snprintf@plt>
  403378:	48 8d 55 f0          	lea    -0x10(%rbp),%rdx
  40337c:	48 8d 45 d0          	lea    -0x30(%rbp),%rax
  403380:	48 89 d6             	mov    %rdx,%rsi
  403383:	48 89 c7             	mov    %rax,%rdi
  403386:	e8 ec 2e 00 00       	callq  406277 <str_append_text>
  40338b:	48 8d 45 f0          	lea    -0x10(%rbp),%rax
  40338f:	be 04 00 00 00       	mov    $0x4,%esi
  403394:	48 89 c7             	mov    %rax,%rdi
  403397:	e8 27 4e 00 00       	callq  4081c3 <sysutil_memclr>
  40339c:	8b 55 ac             	mov    -0x54(%rbp),%edx
  40339f:	48 8d 45 f0          	lea    -0x10(%rbp),%rax
  4033a3:	89 d1                	mov    %edx,%ecx
  4033a5:	ba 18 a7 40 00       	mov    $0x40a718,%edx
  4033aa:	be 04 00 00 00       	mov    $0x4,%esi
  4033af:	48 89 c7             	mov    %rax,%rdi
  4033b2:	b8 00 00 00 00       	mov    $0x0,%eax
  4033b7:	e8 34 ee ff ff       	callq  4021f0 <snprintf@plt>
  4033bc:	48 8d 55 f0          	lea    -0x10(%rbp),%rdx
  4033c0:	48 8d 45 e0          	lea    -0x20(%rbp),%rax
  4033c4:	48 89 d6             	mov    %rdx,%rsi
  4033c7:	48 89 c7             	mov    %rax,%rdi
  4033ca:	e8 a8 2e 00 00       	callq  406277 <str_append_text>
  4033cf:	48 8b 45 98          	mov    -0x68(%rbp),%rax
  4033d3:	48 89 c7             	mov    %rax,%rdi
  4033d6:	e8 9a 6a 00 00       	callq  409e75 <sysutil_localnet_ipaddress>
  4033db:	48 89 45 b8          	mov    %rax,-0x48(%rbp)
  4033df:	48 8b 55 b8          	mov    -0x48(%rbp),%rdx
  4033e3:	48 8d 45 c0          	lea    -0x40(%rbp),%rax
  4033e7:	48 89 d6             	mov    %rdx,%rsi
  4033ea:	48 89 c7             	mov    %rax,%rdi
  4033ed:	e8 85 2e 00 00       	callq  406277 <str_append_text>
  4033f2:	48 8d 45 c0          	lea    -0x40(%rbp),%rax
  4033f6:	ba 2c 00 00 00       	mov    $0x2c,%edx
  4033fb:	be 2e 00 00 00       	mov    $0x2e,%esi
  403400:	48 89 c7             	mov    %rax,%rdi
  403403:	e8 88 32 00 00       	callq  406690 <str_replace_char>
  403408:	48 8d 45 c0          	lea    -0x40(%rbp),%rax
  40340c:	be 2c 00 00 00       	mov    $0x2c,%esi
  403411:	48 89 c7             	mov    %rax,%rdi
  403414:	e8 fe 2f 00 00       	callq  406417 <str_append_char>
  403419:	48 8d 55 d0          	lea    -0x30(%rbp),%rdx
  40341d:	48 8d 45 c0          	lea    -0x40(%rbp),%rax
  403421:	48 89 d6             	mov    %rdx,%rsi
  403424:	48 89 c7             	mov    %rax,%rdi
  403427:	e8 ba 2d 00 00       	callq  4061e6 <str_append_str>
  40342c:	48 8d 45 c0          	lea    -0x40(%rbp),%rax
  403430:	be 2c 00 00 00       	mov    $0x2c,%esi
  403435:	48 89 c7             	mov    %rax,%rdi
  403438:	e8 da 2f 00 00       	callq  406417 <str_append_char>
  40343d:	48 8d 55 e0          	lea    -0x20(%rbp),%rdx
  403441:	48 8d 45 c0          	lea    -0x40(%rbp),%rax
  403445:	48 89 d6             	mov    %rdx,%rsi
  403448:	48 89 c7             	mov    %rax,%rdi
  40344b:	e8 96 2d 00 00       	callq  4061e6 <str_append_str>
  403450:	48 8d 45 c0          	lea    -0x40(%rbp),%rax
  403454:	be 85 a7 40 00       	mov    $0x40a785,%esi
  403459:	48 89 c7             	mov    %rax,%rdi
  40345c:	e8 16 2e 00 00       	callq  406277 <str_append_text>
  403461:	48 8b 45 c0          	mov    -0x40(%rbp),%rax
  403465:	48 89 c2             	mov    %rax,%rdx
  403468:	be e3 00 00 00       	mov    $0xe3,%esi
  40346d:	bf 00 00 00 00       	mov    $0x0,%edi
  403472:	e8 5b f5 ff ff       	callq  4029d2 <write_cmd_respond>
  403477:	48 8d 45 c0          	lea    -0x40(%rbp),%rax
  40347b:	48 89 c7             	mov    %rax,%rdi
  40347e:	e8 6e 2b 00 00       	callq  405ff1 <str_free>
  403483:	48 8d 45 d0          	lea    -0x30(%rbp),%rax
  403487:	48 89 c7             	mov    %rax,%rdi
  40348a:	e8 62 2b 00 00       	callq  405ff1 <str_free>
  40348f:	48 8d 45 e0          	lea    -0x20(%rbp),%rax
  403493:	48 89 c7             	mov    %rax,%rdi
  403496:	e8 56 2b 00 00       	callq  405ff1 <str_free>
  40349b:	48 c7 45 e0 00 00 00 	movq   $0x0,-0x20(%rbp)
  4034a2:	00 
  4034a3:	48 8d 45 e0          	lea    -0x20(%rbp),%rax
  4034a7:	48 89 c7             	mov    %rax,%rdi
  4034aa:	e8 bd 4f 00 00       	callq  40846c <sysutil_sockaddr_alloc_ipv4>
  4034af:	48 8b 4d e0          	mov    -0x20(%rbp),%rcx
  4034b3:	8b 45 b0             	mov    -0x50(%rbp),%eax
  4034b6:	ba 28 00 00 00       	mov    $0x28,%edx
  4034bb:	48 89 ce             	mov    %rcx,%rsi
  4034be:	89 c7                	mov    %eax,%edi
  4034c0:	e8 12 55 00 00       	callq  4089d7 <sysutil_accept_timeout>
  4034c5:	89 45 b4             	mov    %eax,-0x4c(%rbp)
  4034c8:	83 7d b4 00          	cmpl   $0x0,-0x4c(%rbp)
  4034cc:	79 3d                	jns    40350b <prepare_pasv_pattern+0x30f>
  4034ce:	8b 45 b0             	mov    -0x50(%rbp),%eax
  4034d1:	89 c7                	mov    %eax,%edi
  4034d3:	e8 c1 43 00 00       	callq  407899 <sysutil_close>
  4034d8:	48 8d 45 c0          	lea    -0x40(%rbp),%rax
  4034dc:	48 89 c7             	mov    %rax,%rdi
  4034df:	e8 0d 2b 00 00       	callq  405ff1 <str_free>
  4034e4:	48 8d 45 e0          	lea    -0x20(%rbp),%rax
  4034e8:	48 89 c7             	mov    %rax,%rdi
  4034eb:	e8 47 4f 00 00       	callq  408437 <sysutil_sockaddr_clear>
  4034f0:	ba 88 a7 40 00       	mov    $0x40a788,%edx
  4034f5:	be a5 01 00 00       	mov    $0x1a5,%esi
  4034fa:	bf 00 00 00 00       	mov    $0x0,%edi
  4034ff:	e8 ce f4 ff ff       	callq  4029d2 <write_cmd_respond>
  403504:	b8 00 00 00 00       	mov    $0x0,%eax
  403509:	eb 3d                	jmp    403548 <prepare_pasv_pattern+0x34c>
  40350b:	8b 45 b4             	mov    -0x4c(%rbp),%eax
  40350e:	89 c7                	mov    %eax,%edi
  403510:	e8 63 5d 00 00       	callq  409278 <sysutil_activate_noblock>
  403515:	48 8b 45 98          	mov    -0x68(%rbp),%rax
  403519:	8b 55 b4             	mov    -0x4c(%rbp),%edx
  40351c:	89 50 30             	mov    %edx,0x30(%rax)
  40351f:	48 8b 45 98          	mov    -0x68(%rbp),%rax
  403523:	8b 55 b0             	mov    -0x50(%rbp),%edx
  403526:	89 50 20             	mov    %edx,0x20(%rax)
  403529:	48 8b 55 e0          	mov    -0x20(%rbp),%rdx
  40352d:	48 8b 45 98          	mov    -0x68(%rbp),%rax
  403531:	48 89 50 08          	mov    %rdx,0x8(%rax)
  403535:	48 8b 45 98          	mov    -0x68(%rbp),%rax
  403539:	c7 80 84 00 00 00 01 	movl   $0x1,0x84(%rax)
  403540:	00 00 00 
  403543:	b8 01 00 00 00       	mov    $0x1,%eax
  403548:	48 8b 4d f8          	mov    -0x8(%rbp),%rcx
  40354c:	64 48 33 0c 25 28 00 	xor    %fs:0x28,%rcx
  403553:	00 00 
  403555:	74 05                	je     40355c <prepare_pasv_pattern+0x360>
  403557:	e8 44 ec ff ff       	callq  4021a0 <__stack_chk_fail@plt>
  40355c:	c9                   	leaveq 
  40355d:	c3                   	retq   

000000000040355e <prepare_pwd>:
  40355e:	55                   	push   %rbp
  40355f:	48 89 e5             	mov    %rsp,%rbp
  403562:	48 83 ec 30          	sub    $0x30,%rsp
  403566:	48 89 7d d8          	mov    %rdi,-0x28(%rbp)
  40356a:	64 48 8b 04 25 28 00 	mov    %fs:0x28,%rax
  403571:	00 00 
  403573:	48 89 45 f8          	mov    %rax,-0x8(%rbp)
  403577:	31 c0                	xor    %eax,%eax
  403579:	48 c7 45 e0 00 00 00 	movq   $0x0,-0x20(%rbp)
  403580:	00 
  403581:	c7 45 e8 00 00 00 00 	movl   $0x0,-0x18(%rbp)
  403588:	c7 45 ec 00 00 00 00 	movl   $0x0,-0x14(%rbp)
  40358f:	48 8d 45 e0          	lea    -0x20(%rbp),%rax
  403593:	be 22 00 00 00       	mov    $0x22,%esi
  403598:	48 89 c7             	mov    %rax,%rdi
  40359b:	e8 77 2e 00 00       	callq  406417 <str_append_char>
  4035a0:	be 00 00 00 00       	mov    $0x0,%esi
  4035a5:	bf 00 00 00 00       	mov    $0x0,%edi
  4035aa:	e8 3e 40 00 00       	callq  4075ed <sysutil_getcwd>
  4035af:	48 89 c2             	mov    %rax,%rdx
  4035b2:	48 8d 45 e0          	lea    -0x20(%rbp),%rax
  4035b6:	48 89 d6             	mov    %rdx,%rsi
  4035b9:	48 89 c7             	mov    %rax,%rdi
  4035bc:	e8 b6 2c 00 00       	callq  406277 <str_append_text>
  4035c1:	48 8d 45 e0          	lea    -0x20(%rbp),%rax
  4035c5:	be 22 00 00 00       	mov    $0x22,%esi
  4035ca:	48 89 c7             	mov    %rax,%rdi
  4035cd:	e8 45 2e 00 00       	callq  406417 <str_append_char>
  4035d2:	48 8d 45 e0          	lea    -0x20(%rbp),%rax
  4035d6:	be a3 a7 40 00       	mov    $0x40a7a3,%esi
  4035db:	48 89 c7             	mov    %rax,%rdi
  4035de:	e8 94 2c 00 00       	callq  406277 <str_append_text>
  4035e3:	48 8b 45 d8          	mov    -0x28(%rbp),%rax
  4035e7:	8b 80 10 01 00 00    	mov    0x110(%rax),%eax
  4035ed:	48 8d 55 e0          	lea    -0x20(%rbp),%rdx
  4035f1:	be 15 00 00 00       	mov    $0x15,%esi
  4035f6:	89 c7                	mov    %eax,%edi
  4035f8:	e8 50 f7 ff ff       	callq  402d4d <write_internal_cmd_respond>
  4035fd:	48 8d 45 e0          	lea    -0x20(%rbp),%rax
  403601:	48 89 c7             	mov    %rax,%rdi
  403604:	e8 e8 29 00 00       	callq  405ff1 <str_free>
  403609:	b8 01 00 00 00       	mov    $0x1,%eax
  40360e:	48 8b 4d f8          	mov    -0x8(%rbp),%rcx
  403612:	64 48 33 0c 25 28 00 	xor    %fs:0x28,%rcx
  403619:	00 00 
  40361b:	74 05                	je     403622 <prepare_pwd+0xc4>
  40361d:	e8 7e eb ff ff       	callq  4021a0 <__stack_chk_fail@plt>
  403622:	c9                   	leaveq 
  403623:	c3                   	retq   

0000000000403624 <prepare_list>:
  403624:	55                   	push   %rbp
  403625:	48 89 e5             	mov    %rsp,%rbp
  403628:	48 83 ec 20          	sub    $0x20,%rsp
  40362c:	48 89 7d e8          	mov    %rdi,-0x18(%rbp)
  403630:	c7 45 f4 00 00 00 00 	movl   $0x0,-0xc(%rbp)
  403637:	48 c7 45 f8 00 00 00 	movq   $0x0,-0x8(%rbp)
  40363e:	00 
  40363f:	be 00 00 00 00       	mov    $0x0,%esi
  403644:	bf 00 00 00 00       	mov    $0x0,%edi
  403649:	e8 9f 3f 00 00       	callq  4075ed <sysutil_getcwd>
  40364e:	48 89 45 f8          	mov    %rax,-0x8(%rbp)
  403652:	48 8b 45 e8          	mov    -0x18(%rbp),%rax
  403656:	8b 40 30             	mov    0x30(%rax),%eax
  403659:	48 8b 55 f8          	mov    -0x8(%rbp),%rdx
  40365d:	48 89 d6             	mov    %rdx,%rsi
  403660:	89 c7                	mov    %eax,%edi
  403662:	b8 00 00 00 00       	mov    $0x0,%eax
  403667:	e8 ba 17 00 00       	callq  404e26 <util_ls>
  40366c:	89 45 f4             	mov    %eax,-0xc(%rbp)
  40366f:	be 0e 00 00 00       	mov    $0xe,%esi
  403674:	bf be a7 40 00       	mov    $0x40a7be,%edi
  403679:	e8 bf 5f 00 00       	callq  40963d <sysutil_syslog>
  40367e:	83 7d f4 00          	cmpl   $0x0,-0xc(%rbp)
  403682:	75 22                	jne    4036a6 <prepare_list+0x82>
  403684:	48 8b 45 e8          	mov    -0x18(%rbp),%rax
  403688:	8b 80 10 01 00 00    	mov    0x110(%rax),%eax
  40368e:	ba 00 00 00 00       	mov    $0x0,%edx
  403693:	be 06 00 00 00       	mov    $0x6,%esi
  403698:	89 c7                	mov    %eax,%edi
  40369a:	e8 ae f6 ff ff       	callq  402d4d <write_internal_cmd_respond>
  40369f:	b8 00 00 00 00       	mov    $0x0,%eax
  4036a4:	eb 2a                	jmp    4036d0 <prepare_list+0xac>
  4036a6:	48 8b 45 e8          	mov    -0x18(%rbp),%rax
  4036aa:	8b 80 10 01 00 00    	mov    0x110(%rax),%eax
  4036b0:	ba 00 00 00 00       	mov    $0x0,%edx
  4036b5:	be 05 00 00 00       	mov    $0x5,%esi
  4036ba:	89 c7                	mov    %eax,%edi
  4036bc:	e8 8c f6 ff ff       	callq  402d4d <write_internal_cmd_respond>
  4036c1:	48 8b 45 e8          	mov    -0x18(%rbp),%rax
  4036c5:	48 89 c7             	mov    %rax,%rdi
  4036c8:	e8 b7 f7 ff ff       	callq  402e84 <clear_data_connection>
  4036cd:	8b 45 f4             	mov    -0xc(%rbp),%eax
  4036d0:	c9                   	leaveq 
  4036d1:	c3                   	retq   

00000000004036d2 <prepare_type>:
  4036d2:	55                   	push   %rbp
  4036d3:	48 89 e5             	mov    %rsp,%rbp
  4036d6:	48 83 ec 30          	sub    $0x30,%rsp
  4036da:	48 89 7d d8          	mov    %rdi,-0x28(%rbp)
  4036de:	48 89 75 d0          	mov    %rsi,-0x30(%rbp)
  4036e2:	64 48 8b 04 25 28 00 	mov    %fs:0x28,%rax
  4036e9:	00 00 
  4036eb:	48 89 45 f8          	mov    %rax,-0x8(%rbp)
  4036ef:	31 c0                	xor    %eax,%eax
  4036f1:	48 c7 45 e0 00 00 00 	movq   $0x0,-0x20(%rbp)
  4036f8:	00 
  4036f9:	c7 45 e8 00 00 00 00 	movl   $0x0,-0x18(%rbp)
  403700:	c7 45 ec 00 00 00 00 	movl   $0x0,-0x14(%rbp)
  403707:	48 8d 4d e0          	lea    -0x20(%rbp),%rcx
  40370b:	48 8b 45 d8          	mov    -0x28(%rbp),%rax
  40370f:	ba 20 00 00 00       	mov    $0x20,%edx
  403714:	48 89 ce             	mov    %rcx,%rsi
  403717:	48 89 c7             	mov    %rax,%rdi
  40371a:	e8 e0 2f 00 00       	callq  4066ff <str_split_char>
  40371f:	48 8d 45 e0          	lea    -0x20(%rbp),%rax
  403723:	be c4 a7 40 00       	mov    $0x40a7c4,%esi
  403728:	48 89 c7             	mov    %rax,%rdi
  40372b:	e8 62 2a 00 00       	callq  406192 <str_equal_text>
  403730:	85 c0                	test   %eax,%eax
  403732:	74 47                	je     40377b <prepare_type+0xa9>
  403734:	48 8b 45 d0          	mov    -0x30(%rbp),%rax
  403738:	c7 80 80 00 00 00 01 	movl   $0x1,0x80(%rax)
  40373f:	00 00 00 
  403742:	48 8d 45 e0          	lea    -0x20(%rbp),%rax
  403746:	48 89 c7             	mov    %rax,%rdi
  403749:	e8 a3 28 00 00       	callq  405ff1 <str_free>
  40374e:	48 8d 45 e0          	lea    -0x20(%rbp),%rax
  403752:	be c6 a7 40 00       	mov    $0x40a7c6,%esi
  403757:	48 89 c7             	mov    %rax,%rdi
  40375a:	e8 18 2b 00 00       	callq  406277 <str_append_text>
  40375f:	48 8b 45 d0          	mov    -0x30(%rbp),%rax
  403763:	8b 80 10 01 00 00    	mov    0x110(%rax),%eax
  403769:	48 8d 55 e0          	lea    -0x20(%rbp),%rdx
  40376d:	be 17 00 00 00       	mov    $0x17,%esi
  403772:	89 c7                	mov    %eax,%edi
  403774:	e8 d4 f5 ff ff       	callq  402d4d <write_internal_cmd_respond>
  403779:	eb 77                	jmp    4037f2 <prepare_type+0x120>
  40377b:	48 8d 45 e0          	lea    -0x20(%rbp),%rax
  40377f:	be d9 a7 40 00       	mov    $0x40a7d9,%esi
  403784:	48 89 c7             	mov    %rax,%rdi
  403787:	e8 06 2a 00 00       	callq  406192 <str_equal_text>
  40378c:	85 c0                	test   %eax,%eax
  40378e:	74 47                	je     4037d7 <prepare_type+0x105>
  403790:	48 8b 45 d0          	mov    -0x30(%rbp),%rax
  403794:	c7 80 80 00 00 00 00 	movl   $0x0,0x80(%rax)
  40379b:	00 00 00 
  40379e:	48 8d 45 e0          	lea    -0x20(%rbp),%rax
  4037a2:	48 89 c7             	mov    %rax,%rdi
  4037a5:	e8 47 28 00 00       	callq  405ff1 <str_free>
  4037aa:	48 8d 45 e0          	lea    -0x20(%rbp),%rax
  4037ae:	be db a7 40 00       	mov    $0x40a7db,%esi
  4037b3:	48 89 c7             	mov    %rax,%rdi
  4037b6:	e8 bc 2a 00 00       	callq  406277 <str_append_text>
  4037bb:	48 8b 45 d0          	mov    -0x30(%rbp),%rax
  4037bf:	8b 80 10 01 00 00    	mov    0x110(%rax),%eax
  4037c5:	48 8d 55 e0          	lea    -0x20(%rbp),%rdx
  4037c9:	be 17 00 00 00       	mov    $0x17,%esi
  4037ce:	89 c7                	mov    %eax,%edi
  4037d0:	e8 78 f5 ff ff       	callq  402d4d <write_internal_cmd_respond>
  4037d5:	eb 1b                	jmp    4037f2 <prepare_type+0x120>
  4037d7:	48 8b 45 d0          	mov    -0x30(%rbp),%rax
  4037db:	8b 80 10 01 00 00    	mov    0x110(%rax),%eax
  4037e1:	ba 00 00 00 00       	mov    $0x0,%edx
  4037e6:	be 18 00 00 00       	mov    $0x18,%esi
  4037eb:	89 c7                	mov    %eax,%edi
  4037ed:	e8 5b f5 ff ff       	callq  402d4d <write_internal_cmd_respond>
  4037f2:	48 8d 45 e0          	lea    -0x20(%rbp),%rax
  4037f6:	48 89 c7             	mov    %rax,%rdi
  4037f9:	e8 f3 27 00 00       	callq  405ff1 <str_free>
  4037fe:	b8 01 00 00 00       	mov    $0x1,%eax
  403803:	48 8b 4d f8          	mov    -0x8(%rbp),%rcx
  403807:	64 48 33 0c 25 28 00 	xor    %fs:0x28,%rcx
  40380e:	00 00 
  403810:	74 05                	je     403817 <prepare_type+0x145>
  403812:	e8 89 e9 ff ff       	callq  4021a0 <__stack_chk_fail@plt>
  403817:	c9                   	leaveq 
  403818:	c3                   	retq   

0000000000403819 <prepare_cdup>:
  403819:	55                   	push   %rbp
  40381a:	48 89 e5             	mov    %rsp,%rbp
  40381d:	48 83 ec 40          	sub    $0x40,%rsp
  403821:	48 89 7d c8          	mov    %rdi,-0x38(%rbp)
  403825:	64 48 8b 04 25 28 00 	mov    %fs:0x28,%rax
  40382c:	00 00 
  40382e:	48 89 45 f8          	mov    %rax,-0x8(%rbp)
  403832:	31 c0                	xor    %eax,%eax
  403834:	bf ee a7 40 00       	mov    $0x40a7ee,%edi
  403839:	e8 42 3e 00 00       	callq  407680 <sysutil_chdir>
  40383e:	48 c7 45 e0 00 00 00 	movq   $0x0,-0x20(%rbp)
  403845:	00 
  403846:	c7 45 e8 00 00 00 00 	movl   $0x0,-0x18(%rbp)
  40384d:	c7 45 ec 00 00 00 00 	movl   $0x0,-0x14(%rbp)
  403854:	be 00 00 00 00       	mov    $0x0,%esi
  403859:	bf 00 00 00 00       	mov    $0x0,%edi
  40385e:	e8 8a 3d 00 00       	callq  4075ed <sysutil_getcwd>
  403863:	48 89 c2             	mov    %rax,%rdx
  403866:	48 8d 45 e0          	lea    -0x20(%rbp),%rax
  40386a:	48 89 d6             	mov    %rdx,%rsi
  40386d:	48 89 c7             	mov    %rax,%rdi
  403870:	e8 47 25 00 00       	callq  405dbc <str_alloc_text>
  403875:	48 8b 45 c8          	mov    -0x38(%rbp),%rax
  403879:	48 8b 80 a0 00 00 00 	mov    0xa0(%rax),%rax
  403880:	48 89 45 d8          	mov    %rax,-0x28(%rbp)
  403884:	48 8d 55 e0          	lea    -0x20(%rbp),%rdx
  403888:	48 8b 45 d8          	mov    -0x28(%rbp),%rax
  40388c:	48 89 d6             	mov    %rdx,%rsi
  40388f:	48 89 c7             	mov    %rax,%rdi
  403892:	e8 9a 39 00 00       	callq  407231 <str_list_contains_str>
  403897:	85 c0                	test   %eax,%eax
  403899:	75 13                	jne    4038ae <prepare_cdup+0x95>
  40389b:	48 8d 55 e0          	lea    -0x20(%rbp),%rdx
  40389f:	48 8b 45 d8          	mov    -0x28(%rbp),%rax
  4038a3:	48 89 d6             	mov    %rdx,%rsi
  4038a6:	48 89 c7             	mov    %rax,%rdi
  4038a9:	e8 96 38 00 00       	callq  407144 <str_list_add>
  4038ae:	48 8b 45 c8          	mov    -0x38(%rbp),%rax
  4038b2:	8b 80 10 01 00 00    	mov    0x110(%rax),%eax
  4038b8:	ba 00 00 00 00       	mov    $0x0,%edx
  4038bd:	be 13 00 00 00       	mov    $0x13,%esi
  4038c2:	89 c7                	mov    %eax,%edi
  4038c4:	e8 84 f4 ff ff       	callq  402d4d <write_internal_cmd_respond>
  4038c9:	b8 01 00 00 00       	mov    $0x1,%eax
  4038ce:	48 8b 4d f8          	mov    -0x8(%rbp),%rcx
  4038d2:	64 48 33 0c 25 28 00 	xor    %fs:0x28,%rcx
  4038d9:	00 00 
  4038db:	74 05                	je     4038e2 <prepare_cdup+0xc9>
  4038dd:	e8 be e8 ff ff       	callq  4021a0 <__stack_chk_fail@plt>
  4038e2:	c9                   	leaveq 
  4038e3:	c3                   	retq   

00000000004038e4 <prepare_cwd>:
  4038e4:	55                   	push   %rbp
  4038e5:	48 89 e5             	mov    %rsp,%rbp
  4038e8:	48 83 ec 40          	sub    $0x40,%rsp
  4038ec:	48 89 7d c8          	mov    %rdi,-0x38(%rbp)
  4038f0:	48 89 75 c0          	mov    %rsi,-0x40(%rbp)
  4038f4:	64 48 8b 04 25 28 00 	mov    %fs:0x28,%rax
  4038fb:	00 00 
  4038fd:	48 89 45 f8          	mov    %rax,-0x8(%rbp)
  403901:	31 c0                	xor    %eax,%eax
  403903:	48 c7 45 e0 00 00 00 	movq   $0x0,-0x20(%rbp)
  40390a:	00 
  40390b:	c7 45 e8 00 00 00 00 	movl   $0x0,-0x18(%rbp)
  403912:	c7 45 ec 00 00 00 00 	movl   $0x0,-0x14(%rbp)
  403919:	48 8d 4d e0          	lea    -0x20(%rbp),%rcx
  40391d:	48 8b 45 c8          	mov    -0x38(%rbp),%rax
  403921:	ba 20 00 00 00       	mov    $0x20,%edx
  403926:	48 89 ce             	mov    %rcx,%rsi
  403929:	48 89 c7             	mov    %rax,%rdi
  40392c:	e8 ce 2d 00 00       	callq  4066ff <str_split_char>
  403931:	48 8d 45 e0          	lea    -0x20(%rbp),%rax
  403935:	48 89 c7             	mov    %rax,%rdi
  403938:	e8 54 27 00 00       	callq  406091 <str_isempty>
  40393d:	85 c0                	test   %eax,%eax
  40393f:	75 43                	jne    403984 <prepare_cwd+0xa0>
  403941:	48 8d 45 e0          	lea    -0x20(%rbp),%rax
  403945:	48 89 c7             	mov    %rax,%rdi
  403948:	e8 5d 27 00 00       	callq  4060aa <str_getlen>
  40394d:	3d 80 00 00 00       	cmp    $0x80,%eax
  403952:	77 30                	ja     403984 <prepare_cwd+0xa0>
  403954:	48 8d 45 e0          	lea    -0x20(%rbp),%rax
  403958:	48 89 c7             	mov    %rax,%rdi
  40395b:	e8 7a 34 00 00       	callq  406dda <str_all_space>
  403960:	85 c0                	test   %eax,%eax
  403962:	75 20                	jne    403984 <prepare_cwd+0xa0>
  403964:	48 8d 45 e0          	lea    -0x20(%rbp),%rax
  403968:	48 89 c7             	mov    %rax,%rdi
  40396b:	e8 7a 35 00 00       	callq  406eea <str_contains_unprintable>
  403970:	85 c0                	test   %eax,%eax
  403972:	75 10                	jne    403984 <prepare_cwd+0xa0>
  403974:	48 8b 45 e0          	mov    -0x20(%rbp),%rax
  403978:	48 89 c7             	mov    %rax,%rdi
  40397b:	e8 00 3d 00 00       	callq  407680 <sysutil_chdir>
  403980:	85 c0                	test   %eax,%eax
  403982:	74 22                	je     4039a6 <prepare_cwd+0xc2>
  403984:	48 8b 45 c0          	mov    -0x40(%rbp),%rax
  403988:	8b 80 10 01 00 00    	mov    0x110(%rax),%eax
  40398e:	ba 00 00 00 00       	mov    $0x0,%edx
  403993:	be 0e 00 00 00       	mov    $0xe,%esi
  403998:	89 c7                	mov    %eax,%edi
  40399a:	e8 ae f3 ff ff       	callq  402d4d <write_internal_cmd_respond>
  40399f:	b8 00 00 00 00       	mov    $0x0,%eax
  4039a4:	eb 67                	jmp    403a0d <prepare_cwd+0x129>
  4039a6:	48 8b 45 c0          	mov    -0x40(%rbp),%rax
  4039aa:	48 8b 80 a0 00 00 00 	mov    0xa0(%rax),%rax
  4039b1:	48 89 45 d8          	mov    %rax,-0x28(%rbp)
  4039b5:	48 8d 55 e0          	lea    -0x20(%rbp),%rdx
  4039b9:	48 8b 45 d8          	mov    -0x28(%rbp),%rax
  4039bd:	48 89 d6             	mov    %rdx,%rsi
  4039c0:	48 89 c7             	mov    %rax,%rdi
  4039c3:	e8 69 38 00 00       	callq  407231 <str_list_contains_str>
  4039c8:	85 c0                	test   %eax,%eax
  4039ca:	75 15                	jne    4039e1 <prepare_cwd+0xfd>
  4039cc:	48 8d 55 e0          	lea    -0x20(%rbp),%rdx
  4039d0:	48 8b 45 d8          	mov    -0x28(%rbp),%rax
  4039d4:	48 89 d6             	mov    %rdx,%rsi
  4039d7:	48 89 c7             	mov    %rax,%rdi
  4039da:	e8 65 37 00 00       	callq  407144 <str_list_add>
  4039df:	eb 0c                	jmp    4039ed <prepare_cwd+0x109>
  4039e1:	48 8d 45 e0          	lea    -0x20(%rbp),%rax
  4039e5:	48 89 c7             	mov    %rax,%rdi
  4039e8:	e8 04 26 00 00       	callq  405ff1 <str_free>
  4039ed:	48 8b 45 c0          	mov    -0x40(%rbp),%rax
  4039f1:	8b 80 10 01 00 00    	mov    0x110(%rax),%eax
  4039f7:	ba 00 00 00 00       	mov    $0x0,%edx
  4039fc:	be 0d 00 00 00       	mov    $0xd,%esi
  403a01:	89 c7                	mov    %eax,%edi
  403a03:	e8 45 f3 ff ff       	callq  402d4d <write_internal_cmd_respond>
  403a08:	b8 01 00 00 00       	mov    $0x1,%eax
  403a0d:	48 8b 4d f8          	mov    -0x8(%rbp),%rcx
  403a11:	64 48 33 0c 25 28 00 	xor    %fs:0x28,%rcx
  403a18:	00 00 
  403a1a:	74 05                	je     403a21 <prepare_cwd+0x13d>
  403a1c:	e8 7f e7 ff ff       	callq  4021a0 <__stack_chk_fail@plt>
  403a21:	c9                   	leaveq 
  403a22:	c3                   	retq   

0000000000403a23 <prepare_mkd>:
  403a23:	55                   	push   %rbp
  403a24:	48 89 e5             	mov    %rsp,%rbp
  403a27:	48 89 7d f8          	mov    %rdi,-0x8(%rbp)
  403a2b:	48 89 75 f0          	mov    %rsi,-0x10(%rbp)
  403a2f:	b8 00 00 00 00       	mov    $0x0,%eax
  403a34:	5d                   	pop    %rbp
  403a35:	c3                   	retq   

0000000000403a36 <prepare_retr>:
  403a36:	55                   	push   %rbp
  403a37:	48 89 e5             	mov    %rsp,%rbp
  403a3a:	48 83 ec 70          	sub    $0x70,%rsp
  403a3e:	48 89 7d 98          	mov    %rdi,-0x68(%rbp)
  403a42:	48 89 75 90          	mov    %rsi,-0x70(%rbp)
  403a46:	64 48 8b 04 25 28 00 	mov    %fs:0x28,%rax
  403a4d:	00 00 
  403a4f:	48 89 45 f8          	mov    %rax,-0x8(%rbp)
  403a53:	31 c0                	xor    %eax,%eax
  403a55:	48 c7 45 b0 00 00 00 	movq   $0x0,-0x50(%rbp)
  403a5c:	00 
  403a5d:	c7 45 b8 00 00 00 00 	movl   $0x0,-0x48(%rbp)
  403a64:	c7 45 bc 00 00 00 00 	movl   $0x0,-0x44(%rbp)
  403a6b:	48 c7 45 a8 00 00 00 	movq   $0x0,-0x58(%rbp)
  403a72:	00 
  403a73:	48 8d 4d b0          	lea    -0x50(%rbp),%rcx
  403a77:	48 8b 45 98          	mov    -0x68(%rbp),%rax
  403a7b:	ba 20 00 00 00       	mov    $0x20,%edx
  403a80:	48 89 ce             	mov    %rcx,%rsi
  403a83:	48 89 c7             	mov    %rax,%rdi
  403a86:	e8 74 2c 00 00       	callq  4066ff <str_split_char>
  403a8b:	be 0e 00 00 00       	mov    $0xe,%esi
  403a90:	bf f1 a7 40 00       	mov    $0x40a7f1,%edi
  403a95:	e8 a3 5b 00 00       	callq  40963d <sysutil_syslog>
  403a9a:	48 8d 4d a8          	lea    -0x58(%rbp),%rcx
  403a9e:	48 8d 45 b0          	lea    -0x50(%rbp),%rax
  403aa2:	ba 04 00 00 00       	mov    $0x4,%edx
  403aa7:	48 89 ce             	mov    %rcx,%rsi
  403aaa:	48 89 c7             	mov    %rax,%rdi
  403aad:	e8 38 f4 ff ff       	callq  402eea <test_filename>
  403ab2:	85 c0                	test   %eax,%eax
  403ab4:	75 25                	jne    403adb <prepare_retr+0xa5>
  403ab6:	48 8b 45 90          	mov    -0x70(%rbp),%rax
  403aba:	8b 80 10 01 00 00    	mov    0x110(%rax),%eax
  403ac0:	ba 00 00 00 00       	mov    $0x0,%edx
  403ac5:	be 10 00 00 00       	mov    $0x10,%esi
  403aca:	89 c7                	mov    %eax,%edi
  403acc:	e8 7c f2 ff ff       	callq  402d4d <write_internal_cmd_respond>
  403ad1:	b8 00 00 00 00       	mov    $0x0,%eax
  403ad6:	e9 9f 01 00 00       	jmpq   403c7a <prepare_retr+0x244>
  403adb:	48 8b 45 a8          	mov    -0x58(%rbp),%rax
  403adf:	48 8b 50 30          	mov    0x30(%rax),%rdx
  403ae3:	48 8b 45 90          	mov    -0x70(%rbp),%rax
  403ae7:	48 89 90 e8 00 00 00 	mov    %rdx,0xe8(%rax)
  403aee:	48 8b 45 a8          	mov    -0x58(%rbp),%rax
  403af2:	48 89 c7             	mov    %rax,%rdi
  403af5:	e8 cd 44 00 00       	callq  407fc7 <sysutil_free>
  403afa:	be 0e 00 00 00       	mov    $0xe,%esi
  403aff:	bf f6 a7 40 00       	mov    $0x40a7f6,%edi
  403b04:	e8 34 5b 00 00       	callq  40963d <sysutil_syslog>
  403b09:	48 8b 45 b0          	mov    -0x50(%rbp),%rax
  403b0d:	be 0e 00 00 00       	mov    $0xe,%esi
  403b12:	48 89 c7             	mov    %rax,%rdi
  403b15:	e8 23 5b 00 00       	callq  40963d <sysutil_syslog>
  403b1a:	48 c7 45 c0 00 00 00 	movq   $0x0,-0x40(%rbp)
  403b21:	00 
  403b22:	c7 45 c8 00 00 00 00 	movl   $0x0,-0x38(%rbp)
  403b29:	c7 45 cc 00 00 00 00 	movl   $0x0,-0x34(%rbp)
  403b30:	48 8d 45 c0          	lea    -0x40(%rbp),%rax
  403b34:	be 06 a8 40 00       	mov    $0x40a806,%esi
  403b39:	48 89 c7             	mov    %rax,%rdi
  403b3c:	e8 36 27 00 00       	callq  406277 <str_append_text>
  403b41:	48 8b 45 90          	mov    -0x70(%rbp),%rax
  403b45:	8b 80 80 00 00 00    	mov    0x80(%rax),%eax
  403b4b:	85 c0                	test   %eax,%eax
  403b4d:	74 13                	je     403b62 <prepare_retr+0x12c>
  403b4f:	48 8d 45 c0          	lea    -0x40(%rbp),%rax
  403b53:	be 0f a8 40 00       	mov    $0x40a80f,%esi
  403b58:	48 89 c7             	mov    %rax,%rdi
  403b5b:	e8 17 27 00 00       	callq  406277 <str_append_text>
  403b60:	eb 11                	jmp    403b73 <prepare_retr+0x13d>
  403b62:	48 8d 45 c0          	lea    -0x40(%rbp),%rax
  403b66:	be 20 a8 40 00       	mov    $0x40a820,%esi
  403b6b:	48 89 c7             	mov    %rax,%rdi
  403b6e:	e8 04 27 00 00       	callq  406277 <str_append_text>
  403b73:	48 8d 55 b0          	lea    -0x50(%rbp),%rdx
  403b77:	48 8d 45 c0          	lea    -0x40(%rbp),%rax
  403b7b:	48 89 d6             	mov    %rdx,%rsi
  403b7e:	48 89 c7             	mov    %rax,%rdi
  403b81:	e8 60 26 00 00       	callq  4061e6 <str_append_str>
  403b86:	48 8d 45 c0          	lea    -0x40(%rbp),%rax
  403b8a:	be 41 a8 40 00       	mov    $0x40a841,%esi
  403b8f:	48 89 c7             	mov    %rax,%rdi
  403b92:	e8 e0 26 00 00       	callq  406277 <str_append_text>
  403b97:	48 8b 45 90          	mov    -0x70(%rbp),%rax
  403b9b:	48 8b 90 e8 00 00 00 	mov    0xe8(%rax),%rdx
  403ba2:	48 8d 45 d0          	lea    -0x30(%rbp),%rax
  403ba6:	48 89 d1             	mov    %rdx,%rcx
  403ba9:	ba 18 a7 40 00       	mov    $0x40a718,%edx
  403bae:	be 20 00 00 00       	mov    $0x20,%esi
  403bb3:	48 89 c7             	mov    %rax,%rdi
  403bb6:	b8 00 00 00 00       	mov    $0x0,%eax
  403bbb:	e8 30 e6 ff ff       	callq  4021f0 <snprintf@plt>
  403bc0:	48 8d 55 d0          	lea    -0x30(%rbp),%rdx
  403bc4:	48 8d 45 c0          	lea    -0x40(%rbp),%rax
  403bc8:	48 89 d6             	mov    %rdx,%rsi
  403bcb:	48 89 c7             	mov    %rax,%rdi
  403bce:	e8 a4 26 00 00       	callq  406277 <str_append_text>
  403bd3:	48 8d 45 c0          	lea    -0x40(%rbp),%rax
  403bd7:	be 44 a8 40 00       	mov    $0x40a844,%esi
  403bdc:	48 89 c7             	mov    %rax,%rdi
  403bdf:	e8 93 26 00 00       	callq  406277 <str_append_text>
  403be4:	48 8b 45 90          	mov    -0x70(%rbp),%rax
  403be8:	8b 80 10 01 00 00    	mov    0x110(%rax),%eax
  403bee:	48 8d 55 c0          	lea    -0x40(%rbp),%rdx
  403bf2:	be 0f 00 00 00       	mov    $0xf,%esi
  403bf7:	89 c7                	mov    %eax,%edi
  403bf9:	e8 4f f1 ff ff       	callq  402d4d <write_internal_cmd_respond>
  403bfe:	48 8d 45 c0          	lea    -0x40(%rbp),%rax
  403c02:	48 89 c7             	mov    %rax,%rdi
  403c05:	e8 e7 23 00 00       	callq  405ff1 <str_free>
  403c0a:	c7 45 a4 00 00 00 00 	movl   $0x0,-0x5c(%rbp)
  403c11:	48 8b 55 b0          	mov    -0x50(%rbp),%rdx
  403c15:	48 8b 45 90          	mov    -0x70(%rbp),%rax
  403c19:	48 89 d6             	mov    %rdx,%rsi
  403c1c:	48 89 c7             	mov    %rax,%rdi
  403c1f:	e8 0b ef ff ff       	callq  402b2f <write_file_data>
  403c24:	89 45 a4             	mov    %eax,-0x5c(%rbp)
  403c27:	83 7d a4 00          	cmpl   $0x0,-0x5c(%rbp)
  403c2b:	79 16                	jns    403c43 <prepare_retr+0x20d>
  403c2d:	ba 4e a8 40 00       	mov    $0x40a84e,%edx
  403c32:	be 26 02 00 00       	mov    $0x226,%esi
  403c37:	bf 00 00 00 00       	mov    $0x0,%edi
  403c3c:	e8 91 ed ff ff       	callq  4029d2 <write_cmd_respond>
  403c41:	eb 1a                	jmp    403c5d <prepare_retr+0x227>
  403c43:	83 7d a4 00          	cmpl   $0x0,-0x5c(%rbp)
  403c47:	7e 14                	jle    403c5d <prepare_retr+0x227>
  403c49:	ba 64 a8 40 00       	mov    $0x40a864,%edx
  403c4e:	be e2 00 00 00       	mov    $0xe2,%esi
  403c53:	bf 00 00 00 00       	mov    $0x0,%edi
  403c58:	e8 75 ed ff ff       	callq  4029d2 <write_cmd_respond>
  403c5d:	48 8d 45 b0          	lea    -0x50(%rbp),%rax
  403c61:	48 89 c7             	mov    %rax,%rdi
  403c64:	e8 88 23 00 00       	callq  405ff1 <str_free>
  403c69:	48 8b 45 90          	mov    -0x70(%rbp),%rax
  403c6d:	48 89 c7             	mov    %rax,%rdi
  403c70:	e8 0f f2 ff ff       	callq  402e84 <clear_data_connection>
  403c75:	b8 01 00 00 00       	mov    $0x1,%eax
  403c7a:	48 8b 4d f8          	mov    -0x8(%rbp),%rcx
  403c7e:	64 48 33 0c 25 28 00 	xor    %fs:0x28,%rcx
  403c85:	00 00 
  403c87:	74 05                	je     403c8e <prepare_retr+0x258>
  403c89:	e8 12 e5 ff ff       	callq  4021a0 <__stack_chk_fail@plt>
  403c8e:	c9                   	leaveq 
  403c8f:	c3                   	retq   

0000000000403c90 <prepare_size>:
  403c90:	55                   	push   %rbp
  403c91:	48 89 e5             	mov    %rsp,%rbp
  403c94:	48 83 c4 80          	add    $0xffffffffffffff80,%rsp
  403c98:	48 89 7d 88          	mov    %rdi,-0x78(%rbp)
  403c9c:	48 89 75 80          	mov    %rsi,-0x80(%rbp)
  403ca0:	64 48 8b 04 25 28 00 	mov    %fs:0x28,%rax
  403ca7:	00 00 
  403ca9:	48 89 45 f8          	mov    %rax,-0x8(%rbp)
  403cad:	31 c0                	xor    %eax,%eax
  403caf:	48 c7 45 a0 00 00 00 	movq   $0x0,-0x60(%rbp)
  403cb6:	00 
  403cb7:	c7 45 a8 00 00 00 00 	movl   $0x0,-0x58(%rbp)
  403cbe:	c7 45 ac 00 00 00 00 	movl   $0x0,-0x54(%rbp)
  403cc5:	48 8d 4d a0          	lea    -0x60(%rbp),%rcx
  403cc9:	48 8b 45 88          	mov    -0x78(%rbp),%rax
  403ccd:	ba 20 00 00 00       	mov    $0x20,%edx
  403cd2:	48 89 ce             	mov    %rcx,%rsi
  403cd5:	48 89 c7             	mov    %rax,%rdi
  403cd8:	e8 22 2a 00 00       	callq  4066ff <str_split_char>
  403cdd:	48 c7 45 98 00 00 00 	movq   $0x0,-0x68(%rbp)
  403ce4:	00 
  403ce5:	48 8b 45 88          	mov    -0x78(%rbp),%rax
  403ce9:	48 8b 00             	mov    (%rax),%rax
  403cec:	be 0e 00 00 00       	mov    $0xe,%esi
  403cf1:	48 89 c7             	mov    %rax,%rdi
  403cf4:	e8 44 59 00 00       	callq  40963d <sysutil_syslog>
  403cf9:	48 8b 45 a0          	mov    -0x60(%rbp),%rax
  403cfd:	be 0e 00 00 00       	mov    $0xe,%esi
  403d02:	48 89 c7             	mov    %rax,%rdi
  403d05:	e8 33 59 00 00       	callq  40963d <sysutil_syslog>
  403d0a:	48 8d 4d 98          	lea    -0x68(%rbp),%rcx
  403d0e:	48 8d 45 a0          	lea    -0x60(%rbp),%rax
  403d12:	ba 00 00 00 00       	mov    $0x0,%edx
  403d17:	48 89 ce             	mov    %rcx,%rsi
  403d1a:	48 89 c7             	mov    %rax,%rdi
  403d1d:	e8 c8 f1 ff ff       	callq  402eea <test_filename>
  403d22:	85 c0                	test   %eax,%eax
  403d24:	75 25                	jne    403d4b <prepare_size+0xbb>
  403d26:	48 8b 45 80          	mov    -0x80(%rbp),%rax
  403d2a:	8b 80 10 01 00 00    	mov    0x110(%rax),%eax
  403d30:	ba 00 00 00 00       	mov    $0x0,%edx
  403d35:	be 0a 00 00 00       	mov    $0xa,%esi
  403d3a:	89 c7                	mov    %eax,%edi
  403d3c:	e8 0c f0 ff ff       	callq  402d4d <write_internal_cmd_respond>
  403d41:	b8 00 00 00 00       	mov    $0x0,%eax
  403d46:	e9 90 00 00 00       	jmpq   403ddb <prepare_size+0x14b>
  403d4b:	48 8d 45 a0          	lea    -0x60(%rbp),%rax
  403d4f:	48 89 c7             	mov    %rax,%rdi
  403d52:	e8 9a 22 00 00       	callq  405ff1 <str_free>
  403d57:	48 8d 55 b0          	lea    -0x50(%rbp),%rdx
  403d5b:	b8 00 00 00 00       	mov    $0x0,%eax
  403d60:	b9 08 00 00 00       	mov    $0x8,%ecx
  403d65:	48 89 d7             	mov    %rdx,%rdi
  403d68:	f3 48 ab             	rep stos %rax,%es:(%rdi)
  403d6b:	48 8b 45 98          	mov    -0x68(%rbp),%rax
  403d6f:	48 8b 50 30          	mov    0x30(%rax),%rdx
  403d73:	48 8d 45 b0          	lea    -0x50(%rbp),%rax
  403d77:	48 89 d1             	mov    %rdx,%rcx
  403d7a:	ba 78 a8 40 00       	mov    $0x40a878,%edx
  403d7f:	be 40 00 00 00       	mov    $0x40,%esi
  403d84:	48 89 c7             	mov    %rax,%rdi
  403d87:	b8 00 00 00 00       	mov    $0x0,%eax
  403d8c:	e8 5f e4 ff ff       	callq  4021f0 <snprintf@plt>
  403d91:	48 8d 55 b0          	lea    -0x50(%rbp),%rdx
  403d95:	48 8d 45 a0          	lea    -0x60(%rbp),%rax
  403d99:	48 89 d6             	mov    %rdx,%rsi
  403d9c:	48 89 c7             	mov    %rax,%rdi
  403d9f:	e8 d3 24 00 00       	callq  406277 <str_append_text>
  403da4:	48 8b 45 98          	mov    -0x68(%rbp),%rax
  403da8:	48 89 c7             	mov    %rax,%rdi
  403dab:	e8 17 42 00 00       	callq  407fc7 <sysutil_free>
  403db0:	48 8b 45 80          	mov    -0x80(%rbp),%rax
  403db4:	8b 80 10 01 00 00    	mov    0x110(%rax),%eax
  403dba:	48 8d 55 a0          	lea    -0x60(%rbp),%rdx
  403dbe:	be 09 00 00 00       	mov    $0x9,%esi
  403dc3:	89 c7                	mov    %eax,%edi
  403dc5:	e8 83 ef ff ff       	callq  402d4d <write_internal_cmd_respond>
  403dca:	48 8d 45 a0          	lea    -0x60(%rbp),%rax
  403dce:	48 89 c7             	mov    %rax,%rdi
  403dd1:	e8 1b 22 00 00       	callq  405ff1 <str_free>
  403dd6:	b8 01 00 00 00       	mov    $0x1,%eax
  403ddb:	48 8b 4d f8          	mov    -0x8(%rbp),%rcx
  403ddf:	64 48 33 0c 25 28 00 	xor    %fs:0x28,%rcx
  403de6:	00 00 
  403de8:	74 05                	je     403def <prepare_size+0x15f>
  403dea:	e8 b1 e3 ff ff       	callq  4021a0 <__stack_chk_fail@plt>
  403def:	c9                   	leaveq 
  403df0:	c3                   	retq   

0000000000403df1 <prepare_mdtm>:
  403df1:	55                   	push   %rbp
  403df2:	48 89 e5             	mov    %rsp,%rbp
  403df5:	48 83 ec 60          	sub    $0x60,%rsp
  403df9:	48 89 7d a8          	mov    %rdi,-0x58(%rbp)
  403dfd:	48 89 75 a0          	mov    %rsi,-0x60(%rbp)
  403e01:	64 48 8b 04 25 28 00 	mov    %fs:0x28,%rax
  403e08:	00 00 
  403e0a:	48 89 45 f8          	mov    %rax,-0x8(%rbp)
  403e0e:	31 c0                	xor    %eax,%eax
  403e10:	48 c7 45 c0 00 00 00 	movq   $0x0,-0x40(%rbp)
  403e17:	00 
  403e18:	c7 45 c8 00 00 00 00 	movl   $0x0,-0x38(%rbp)
  403e1f:	c7 45 cc 00 00 00 00 	movl   $0x0,-0x34(%rbp)
  403e26:	48 8d 4d c0          	lea    -0x40(%rbp),%rcx
  403e2a:	48 8b 45 a8          	mov    -0x58(%rbp),%rax
  403e2e:	ba 20 00 00 00       	mov    $0x20,%edx
  403e33:	48 89 ce             	mov    %rcx,%rsi
  403e36:	48 89 c7             	mov    %rax,%rdi
  403e39:	e8 c1 28 00 00       	callq  4066ff <str_split_char>
  403e3e:	48 c7 45 b0 00 00 00 	movq   $0x0,-0x50(%rbp)
  403e45:	00 
  403e46:	48 8d 4d b0          	lea    -0x50(%rbp),%rcx
  403e4a:	48 8d 45 c0          	lea    -0x40(%rbp),%rax
  403e4e:	ba 00 00 00 00       	mov    $0x0,%edx
  403e53:	48 89 ce             	mov    %rcx,%rsi
  403e56:	48 89 c7             	mov    %rax,%rdi
  403e59:	e8 8c f0 ff ff       	callq  402eea <test_filename>
  403e5e:	85 c0                	test   %eax,%eax
  403e60:	75 25                	jne    403e87 <prepare_mdtm+0x96>
  403e62:	48 8b 45 a0          	mov    -0x60(%rbp),%rax
  403e66:	8b 80 10 01 00 00    	mov    0x110(%rax),%eax
  403e6c:	ba 00 00 00 00       	mov    $0x0,%edx
  403e71:	be 0c 00 00 00       	mov    $0xc,%esi
  403e76:	89 c7                	mov    %eax,%edi
  403e78:	e8 d0 ee ff ff       	callq  402d4d <write_internal_cmd_respond>
  403e7d:	b8 00 00 00 00       	mov    $0x0,%eax
  403e82:	e9 9b 00 00 00       	jmpq   403f22 <prepare_mdtm+0x131>
  403e87:	48 8d 45 c0          	lea    -0x40(%rbp),%rax
  403e8b:	48 89 c7             	mov    %rax,%rdi
  403e8e:	e8 5e 21 00 00       	callq  405ff1 <str_free>
  403e93:	48 c7 45 d0 00 00 00 	movq   $0x0,-0x30(%rbp)
  403e9a:	00 
  403e9b:	48 c7 45 d8 00 00 00 	movq   $0x0,-0x28(%rbp)
  403ea2:	00 
  403ea3:	48 c7 45 e0 00 00 00 	movq   $0x0,-0x20(%rbp)
  403eaa:	00 
  403eab:	48 c7 45 e8 00 00 00 	movq   $0x0,-0x18(%rbp)
  403eb2:	00 
  403eb3:	48 8b 45 b0          	mov    -0x50(%rbp),%rax
  403eb7:	48 83 c0 58          	add    $0x58,%rax
  403ebb:	48 89 c7             	mov    %rax,%rdi
  403ebe:	e8 4d e1 ff ff       	callq  402010 <localtime@plt>
  403ec3:	48 89 45 b8          	mov    %rax,-0x48(%rbp)
  403ec7:	48 8b 55 b8          	mov    -0x48(%rbp),%rdx
  403ecb:	48 8d 45 d0          	lea    -0x30(%rbp),%rax
  403ecf:	48 89 d1             	mov    %rdx,%rcx
  403ed2:	ba 7c a8 40 00       	mov    $0x40a87c,%edx
  403ed7:	be 20 00 00 00       	mov    $0x20,%esi
  403edc:	48 89 c7             	mov    %rax,%rdi
  403edf:	e8 3c e6 ff ff       	callq  402520 <strftime@plt>
  403ee4:	48 8d 55 d0          	lea    -0x30(%rbp),%rdx
  403ee8:	48 8d 45 c0          	lea    -0x40(%rbp),%rax
  403eec:	48 89 d6             	mov    %rdx,%rsi
  403eef:	48 89 c7             	mov    %rax,%rdi
  403ef2:	e8 80 23 00 00       	callq  406277 <str_append_text>
  403ef7:	48 8b 45 a0          	mov    -0x60(%rbp),%rax
  403efb:	8b 80 10 01 00 00    	mov    0x110(%rax),%eax
  403f01:	48 8d 55 c0          	lea    -0x40(%rbp),%rdx
  403f05:	be 0b 00 00 00       	mov    $0xb,%esi
  403f0a:	89 c7                	mov    %eax,%edi
  403f0c:	e8 3c ee ff ff       	callq  402d4d <write_internal_cmd_respond>
  403f11:	48 8d 45 c0          	lea    -0x40(%rbp),%rax
  403f15:	48 89 c7             	mov    %rax,%rdi
  403f18:	e8 d4 20 00 00       	callq  405ff1 <str_free>
  403f1d:	b8 01 00 00 00       	mov    $0x1,%eax
  403f22:	48 8b 4d f8          	mov    -0x8(%rbp),%rcx
  403f26:	64 48 33 0c 25 28 00 	xor    %fs:0x28,%rcx
  403f2d:	00 00 
  403f2f:	74 05                	je     403f36 <prepare_mdtm+0x145>
  403f31:	e8 6a e2 ff ff       	callq  4021a0 <__stack_chk_fail@plt>
  403f36:	c9                   	leaveq 
  403f37:	c3                   	retq   

0000000000403f38 <prepare_stor>:
  403f38:	55                   	push   %rbp
  403f39:	48 89 e5             	mov    %rsp,%rbp
  403f3c:	48 89 7d f8          	mov    %rdi,-0x8(%rbp)
  403f40:	48 89 75 f0          	mov    %rsi,-0x10(%rbp)
  403f44:	b8 00 00 00 00       	mov    $0x0,%eax
  403f49:	5d                   	pop    %rbp
  403f4a:	c3                   	retq   

0000000000403f4b <prepare_rest>:
  403f4b:	55                   	push   %rbp
  403f4c:	48 89 e5             	mov    %rsp,%rbp
  403f4f:	48 89 7d f8          	mov    %rdi,-0x8(%rbp)
  403f53:	48 89 75 f0          	mov    %rsi,-0x10(%rbp)
  403f57:	b8 00 00 00 00       	mov    $0x0,%eax
  403f5c:	5d                   	pop    %rbp
  403f5d:	c3                   	retq   

0000000000403f5e <prepare_rmd>:
  403f5e:	55                   	push   %rbp
  403f5f:	48 89 e5             	mov    %rsp,%rbp
  403f62:	48 89 7d f8          	mov    %rdi,-0x8(%rbp)
  403f66:	48 89 75 f0          	mov    %rsi,-0x10(%rbp)
  403f6a:	b8 00 00 00 00       	mov    $0x0,%eax
  403f6f:	5d                   	pop    %rbp
  403f70:	c3                   	retq   

0000000000403f71 <prepare_dele>:
  403f71:	55                   	push   %rbp
  403f72:	48 89 e5             	mov    %rsp,%rbp
  403f75:	48 89 7d f8          	mov    %rdi,-0x8(%rbp)
  403f79:	48 89 75 f0          	mov    %rsi,-0x10(%rbp)
  403f7d:	b8 00 00 00 00       	mov    $0x0,%eax
  403f82:	5d                   	pop    %rbp
  403f83:	c3                   	retq   

0000000000403f84 <deal_parent_respond>:
  403f84:	55                   	push   %rbp
  403f85:	48 89 e5             	mov    %rsp,%rbp
  403f88:	48 83 ec 50          	sub    $0x50,%rsp
  403f8c:	48 89 7d b8          	mov    %rdi,-0x48(%rbp)
  403f90:	64 48 8b 04 25 28 00 	mov    %fs:0x28,%rax
  403f97:	00 00 
  403f99:	48 89 45 f8          	mov    %rax,-0x8(%rbp)
  403f9d:	31 c0                	xor    %eax,%eax
  403f9f:	48 c7 45 d0 00 00 00 	movq   $0x0,-0x30(%rbp)
  403fa6:	00 
  403fa7:	c7 45 d8 00 00 00 00 	movl   $0x0,-0x28(%rbp)
  403fae:	c7 45 dc 00 00 00 00 	movl   $0x0,-0x24(%rbp)
  403fb5:	48 c7 45 e0 00 00 00 	movq   $0x0,-0x20(%rbp)
  403fbc:	00 
  403fbd:	c7 45 e8 00 00 00 00 	movl   $0x0,-0x18(%rbp)
  403fc4:	c7 45 ec 00 00 00 00 	movl   $0x0,-0x14(%rbp)
  403fcb:	48 8d 45 d0          	lea    -0x30(%rbp),%rax
  403fcf:	ba 00 04 00 00       	mov    $0x400,%edx
  403fd4:	be 00 00 00 00       	mov    $0x0,%esi
  403fd9:	48 89 c7             	mov    %rax,%rdi
  403fdc:	e8 3b 1d 00 00       	callq  405d1c <private_str_alloc_memchunk>
  403fe1:	48 8b 45 b8          	mov    -0x48(%rbp),%rax
  403fe5:	8b 80 14 01 00 00    	mov    0x114(%rax),%eax
  403feb:	48 8d 55 d0          	lea    -0x30(%rbp),%rdx
  403fef:	48 89 d6             	mov    %rdx,%rsi
  403ff2:	89 c7                	mov    %eax,%edi
  403ff4:	e8 da ec ff ff       	callq  402cd3 <get_internal_cmd_data>
  403ff9:	be 0e 00 00 00       	mov    $0xe,%esi
  403ffe:	bf 8a a8 40 00       	mov    $0x40a88a,%edi
  404003:	e8 35 56 00 00       	callq  40963d <sysutil_syslog>
  404008:	48 8b 45 d0          	mov    -0x30(%rbp),%rax
  40400c:	be 0e 00 00 00       	mov    $0xe,%esi
  404011:	48 89 c7             	mov    %rax,%rdi
  404014:	e8 24 56 00 00       	callq  40963d <sysutil_syslog>
  404019:	48 8d 45 d0          	lea    -0x30(%rbp),%rax
  40401d:	be 00 00 00 00       	mov    $0x0,%esi
  404022:	48 89 c7             	mov    %rax,%rdi
  404025:	e8 3f 2d 00 00       	callq  406d69 <str_get_char_at>
  40402a:	0f be c0             	movsbl %al,%eax
  40402d:	89 45 cc             	mov    %eax,-0x34(%rbp)
  404030:	8b 45 d8             	mov    -0x28(%rbp),%eax
  404033:	83 f8 01             	cmp    $0x1,%eax
  404036:	76 29                	jbe    404061 <deal_parent_respond+0xdd>
  404038:	48 8d 4d e0          	lea    -0x20(%rbp),%rcx
  40403c:	48 8d 45 d0          	lea    -0x30(%rbp),%rax
  404040:	ba 20 00 00 00       	mov    $0x20,%edx
  404045:	48 89 ce             	mov    %rcx,%rsi
  404048:	48 89 c7             	mov    %rax,%rdi
  40404b:	e8 af 26 00 00       	callq  4066ff <str_split_char>
  404050:	48 8d 45 e0          	lea    -0x20(%rbp),%rax
  404054:	be 0a 00 00 00       	mov    $0xa,%esi
  404059:	48 89 c7             	mov    %rax,%rdi
  40405c:	e8 b6 23 00 00       	callq  406417 <str_append_char>
  404061:	48 8d 45 d0          	lea    -0x30(%rbp),%rax
  404065:	48 89 c7             	mov    %rax,%rdi
  404068:	e8 84 1f 00 00       	callq  405ff1 <str_free>
  40406d:	48 8b 45 e0          	mov    -0x20(%rbp),%rax
  404071:	be 0e 00 00 00       	mov    $0xe,%esi
  404076:	48 89 c7             	mov    %rax,%rdi
  404079:	e8 bf 55 00 00       	callq  40963d <sysutil_syslog>
  40407e:	83 7d cc 20          	cmpl   $0x20,-0x34(%rbp)
  404082:	0f 87 10 03 00 00    	ja     404398 <deal_parent_respond+0x414>
  404088:	8b 45 cc             	mov    -0x34(%rbp),%eax
  40408b:	48 8b 04 c5 c0 a9 40 	mov    0x40a9c0(,%rax,8),%rax
  404092:	00 
  404093:	ff e0                	jmpq   *%rax
  404095:	ba a0 a8 40 00       	mov    $0x40a8a0,%edx
  40409a:	be 12 02 00 00       	mov    $0x212,%esi
  40409f:	bf 00 00 00 00       	mov    $0x0,%edi
  4040a4:	e8 29 e9 ff ff       	callq  4029d2 <write_cmd_respond>
  4040a9:	48 8b 45 b8          	mov    -0x48(%rbp),%rax
  4040ad:	c7 80 30 01 00 00 01 	movl   $0x1,0x130(%rax)
  4040b4:	00 00 00 
  4040b7:	e9 dc 02 00 00       	jmpq   404398 <deal_parent_respond+0x414>
  4040bc:	ba b2 a8 40 00       	mov    $0x40a8b2,%edx
  4040c1:	be e6 00 00 00       	mov    $0xe6,%esi
  4040c6:	bf 00 00 00 00       	mov    $0x0,%edi
  4040cb:	e8 02 e9 ff ff       	callq  4029d2 <write_cmd_respond>
  4040d0:	48 8b 45 b8          	mov    -0x48(%rbp),%rax
  4040d4:	c7 80 30 01 00 00 00 	movl   $0x0,0x130(%rax)
  4040db:	00 00 00 
  4040de:	e9 b5 02 00 00       	jmpq   404398 <deal_parent_respond+0x414>
  4040e3:	ba c8 a8 40 00       	mov    $0x40a8c8,%edx
  4040e8:	be c8 00 00 00       	mov    $0xc8,%esi
  4040ed:	bf 00 00 00 00       	mov    $0x0,%edi
  4040f2:	e8 db e8 ff ff       	callq  4029d2 <write_cmd_respond>
  4040f7:	e9 9c 02 00 00       	jmpq   404398 <deal_parent_respond+0x414>
  4040fc:	ba f7 a8 40 00       	mov    $0x40a8f7,%edx
  404101:	be f7 01 00 00       	mov    $0x1f7,%esi
  404106:	bf 00 00 00 00       	mov    $0x0,%edi
  40410b:	e8 c2 e8 ff ff       	callq  4029d2 <write_cmd_respond>
  404110:	e9 83 02 00 00       	jmpq   404398 <deal_parent_respond+0x414>
  404115:	48 8b 45 e0          	mov    -0x20(%rbp),%rax
  404119:	48 89 c2             	mov    %rax,%rdx
  40411c:	be e3 00 00 00       	mov    $0xe3,%esi
  404121:	bf 00 00 00 00       	mov    $0x0,%edi
  404126:	e8 a7 e8 ff ff       	callq  4029d2 <write_cmd_respond>
  40412b:	e9 68 02 00 00       	jmpq   404398 <deal_parent_respond+0x414>
  404130:	ba 88 a7 40 00       	mov    $0x40a788,%edx
  404135:	be a5 01 00 00       	mov    $0x1a5,%esi
  40413a:	bf 00 00 00 00       	mov    $0x0,%edi
  40413f:	e8 8e e8 ff ff       	callq  4029d2 <write_cmd_respond>
  404144:	e9 4f 02 00 00       	jmpq   404398 <deal_parent_respond+0x414>
  404149:	48 8b 45 e0          	mov    -0x20(%rbp),%rax
  40414d:	48 89 c2             	mov    %rax,%rdx
  404150:	be d5 00 00 00       	mov    $0xd5,%esi
  404155:	bf 00 00 00 00       	mov    $0x0,%edi
  40415a:	e8 73 e8 ff ff       	callq  4029d2 <write_cmd_respond>
  40415f:	e9 34 02 00 00       	jmpq   404398 <deal_parent_respond+0x414>
  404164:	ba 10 a9 40 00       	mov    $0x40a910,%edx
  404169:	be f5 01 00 00       	mov    $0x1f5,%esi
  40416e:	bf 00 00 00 00       	mov    $0x0,%edi
  404173:	e8 5a e8 ff ff       	callq  4029d2 <write_cmd_respond>
  404178:	e9 1b 02 00 00       	jmpq   404398 <deal_parent_respond+0x414>
  40417d:	48 8b 45 e0          	mov    -0x20(%rbp),%rax
  404181:	48 89 c2             	mov    %rax,%rdx
  404184:	be d5 00 00 00       	mov    $0xd5,%esi
  404189:	bf 00 00 00 00       	mov    $0x0,%edi
  40418e:	e8 3f e8 ff ff       	callq  4029d2 <write_cmd_respond>
  404193:	e9 00 02 00 00       	jmpq   404398 <deal_parent_respond+0x414>
  404198:	ba 10 a9 40 00       	mov    $0x40a910,%edx
  40419d:	be f5 01 00 00       	mov    $0x1f5,%esi
  4041a2:	bf 00 00 00 00       	mov    $0x0,%edi
  4041a7:	e8 26 e8 ff ff       	callq  4029d2 <write_cmd_respond>
  4041ac:	e9 e7 01 00 00       	jmpq   404398 <deal_parent_respond+0x414>
  4041b1:	ba 28 a9 40 00       	mov    $0x40a928,%edx
  4041b6:	be fa 00 00 00       	mov    $0xfa,%esi
  4041bb:	bf 00 00 00 00       	mov    $0x0,%edi
  4041c0:	e8 0d e8 ff ff       	callq  4029d2 <write_cmd_respond>
  4041c5:	e9 ce 01 00 00       	jmpq   404398 <deal_parent_respond+0x414>
  4041ca:	ba 49 a9 40 00       	mov    $0x40a949,%edx
  4041cf:	be f5 01 00 00       	mov    $0x1f5,%esi
  4041d4:	bf 00 00 00 00       	mov    $0x0,%edi
  4041d9:	e8 f4 e7 ff ff       	callq  4029d2 <write_cmd_respond>
  4041de:	e9 b5 01 00 00       	jmpq   404398 <deal_parent_respond+0x414>
  4041e3:	48 8b 45 e0          	mov    -0x20(%rbp),%rax
  4041e7:	48 89 c2             	mov    %rax,%rdx
  4041ea:	be 96 00 00 00       	mov    $0x96,%esi
  4041ef:	bf 00 00 00 00       	mov    $0x0,%edi
  4041f4:	e8 d9 e7 ff ff       	callq  4029d2 <write_cmd_respond>
  4041f9:	e9 9a 01 00 00       	jmpq   404398 <deal_parent_respond+0x414>
  4041fe:	ba 10 a9 40 00       	mov    $0x40a910,%edx
  404203:	be f5 01 00 00       	mov    $0x1f5,%esi
  404208:	bf 00 00 00 00       	mov    $0x0,%edi
  40420d:	e8 c0 e7 ff ff       	callq  4029d2 <write_cmd_respond>
  404212:	e9 81 01 00 00       	jmpq   404398 <deal_parent_respond+0x414>
  404217:	ba 5a a9 40 00       	mov    $0x40a95a,%edx
  40421c:	be e2 00 00 00       	mov    $0xe2,%esi
  404221:	bf 00 00 00 00       	mov    $0x0,%edi
  404226:	e8 a7 e7 ff ff       	callq  4029d2 <write_cmd_respond>
  40422b:	e9 68 01 00 00       	jmpq   404398 <deal_parent_respond+0x414>
  404230:	ba 6e a9 40 00       	mov    $0x40a96e,%edx
  404235:	be f5 01 00 00       	mov    $0x1f5,%esi
  40423a:	bf 00 00 00 00       	mov    $0x0,%edi
  40423f:	e8 8e e7 ff ff       	callq  4029d2 <write_cmd_respond>
  404244:	e9 4f 01 00 00       	jmpq   404398 <deal_parent_respond+0x414>
  404249:	ba 28 a9 40 00       	mov    $0x40a928,%edx
  40424e:	be fa 00 00 00       	mov    $0xfa,%esi
  404253:	bf 00 00 00 00       	mov    $0x0,%edi
  404258:	e8 75 e7 ff ff       	callq  4029d2 <write_cmd_respond>
  40425d:	e9 36 01 00 00       	jmpq   404398 <deal_parent_respond+0x414>
  404262:	ba 5a a9 40 00       	mov    $0x40a95a,%edx
  404267:	be e2 00 00 00       	mov    $0xe2,%esi
  40426c:	bf 00 00 00 00       	mov    $0x0,%edi
  404271:	e8 5c e7 ff ff       	callq  4029d2 <write_cmd_respond>
  404276:	e9 1d 01 00 00       	jmpq   404398 <deal_parent_respond+0x414>
  40427b:	ba 6e a9 40 00       	mov    $0x40a96e,%edx
  404280:	be f5 01 00 00       	mov    $0x1f5,%esi
  404285:	bf 00 00 00 00       	mov    $0x0,%edi
  40428a:	e8 43 e7 ff ff       	callq  4029d2 <write_cmd_respond>
  40428f:	e9 04 01 00 00       	jmpq   404398 <deal_parent_respond+0x414>
  404294:	48 8b 45 e0          	mov    -0x20(%rbp),%rax
  404298:	48 89 c2             	mov    %rax,%rdx
  40429b:	be 01 01 00 00       	mov    $0x101,%esi
  4042a0:	bf 00 00 00 00       	mov    $0x0,%edi
  4042a5:	e8 28 e7 ff ff       	callq  4029d2 <write_cmd_respond>
  4042aa:	e9 e9 00 00 00       	jmpq   404398 <deal_parent_respond+0x414>
  4042af:	48 8b 45 e0          	mov    -0x20(%rbp),%rax
  4042b3:	48 89 c2             	mov    %rax,%rdx
  4042b6:	be c8 00 00 00       	mov    $0xc8,%esi
  4042bb:	bf 00 00 00 00       	mov    $0x0,%edi
  4042c0:	e8 0d e7 ff ff       	callq  4029d2 <write_cmd_respond>
  4042c5:	e9 ce 00 00 00       	jmpq   404398 <deal_parent_respond+0x414>
  4042ca:	ba 88 a9 40 00       	mov    $0x40a988,%edx
  4042cf:	be f5 01 00 00       	mov    $0x1f5,%esi
  4042d4:	bf 00 00 00 00       	mov    $0x0,%edi
  4042d9:	e8 f4 e6 ff ff       	callq  4029d2 <write_cmd_respond>
  4042de:	e9 b5 00 00 00       	jmpq   404398 <deal_parent_respond+0x414>
  4042e3:	ba 5a a9 40 00       	mov    $0x40a95a,%edx
  4042e8:	be e2 00 00 00       	mov    $0xe2,%esi
  4042ed:	bf 00 00 00 00       	mov    $0x0,%edi
  4042f2:	e8 db e6 ff ff       	callq  4029d2 <write_cmd_respond>
  4042f7:	e9 9c 00 00 00       	jmpq   404398 <deal_parent_respond+0x414>
  4042fc:	ba 6e a9 40 00       	mov    $0x40a96e,%edx
  404301:	be f5 01 00 00       	mov    $0x1f5,%esi
  404306:	bf 00 00 00 00       	mov    $0x0,%edi
  40430b:	e8 c2 e6 ff ff       	callq  4029d2 <write_cmd_respond>
  404310:	e9 83 00 00 00       	jmpq   404398 <deal_parent_respond+0x414>
  404315:	ba 5a a9 40 00       	mov    $0x40a95a,%edx
  40431a:	be e2 00 00 00       	mov    $0xe2,%esi
  40431f:	bf 00 00 00 00       	mov    $0x0,%edi
  404324:	e8 a9 e6 ff ff       	callq  4029d2 <write_cmd_respond>
  404329:	eb 6d                	jmp    404398 <deal_parent_respond+0x414>
  40432b:	ba 6e a9 40 00       	mov    $0x40a96e,%edx
  404330:	be f5 01 00 00       	mov    $0x1f5,%esi
  404335:	bf 00 00 00 00       	mov    $0x0,%edi
  40433a:	e8 93 e6 ff ff       	callq  4029d2 <write_cmd_respond>
  40433f:	eb 57                	jmp    404398 <deal_parent_respond+0x414>
  404341:	ba 5a a9 40 00       	mov    $0x40a95a,%edx
  404346:	be e2 00 00 00       	mov    $0xe2,%esi
  40434b:	bf 00 00 00 00       	mov    $0x0,%edi
  404350:	e8 7d e6 ff ff       	callq  4029d2 <write_cmd_respond>
  404355:	eb 41                	jmp    404398 <deal_parent_respond+0x414>
  404357:	ba 6e a9 40 00       	mov    $0x40a96e,%edx
  40435c:	be f5 01 00 00       	mov    $0x1f5,%esi
  404361:	bf 00 00 00 00       	mov    $0x0,%edi
  404366:	e8 67 e6 ff ff       	callq  4029d2 <write_cmd_respond>
  40436b:	eb 2b                	jmp    404398 <deal_parent_respond+0x414>
  40436d:	ba 5a a9 40 00       	mov    $0x40a95a,%edx
  404372:	be e2 00 00 00       	mov    $0xe2,%esi
  404377:	bf 00 00 00 00       	mov    $0x0,%edi
  40437c:	e8 51 e6 ff ff       	callq  4029d2 <write_cmd_respond>
  404381:	eb 15                	jmp    404398 <deal_parent_respond+0x414>
  404383:	ba 6e a9 40 00       	mov    $0x40a96e,%edx
  404388:	be f5 01 00 00       	mov    $0x1f5,%esi
  40438d:	bf 00 00 00 00       	mov    $0x0,%edi
  404392:	e8 3b e6 ff ff       	callq  4029d2 <write_cmd_respond>
  404397:	90                   	nop
  404398:	48 8d 45 e0          	lea    -0x20(%rbp),%rax
  40439c:	48 89 c7             	mov    %rax,%rdi
  40439f:	e8 4d 1c 00 00       	callq  405ff1 <str_free>
  4043a4:	90                   	nop
  4043a5:	48 8b 45 f8          	mov    -0x8(%rbp),%rax
  4043a9:	64 48 33 04 25 28 00 	xor    %fs:0x28,%rax
  4043b0:	00 00 
  4043b2:	74 05                	je     4043b9 <deal_parent_respond+0x435>
  4043b4:	e8 e7 dd ff ff       	callq  4021a0 <__stack_chk_fail@plt>
  4043b9:	c9                   	leaveq 
  4043ba:	c3                   	retq   

00000000004043bb <handle_pasv>:
  4043bb:	55                   	push   %rbp
  4043bc:	48 89 e5             	mov    %rsp,%rbp
  4043bf:	48 83 ec 30          	sub    $0x30,%rsp
  4043c3:	48 89 7d d8          	mov    %rdi,-0x28(%rbp)
  4043c7:	64 48 8b 04 25 28 00 	mov    %fs:0x28,%rax
  4043ce:	00 00 
  4043d0:	48 89 45 f8          	mov    %rax,-0x8(%rbp)
  4043d4:	31 c0                	xor    %eax,%eax
  4043d6:	48 c7 45 e0 00 00 00 	movq   $0x0,-0x20(%rbp)
  4043dd:	00 
  4043de:	c7 45 e8 00 00 00 00 	movl   $0x0,-0x18(%rbp)
  4043e5:	c7 45 ec 00 00 00 00 	movl   $0x0,-0x14(%rbp)
  4043ec:	48 8d 45 e0          	lea    -0x20(%rbp),%rax
  4043f0:	be 06 00 00 00       	mov    $0x6,%esi
  4043f5:	48 89 c7             	mov    %rax,%rdi
  4043f8:	e8 1a 20 00 00       	callq  406417 <str_append_char>
  4043fd:	48 8b 45 d8          	mov    -0x28(%rbp),%rax
  404401:	8b 80 14 01 00 00    	mov    0x114(%rax),%eax
  404407:	48 8d 55 e0          	lea    -0x20(%rbp),%rdx
  40440b:	48 89 d6             	mov    %rdx,%rsi
  40440e:	89 c7                	mov    %eax,%edi
  404410:	e8 fa e8 ff ff       	callq  402d0f <write_internal_cmd_request>
  404415:	48 8d 45 e0          	lea    -0x20(%rbp),%rax
  404419:	48 89 c7             	mov    %rax,%rdi
  40441c:	e8 d0 1b 00 00       	callq  405ff1 <str_free>
  404421:	48 8b 45 d8          	mov    -0x28(%rbp),%rax
  404425:	48 89 c7             	mov    %rax,%rdi
  404428:	e8 57 fb ff ff       	callq  403f84 <deal_parent_respond>
  40442d:	90                   	nop
  40442e:	48 8b 45 f8          	mov    -0x8(%rbp),%rax
  404432:	64 48 33 04 25 28 00 	xor    %fs:0x28,%rax
  404439:	00 00 
  40443b:	74 05                	je     404442 <handle_pasv+0x87>
  40443d:	e8 5e dd ff ff       	callq  4021a0 <__stack_chk_fail@plt>
  404442:	c9                   	leaveq 
  404443:	c3                   	retq   

0000000000404444 <handle_user>:
  404444:	55                   	push   %rbp
  404445:	48 89 e5             	mov    %rsp,%rbp
  404448:	48 83 ec 10          	sub    $0x10,%rsp
  40444c:	48 89 7d f8          	mov    %rdi,-0x8(%rbp)
  404450:	48 89 75 f0          	mov    %rsi,-0x10(%rbp)
  404454:	48 8b 45 f0          	mov    -0x10(%rbp),%rax
  404458:	48 89 c7             	mov    %rax,%rdi
  40445b:	e8 8a 2a 00 00       	callq  406eea <str_contains_unprintable>
  404460:	85 c0                	test   %eax,%eax
  404462:	74 21                	je     404485 <handle_user+0x41>
  404464:	48 8b 45 f0          	mov    -0x10(%rbp),%rax
  404468:	48 89 c7             	mov    %rax,%rdi
  40446b:	e8 6a 29 00 00       	callq  406dda <str_all_space>
  404470:	85 c0                	test   %eax,%eax
  404472:	74 11                	je     404485 <handle_user+0x41>
  404474:	48 8b 45 f0          	mov    -0x10(%rbp),%rax
  404478:	48 89 c7             	mov    %rax,%rdi
  40447b:	e8 2a 1c 00 00       	callq  4060aa <str_getlen>
  404480:	83 f8 7f             	cmp    $0x7f,%eax
  404483:	77 3b                	ja     4044c0 <handle_user+0x7c>
  404485:	48 8b 45 f8          	mov    -0x8(%rbp),%rax
  404489:	48 83 c0 58          	add    $0x58,%rax
  40448d:	48 89 c7             	mov    %rax,%rdi
  404490:	e8 fc 1b 00 00       	callq  406091 <str_isempty>
  404495:	85 c0                	test   %eax,%eax
  404497:	75 10                	jne    4044a9 <handle_user+0x65>
  404499:	48 8b 45 f8          	mov    -0x8(%rbp),%rax
  40449d:	48 83 c0 58          	add    $0x58,%rax
  4044a1:	48 89 c7             	mov    %rax,%rdi
  4044a4:	e8 48 1b 00 00       	callq  405ff1 <str_free>
  4044a9:	48 8b 4d f8          	mov    -0x8(%rbp),%rcx
  4044ad:	48 8b 45 f0          	mov    -0x10(%rbp),%rax
  4044b1:	48 8b 50 08          	mov    0x8(%rax),%rdx
  4044b5:	48 8b 00             	mov    (%rax),%rax
  4044b8:	48 89 41 58          	mov    %rax,0x58(%rcx)
  4044bc:	48 89 51 60          	mov    %rdx,0x60(%rcx)
  4044c0:	48 8b 45 f8          	mov    -0x8(%rbp),%rax
  4044c4:	48 83 c0 68          	add    $0x68,%rax
  4044c8:	48 89 c7             	mov    %rax,%rdi
  4044cb:	e8 c1 1b 00 00       	callq  406091 <str_isempty>
  4044d0:	85 c0                	test   %eax,%eax
  4044d2:	75 10                	jne    4044e4 <handle_user+0xa0>
  4044d4:	48 8b 45 f8          	mov    -0x8(%rbp),%rax
  4044d8:	48 83 c0 68          	add    $0x68,%rax
  4044dc:	48 89 c7             	mov    %rax,%rdi
  4044df:	e8 0d 1b 00 00       	callq  405ff1 <str_free>
  4044e4:	ba c8 aa 40 00       	mov    $0x40aac8,%edx
  4044e9:	be 4b 01 00 00       	mov    $0x14b,%esi
  4044ee:	bf 00 00 00 00       	mov    $0x0,%edi
  4044f3:	e8 da e4 ff ff       	callq  4029d2 <write_cmd_respond>
  4044f8:	90                   	nop
  4044f9:	c9                   	leaveq 
  4044fa:	c3                   	retq   

00000000004044fb <handle_pass>:
  4044fb:	55                   	push   %rbp
  4044fc:	48 89 e5             	mov    %rsp,%rbp
  4044ff:	48 83 ec 30          	sub    $0x30,%rsp
  404503:	48 89 7d d8          	mov    %rdi,-0x28(%rbp)
  404507:	48 89 75 d0          	mov    %rsi,-0x30(%rbp)
  40450b:	64 48 8b 04 25 28 00 	mov    %fs:0x28,%rax
  404512:	00 00 
  404514:	48 89 45 f8          	mov    %rax,-0x8(%rbp)
  404518:	31 c0                	xor    %eax,%eax
  40451a:	be 0e 00 00 00       	mov    $0xe,%esi
  40451f:	bf e7 aa 40 00       	mov    $0x40aae7,%edi
  404524:	e8 14 51 00 00       	callq  40963d <sysutil_syslog>
  404529:	48 8b 45 d8          	mov    -0x28(%rbp),%rax
  40452d:	48 83 c0 58          	add    $0x58,%rax
  404531:	48 89 c7             	mov    %rax,%rdi
  404534:	e8 58 1b 00 00       	callq  406091 <str_isempty>
  404539:	85 c0                	test   %eax,%eax
  40453b:	74 19                	je     404556 <handle_pass+0x5b>
  40453d:	ba f0 aa 40 00       	mov    $0x40aaf0,%edx
  404542:	be f7 01 00 00       	mov    $0x1f7,%esi
  404547:	bf 00 00 00 00       	mov    $0x0,%edi
  40454c:	e8 81 e4 ff ff       	callq  4029d2 <write_cmd_respond>
  404551:	e9 07 01 00 00       	jmpq   40465d <handle_pass+0x162>
  404556:	48 8b 45 d8          	mov    -0x28(%rbp),%rax
  40455a:	48 83 c0 58          	add    $0x58,%rax
  40455e:	be 0f ab 40 00       	mov    $0x40ab0f,%esi
  404563:	48 89 c7             	mov    %rax,%rdi
  404566:	e8 27 1c 00 00       	callq  406192 <str_equal_text>
  40456b:	85 c0                	test   %eax,%eax
  40456d:	74 0c                	je     40457b <handle_pass+0x80>
  40456f:	48 8b 45 d0          	mov    -0x30(%rbp),%rax
  404573:	48 89 c7             	mov    %rax,%rdi
  404576:	e8 44 1a 00 00       	callq  405fbf <str_empty>
  40457b:	48 c7 45 e0 00 00 00 	movq   $0x0,-0x20(%rbp)
  404582:	00 
  404583:	c7 45 e8 00 00 00 00 	movl   $0x0,-0x18(%rbp)
  40458a:	c7 45 ec 00 00 00 00 	movl   $0x0,-0x14(%rbp)
  404591:	48 8d 45 e0          	lea    -0x20(%rbp),%rax
  404595:	be 01 00 00 00       	mov    $0x1,%esi
  40459a:	48 89 c7             	mov    %rax,%rdi
  40459d:	e8 75 1e 00 00       	callq  406417 <str_append_char>
  4045a2:	48 8d 45 e0          	lea    -0x20(%rbp),%rax
  4045a6:	be 20 00 00 00       	mov    $0x20,%esi
  4045ab:	48 89 c7             	mov    %rax,%rdi
  4045ae:	e8 64 1e 00 00       	callq  406417 <str_append_char>
  4045b3:	48 8b 45 d8          	mov    -0x28(%rbp),%rax
  4045b7:	48 8d 50 58          	lea    0x58(%rax),%rdx
  4045bb:	48 8d 45 e0          	lea    -0x20(%rbp),%rax
  4045bf:	48 89 d6             	mov    %rdx,%rsi
  4045c2:	48 89 c7             	mov    %rax,%rdi
  4045c5:	e8 1c 1c 00 00       	callq  4061e6 <str_append_str>
  4045ca:	48 8d 45 e0          	lea    -0x20(%rbp),%rax
  4045ce:	be 20 00 00 00       	mov    $0x20,%esi
  4045d3:	48 89 c7             	mov    %rax,%rdi
  4045d6:	e8 3c 1e 00 00       	callq  406417 <str_append_char>
  4045db:	48 8b 55 d0          	mov    -0x30(%rbp),%rdx
  4045df:	48 8d 45 e0          	lea    -0x20(%rbp),%rax
  4045e3:	48 89 d6             	mov    %rdx,%rsi
  4045e6:	48 89 c7             	mov    %rax,%rdi
  4045e9:	e8 f8 1b 00 00       	callq  4061e6 <str_append_str>
  4045ee:	be 0e 00 00 00       	mov    $0xe,%esi
  4045f3:	bf 19 ab 40 00       	mov    $0x40ab19,%edi
  4045f8:	e8 40 50 00 00       	callq  40963d <sysutil_syslog>
  4045fd:	48 8b 45 e0          	mov    -0x20(%rbp),%rax
  404601:	be 0e 00 00 00       	mov    $0xe,%esi
  404606:	48 89 c7             	mov    %rax,%rdi
  404609:	e8 2f 50 00 00       	callq  40963d <sysutil_syslog>
  40460e:	48 8b 45 d8          	mov    -0x28(%rbp),%rax
  404612:	8b 80 14 01 00 00    	mov    0x114(%rax),%eax
  404618:	48 8d 55 e0          	lea    -0x20(%rbp),%rdx
  40461c:	48 89 d6             	mov    %rdx,%rsi
  40461f:	89 c7                	mov    %eax,%edi
  404621:	e8 e9 e6 ff ff       	callq  402d0f <write_internal_cmd_request>
  404626:	48 8d 45 e0          	lea    -0x20(%rbp),%rax
  40462a:	48 89 c7             	mov    %rax,%rdi
  40462d:	e8 bf 19 00 00       	callq  405ff1 <str_free>
  404632:	48 8b 45 d8          	mov    -0x28(%rbp),%rax
  404636:	48 89 c7             	mov    %rax,%rdi
  404639:	e8 46 f9 ff ff       	callq  403f84 <deal_parent_respond>
  40463e:	48 8b 45 d8          	mov    -0x28(%rbp),%rax
  404642:	8b 80 30 01 00 00    	mov    0x130(%rax),%eax
  404648:	85 c0                	test   %eax,%eax
  40464a:	75 11                	jne    40465d <handle_pass+0x162>
  40464c:	48 8b 45 d8          	mov    -0x28(%rbp),%rax
  404650:	48 89 c7             	mov    %rax,%rdi
  404653:	b8 00 00 00 00       	mov    $0x0,%eax
  404658:	e8 f1 59 00 00       	callq  40a04e <close_child_context>
  40465d:	48 8b 45 f8          	mov    -0x8(%rbp),%rax
  404661:	64 48 33 04 25 28 00 	xor    %fs:0x28,%rax
  404668:	00 00 
  40466a:	74 05                	je     404671 <handle_pass+0x176>
  40466c:	e8 2f db ff ff       	callq  4021a0 <__stack_chk_fail@plt>
  404671:	c9                   	leaveq 
  404672:	c3                   	retq   

0000000000404673 <handle_abot>:
  404673:	55                   	push   %rbp
  404674:	48 89 e5             	mov    %rsp,%rbp
  404677:	90                   	nop
  404678:	5d                   	pop    %rbp
  404679:	c3                   	retq   

000000000040467a <handle_cdup>:
  40467a:	55                   	push   %rbp
  40467b:	48 89 e5             	mov    %rsp,%rbp
  40467e:	48 83 ec 30          	sub    $0x30,%rsp
  404682:	48 89 7d d8          	mov    %rdi,-0x28(%rbp)
  404686:	64 48 8b 04 25 28 00 	mov    %fs:0x28,%rax
  40468d:	00 00 
  40468f:	48 89 45 f8          	mov    %rax,-0x8(%rbp)
  404693:	31 c0                	xor    %eax,%eax
  404695:	48 c7 45 e0 00 00 00 	movq   $0x0,-0x20(%rbp)
  40469c:	00 
  40469d:	c7 45 e8 00 00 00 00 	movl   $0x0,-0x18(%rbp)
  4046a4:	c7 45 ec 00 00 00 00 	movl   $0x0,-0x14(%rbp)
  4046ab:	48 8d 45 e0          	lea    -0x20(%rbp),%rax
  4046af:	be 0a 00 00 00       	mov    $0xa,%esi
  4046b4:	48 89 c7             	mov    %rax,%rdi
  4046b7:	e8 5b 1d 00 00       	callq  406417 <str_append_char>
  4046bc:	48 8b 45 d8          	mov    -0x28(%rbp),%rax
  4046c0:	8b 80 14 01 00 00    	mov    0x114(%rax),%eax
  4046c6:	48 8d 55 e0          	lea    -0x20(%rbp),%rdx
  4046ca:	48 89 d6             	mov    %rdx,%rsi
  4046cd:	89 c7                	mov    %eax,%edi
  4046cf:	e8 3b e6 ff ff       	callq  402d0f <write_internal_cmd_request>
  4046d4:	48 8d 45 e0          	lea    -0x20(%rbp),%rax
  4046d8:	48 89 c7             	mov    %rax,%rdi
  4046db:	e8 11 19 00 00       	callq  405ff1 <str_free>
  4046e0:	48 8b 45 d8          	mov    -0x28(%rbp),%rax
  4046e4:	48 89 c7             	mov    %rax,%rdi
  4046e7:	e8 98 f8 ff ff       	callq  403f84 <deal_parent_respond>
  4046ec:	90                   	nop
  4046ed:	48 8b 45 f8          	mov    -0x8(%rbp),%rax
  4046f1:	64 48 33 04 25 28 00 	xor    %fs:0x28,%rax
  4046f8:	00 00 
  4046fa:	74 05                	je     404701 <handle_cdup+0x87>
  4046fc:	e8 9f da ff ff       	callq  4021a0 <__stack_chk_fail@plt>
  404701:	c9                   	leaveq 
  404702:	c3                   	retq   

0000000000404703 <handle_type>:
  404703:	55                   	push   %rbp
  404704:	48 89 e5             	mov    %rsp,%rbp
  404707:	48 83 ec 30          	sub    $0x30,%rsp
  40470b:	48 89 7d d8          	mov    %rdi,-0x28(%rbp)
  40470f:	48 89 75 d0          	mov    %rsi,-0x30(%rbp)
  404713:	64 48 8b 04 25 28 00 	mov    %fs:0x28,%rax
  40471a:	00 00 
  40471c:	48 89 45 f8          	mov    %rax,-0x8(%rbp)
  404720:	31 c0                	xor    %eax,%eax
  404722:	48 c7 45 e0 00 00 00 	movq   $0x0,-0x20(%rbp)
  404729:	00 
  40472a:	c7 45 e8 00 00 00 00 	movl   $0x0,-0x18(%rbp)
  404731:	c7 45 ec 00 00 00 00 	movl   $0x0,-0x14(%rbp)
  404738:	48 8d 45 e0          	lea    -0x20(%rbp),%rax
  40473c:	be 07 00 00 00       	mov    $0x7,%esi
  404741:	48 89 c7             	mov    %rax,%rdi
  404744:	e8 ce 1c 00 00       	callq  406417 <str_append_char>
  404749:	48 8d 45 e0          	lea    -0x20(%rbp),%rax
  40474d:	be 20 00 00 00       	mov    $0x20,%esi
  404752:	48 89 c7             	mov    %rax,%rdi
  404755:	e8 bd 1c 00 00       	callq  406417 <str_append_char>
  40475a:	48 8b 55 d0          	mov    -0x30(%rbp),%rdx
  40475e:	48 8d 45 e0          	lea    -0x20(%rbp),%rax
  404762:	48 89 d6             	mov    %rdx,%rsi
  404765:	48 89 c7             	mov    %rax,%rdi
  404768:	e8 79 1a 00 00       	callq  4061e6 <str_append_str>
  40476d:	48 8b 45 d8          	mov    -0x28(%rbp),%rax
  404771:	8b 80 14 01 00 00    	mov    0x114(%rax),%eax
  404777:	48 8d 55 e0          	lea    -0x20(%rbp),%rdx
  40477b:	48 89 d6             	mov    %rdx,%rsi
  40477e:	89 c7                	mov    %eax,%edi
  404780:	e8 8a e5 ff ff       	callq  402d0f <write_internal_cmd_request>
  404785:	48 8d 45 e0          	lea    -0x20(%rbp),%rax
  404789:	48 89 c7             	mov    %rax,%rdi
  40478c:	e8 60 18 00 00       	callq  405ff1 <str_free>
  404791:	48 8b 45 d8          	mov    -0x28(%rbp),%rax
  404795:	48 89 c7             	mov    %rax,%rdi
  404798:	e8 e7 f7 ff ff       	callq  403f84 <deal_parent_respond>
  40479d:	90                   	nop
  40479e:	48 8b 45 f8          	mov    -0x8(%rbp),%rax
  4047a2:	64 48 33 04 25 28 00 	xor    %fs:0x28,%rax
  4047a9:	00 00 
  4047ab:	74 05                	je     4047b2 <handle_type+0xaf>
  4047ad:	e8 ee d9 ff ff       	callq  4021a0 <__stack_chk_fail@plt>
  4047b2:	c9                   	leaveq 
  4047b3:	c3                   	retq   

00000000004047b4 <handle_cwd>:
  4047b4:	55                   	push   %rbp
  4047b5:	48 89 e5             	mov    %rsp,%rbp
  4047b8:	48 83 ec 30          	sub    $0x30,%rsp
  4047bc:	48 89 7d d8          	mov    %rdi,-0x28(%rbp)
  4047c0:	48 89 75 d0          	mov    %rsi,-0x30(%rbp)
  4047c4:	64 48 8b 04 25 28 00 	mov    %fs:0x28,%rax
  4047cb:	00 00 
  4047cd:	48 89 45 f8          	mov    %rax,-0x8(%rbp)
  4047d1:	31 c0                	xor    %eax,%eax
  4047d3:	48 c7 45 e0 00 00 00 	movq   $0x0,-0x20(%rbp)
  4047da:	00 
  4047db:	c7 45 e8 00 00 00 00 	movl   $0x0,-0x18(%rbp)
  4047e2:	c7 45 ec 00 00 00 00 	movl   $0x0,-0x14(%rbp)
  4047e9:	48 8d 45 e0          	lea    -0x20(%rbp),%rax
  4047ed:	be 0b 00 00 00       	mov    $0xb,%esi
  4047f2:	48 89 c7             	mov    %rax,%rdi
  4047f5:	e8 1d 1c 00 00       	callq  406417 <str_append_char>
  4047fa:	48 8d 45 e0          	lea    -0x20(%rbp),%rax
  4047fe:	be 20 00 00 00       	mov    $0x20,%esi
  404803:	48 89 c7             	mov    %rax,%rdi
  404806:	e8 0c 1c 00 00       	callq  406417 <str_append_char>
  40480b:	48 8b 55 d0          	mov    -0x30(%rbp),%rdx
  40480f:	48 8d 45 e0          	lea    -0x20(%rbp),%rax
  404813:	48 89 d6             	mov    %rdx,%rsi
  404816:	48 89 c7             	mov    %rax,%rdi
  404819:	e8 c8 19 00 00       	callq  4061e6 <str_append_str>
  40481e:	48 8b 45 d8          	mov    -0x28(%rbp),%rax
  404822:	8b 80 14 01 00 00    	mov    0x114(%rax),%eax
  404828:	48 8d 55 e0          	lea    -0x20(%rbp),%rdx
  40482c:	48 89 d6             	mov    %rdx,%rsi
  40482f:	89 c7                	mov    %eax,%edi
  404831:	e8 d9 e4 ff ff       	callq  402d0f <write_internal_cmd_request>
  404836:	48 8d 45 e0          	lea    -0x20(%rbp),%rax
  40483a:	48 89 c7             	mov    %rax,%rdi
  40483d:	e8 af 17 00 00       	callq  405ff1 <str_free>
  404842:	48 8b 45 d8          	mov    -0x28(%rbp),%rax
  404846:	48 89 c7             	mov    %rax,%rdi
  404849:	e8 36 f7 ff ff       	callq  403f84 <deal_parent_respond>
  40484e:	90                   	nop
  40484f:	48 8b 45 f8          	mov    -0x8(%rbp),%rax
  404853:	64 48 33 04 25 28 00 	xor    %fs:0x28,%rax
  40485a:	00 00 
  40485c:	74 05                	je     404863 <handle_cwd+0xaf>
  40485e:	e8 3d d9 ff ff       	callq  4021a0 <__stack_chk_fail@plt>
  404863:	c9                   	leaveq 
  404864:	c3                   	retq   

0000000000404865 <handle_pwd>:
  404865:	55                   	push   %rbp
  404866:	48 89 e5             	mov    %rsp,%rbp
  404869:	48 83 ec 30          	sub    $0x30,%rsp
  40486d:	48 89 7d d8          	mov    %rdi,-0x28(%rbp)
  404871:	64 48 8b 04 25 28 00 	mov    %fs:0x28,%rax
  404878:	00 00 
  40487a:	48 89 45 f8          	mov    %rax,-0x8(%rbp)
  40487e:	31 c0                	xor    %eax,%eax
  404880:	48 c7 45 e0 00 00 00 	movq   $0x0,-0x20(%rbp)
  404887:	00 
  404888:	c7 45 e8 00 00 00 00 	movl   $0x0,-0x18(%rbp)
  40488f:	c7 45 ec 00 00 00 00 	movl   $0x0,-0x14(%rbp)
  404896:	48 8d 45 e0          	lea    -0x20(%rbp),%rax
  40489a:	be 02 00 00 00       	mov    $0x2,%esi
  40489f:	48 89 c7             	mov    %rax,%rdi
  4048a2:	e8 70 1b 00 00       	callq  406417 <str_append_char>
  4048a7:	48 8b 45 d8          	mov    -0x28(%rbp),%rax
  4048ab:	8b 80 14 01 00 00    	mov    0x114(%rax),%eax
  4048b1:	48 8d 55 e0          	lea    -0x20(%rbp),%rdx
  4048b5:	48 89 d6             	mov    %rdx,%rsi
  4048b8:	89 c7                	mov    %eax,%edi
  4048ba:	e8 50 e4 ff ff       	callq  402d0f <write_internal_cmd_request>
  4048bf:	48 8d 45 e0          	lea    -0x20(%rbp),%rax
  4048c3:	48 89 c7             	mov    %rax,%rdi
  4048c6:	e8 26 17 00 00       	callq  405ff1 <str_free>
  4048cb:	48 8b 45 d8          	mov    -0x28(%rbp),%rax
  4048cf:	48 89 c7             	mov    %rax,%rdi
  4048d2:	e8 ad f6 ff ff       	callq  403f84 <deal_parent_respond>
  4048d7:	90                   	nop
  4048d8:	48 8b 45 f8          	mov    -0x8(%rbp),%rax
  4048dc:	64 48 33 04 25 28 00 	xor    %fs:0x28,%rax
  4048e3:	00 00 
  4048e5:	74 05                	je     4048ec <handle_pwd+0x87>
  4048e7:	e8 b4 d8 ff ff       	callq  4021a0 <__stack_chk_fail@plt>
  4048ec:	c9                   	leaveq 
  4048ed:	c3                   	retq   

00000000004048ee <handle_dele>:
  4048ee:	55                   	push   %rbp
  4048ef:	48 89 e5             	mov    %rsp,%rbp
  4048f2:	90                   	nop
  4048f3:	5d                   	pop    %rbp
  4048f4:	c3                   	retq   

00000000004048f5 <handle_help>:
  4048f5:	55                   	push   %rbp
  4048f6:	48 89 e5             	mov    %rsp,%rbp
  4048f9:	90                   	nop
  4048fa:	5d                   	pop    %rbp
  4048fb:	c3                   	retq   

00000000004048fc <handle_list>:
  4048fc:	55                   	push   %rbp
  4048fd:	48 89 e5             	mov    %rsp,%rbp
  404900:	48 83 ec 30          	sub    $0x30,%rsp
  404904:	48 89 7d d8          	mov    %rdi,-0x28(%rbp)
  404908:	64 48 8b 04 25 28 00 	mov    %fs:0x28,%rax
  40490f:	00 00 
  404911:	48 89 45 f8          	mov    %rax,-0x8(%rbp)
  404915:	31 c0                	xor    %eax,%eax
  404917:	48 c7 45 e0 00 00 00 	movq   $0x0,-0x20(%rbp)
  40491e:	00 
  40491f:	c7 45 e8 00 00 00 00 	movl   $0x0,-0x18(%rbp)
  404926:	c7 45 ec 00 00 00 00 	movl   $0x0,-0x14(%rbp)
  40492d:	48 8d 45 e0          	lea    -0x20(%rbp),%rax
  404931:	be 0d 00 00 00       	mov    $0xd,%esi
  404936:	48 89 c7             	mov    %rax,%rdi
  404939:	e8 d9 1a 00 00       	callq  406417 <str_append_char>
  40493e:	48 8b 45 d8          	mov    -0x28(%rbp),%rax
  404942:	8b 80 14 01 00 00    	mov    0x114(%rax),%eax
  404948:	48 8d 55 e0          	lea    -0x20(%rbp),%rdx
  40494c:	48 89 d6             	mov    %rdx,%rsi
  40494f:	89 c7                	mov    %eax,%edi
  404951:	e8 b9 e3 ff ff       	callq  402d0f <write_internal_cmd_request>
  404956:	48 8d 45 e0          	lea    -0x20(%rbp),%rax
  40495a:	48 89 c7             	mov    %rax,%rdi
  40495d:	e8 8f 16 00 00       	callq  405ff1 <str_free>
  404962:	ba 28 ab 40 00       	mov    $0x40ab28,%edx
  404967:	be 96 00 00 00       	mov    $0x96,%esi
  40496c:	bf 00 00 00 00       	mov    $0x0,%edi
  404971:	e8 5c e0 ff ff       	callq  4029d2 <write_cmd_respond>
  404976:	48 8b 45 d8          	mov    -0x28(%rbp),%rax
  40497a:	48 89 c7             	mov    %rax,%rdi
  40497d:	e8 02 f6 ff ff       	callq  403f84 <deal_parent_respond>
  404982:	90                   	nop
  404983:	48 8b 45 f8          	mov    -0x8(%rbp),%rax
  404987:	64 48 33 04 25 28 00 	xor    %fs:0x28,%rax
  40498e:	00 00 
  404990:	74 05                	je     404997 <handle_list+0x9b>
  404992:	e8 09 d8 ff ff       	callq  4021a0 <__stack_chk_fail@plt>
  404997:	c9                   	leaveq 
  404998:	c3                   	retq   

0000000000404999 <handle_mkd>:
  404999:	55                   	push   %rbp
  40499a:	48 89 e5             	mov    %rsp,%rbp
  40499d:	48 89 7d f8          	mov    %rdi,-0x8(%rbp)
  4049a1:	48 89 75 f0          	mov    %rsi,-0x10(%rbp)
  4049a5:	90                   	nop
  4049a6:	5d                   	pop    %rbp
  4049a7:	c3                   	retq   

00000000004049a8 <handle_mode>:
  4049a8:	55                   	push   %rbp
  4049a9:	48 89 e5             	mov    %rsp,%rbp
  4049ac:	90                   	nop
  4049ad:	5d                   	pop    %rbp
  4049ae:	c3                   	retq   

00000000004049af <handle_noop>:
  4049af:	55                   	push   %rbp
  4049b0:	48 89 e5             	mov    %rsp,%rbp
  4049b3:	90                   	nop
  4049b4:	5d                   	pop    %rbp
  4049b5:	c3                   	retq   

00000000004049b6 <handle_size>:
  4049b6:	55                   	push   %rbp
  4049b7:	48 89 e5             	mov    %rsp,%rbp
  4049ba:	48 83 ec 30          	sub    $0x30,%rsp
  4049be:	48 89 7d d8          	mov    %rdi,-0x28(%rbp)
  4049c2:	48 89 75 d0          	mov    %rsi,-0x30(%rbp)
  4049c6:	64 48 8b 04 25 28 00 	mov    %fs:0x28,%rax
  4049cd:	00 00 
  4049cf:	48 89 45 f8          	mov    %rax,-0x8(%rbp)
  4049d3:	31 c0                	xor    %eax,%eax
  4049d5:	48 c7 45 e0 00 00 00 	movq   $0x0,-0x20(%rbp)
  4049dc:	00 
  4049dd:	c7 45 e8 00 00 00 00 	movl   $0x0,-0x18(%rbp)
  4049e4:	c7 45 ec 00 00 00 00 	movl   $0x0,-0x14(%rbp)
  4049eb:	48 8d 45 e0          	lea    -0x20(%rbp),%rax
  4049ef:	be 08 00 00 00       	mov    $0x8,%esi
  4049f4:	48 89 c7             	mov    %rax,%rdi
  4049f7:	e8 1b 1a 00 00       	callq  406417 <str_append_char>
  4049fc:	48 8d 45 e0          	lea    -0x20(%rbp),%rax
  404a00:	be 20 00 00 00       	mov    $0x20,%esi
  404a05:	48 89 c7             	mov    %rax,%rdi
  404a08:	e8 0a 1a 00 00       	callq  406417 <str_append_char>
  404a0d:	48 8b 55 d0          	mov    -0x30(%rbp),%rdx
  404a11:	48 8d 45 e0          	lea    -0x20(%rbp),%rax
  404a15:	48 89 d6             	mov    %rdx,%rsi
  404a18:	48 89 c7             	mov    %rax,%rdi
  404a1b:	e8 c6 17 00 00       	callq  4061e6 <str_append_str>
  404a20:	48 8b 45 d8          	mov    -0x28(%rbp),%rax
  404a24:	8b 80 14 01 00 00    	mov    0x114(%rax),%eax
  404a2a:	48 8d 55 e0          	lea    -0x20(%rbp),%rdx
  404a2e:	48 89 d6             	mov    %rdx,%rsi
  404a31:	89 c7                	mov    %eax,%edi
  404a33:	e8 d7 e2 ff ff       	callq  402d0f <write_internal_cmd_request>
  404a38:	48 8d 45 e0          	lea    -0x20(%rbp),%rax
  404a3c:	48 89 c7             	mov    %rax,%rdi
  404a3f:	e8 ad 15 00 00       	callq  405ff1 <str_free>
  404a44:	48 8b 45 d8          	mov    -0x28(%rbp),%rax
  404a48:	48 89 c7             	mov    %rax,%rdi
  404a4b:	e8 34 f5 ff ff       	callq  403f84 <deal_parent_respond>
  404a50:	90                   	nop
  404a51:	48 8b 45 f8          	mov    -0x8(%rbp),%rax
  404a55:	64 48 33 04 25 28 00 	xor    %fs:0x28,%rax
  404a5c:	00 00 
  404a5e:	74 05                	je     404a65 <handle_size+0xaf>
  404a60:	e8 3b d7 ff ff       	callq  4021a0 <__stack_chk_fail@plt>
  404a65:	c9                   	leaveq 
  404a66:	c3                   	retq   

0000000000404a67 <handle_mdtm>:
  404a67:	55                   	push   %rbp
  404a68:	48 89 e5             	mov    %rsp,%rbp
  404a6b:	48 83 ec 30          	sub    $0x30,%rsp
  404a6f:	48 89 7d d8          	mov    %rdi,-0x28(%rbp)
  404a73:	48 89 75 d0          	mov    %rsi,-0x30(%rbp)
  404a77:	64 48 8b 04 25 28 00 	mov    %fs:0x28,%rax
  404a7e:	00 00 
  404a80:	48 89 45 f8          	mov    %rax,-0x8(%rbp)
  404a84:	31 c0                	xor    %eax,%eax
  404a86:	48 c7 45 e0 00 00 00 	movq   $0x0,-0x20(%rbp)
  404a8d:	00 
  404a8e:	c7 45 e8 00 00 00 00 	movl   $0x0,-0x18(%rbp)
  404a95:	c7 45 ec 00 00 00 00 	movl   $0x0,-0x14(%rbp)
  404a9c:	48 8d 45 e0          	lea    -0x20(%rbp),%rax
  404aa0:	be 09 00 00 00       	mov    $0x9,%esi
  404aa5:	48 89 c7             	mov    %rax,%rdi
  404aa8:	e8 6a 19 00 00       	callq  406417 <str_append_char>
  404aad:	48 8d 45 e0          	lea    -0x20(%rbp),%rax
  404ab1:	be 20 00 00 00       	mov    $0x20,%esi
  404ab6:	48 89 c7             	mov    %rax,%rdi
  404ab9:	e8 59 19 00 00       	callq  406417 <str_append_char>
  404abe:	48 8b 55 d0          	mov    -0x30(%rbp),%rdx
  404ac2:	48 8d 45 e0          	lea    -0x20(%rbp),%rax
  404ac6:	48 89 d6             	mov    %rdx,%rsi
  404ac9:	48 89 c7             	mov    %rax,%rdi
  404acc:	e8 15 17 00 00       	callq  4061e6 <str_append_str>
  404ad1:	48 8b 45 d8          	mov    -0x28(%rbp),%rax
  404ad5:	8b 80 14 01 00 00    	mov    0x114(%rax),%eax
  404adb:	48 8d 55 e0          	lea    -0x20(%rbp),%rdx
  404adf:	48 89 d6             	mov    %rdx,%rsi
  404ae2:	89 c7                	mov    %eax,%edi
  404ae4:	e8 26 e2 ff ff       	callq  402d0f <write_internal_cmd_request>
  404ae9:	48 8d 45 e0          	lea    -0x20(%rbp),%rax
  404aed:	48 89 c7             	mov    %rax,%rdi
  404af0:	e8 fc 14 00 00       	callq  405ff1 <str_free>
  404af5:	48 8b 45 d8          	mov    -0x28(%rbp),%rax
  404af9:	48 89 c7             	mov    %rax,%rdi
  404afc:	e8 83 f4 ff ff       	callq  403f84 <deal_parent_respond>
  404b01:	90                   	nop
  404b02:	48 8b 45 f8          	mov    -0x8(%rbp),%rax
  404b06:	64 48 33 04 25 28 00 	xor    %fs:0x28,%rax
  404b0d:	00 00 
  404b0f:	74 05                	je     404b16 <handle_mdtm+0xaf>
  404b11:	e8 8a d6 ff ff       	callq  4021a0 <__stack_chk_fail@plt>
  404b16:	c9                   	leaveq 
  404b17:	c3                   	retq   

0000000000404b18 <handle_port>:
  404b18:	55                   	push   %rbp
  404b19:	48 89 e5             	mov    %rsp,%rbp
  404b1c:	48 83 ec 30          	sub    $0x30,%rsp
  404b20:	48 89 7d d8          	mov    %rdi,-0x28(%rbp)
  404b24:	48 89 75 d0          	mov    %rsi,-0x30(%rbp)
  404b28:	64 48 8b 04 25 28 00 	mov    %fs:0x28,%rax
  404b2f:	00 00 
  404b31:	48 89 45 f8          	mov    %rax,-0x8(%rbp)
  404b35:	31 c0                	xor    %eax,%eax
  404b37:	48 c7 45 e0 00 00 00 	movq   $0x0,-0x20(%rbp)
  404b3e:	00 
  404b3f:	c7 45 e8 00 00 00 00 	movl   $0x0,-0x18(%rbp)
  404b46:	c7 45 ec 00 00 00 00 	movl   $0x0,-0x14(%rbp)
  404b4d:	48 8d 45 e0          	lea    -0x20(%rbp),%rax
  404b51:	be 03 00 00 00       	mov    $0x3,%esi
  404b56:	48 89 c7             	mov    %rax,%rdi
  404b59:	e8 b9 18 00 00       	callq  406417 <str_append_char>
  404b5e:	48 8d 45 e0          	lea    -0x20(%rbp),%rax
  404b62:	be 20 00 00 00       	mov    $0x20,%esi
  404b67:	48 89 c7             	mov    %rax,%rdi
  404b6a:	e8 a8 18 00 00       	callq  406417 <str_append_char>
  404b6f:	48 8b 55 d0          	mov    -0x30(%rbp),%rdx
  404b73:	48 8d 45 e0          	lea    -0x20(%rbp),%rax
  404b77:	48 89 d6             	mov    %rdx,%rsi
  404b7a:	48 89 c7             	mov    %rax,%rdi
  404b7d:	e8 64 16 00 00       	callq  4061e6 <str_append_str>
  404b82:	48 8b 45 d8          	mov    -0x28(%rbp),%rax
  404b86:	8b 80 14 01 00 00    	mov    0x114(%rax),%eax
  404b8c:	48 8d 55 e0          	lea    -0x20(%rbp),%rdx
  404b90:	48 89 d6             	mov    %rdx,%rsi
  404b93:	89 c7                	mov    %eax,%edi
  404b95:	e8 75 e1 ff ff       	callq  402d0f <write_internal_cmd_request>
  404b9a:	48 8b 45 d0          	mov    -0x30(%rbp),%rax
  404b9e:	48 89 c7             	mov    %rax,%rdi
  404ba1:	e8 4b 14 00 00       	callq  405ff1 <str_free>
  404ba6:	48 8b 45 d8          	mov    -0x28(%rbp),%rax
  404baa:	48 89 c7             	mov    %rax,%rdi
  404bad:	e8 d2 f3 ff ff       	callq  403f84 <deal_parent_respond>
  404bb2:	90                   	nop
  404bb3:	48 8b 45 f8          	mov    -0x8(%rbp),%rax
  404bb7:	64 48 33 04 25 28 00 	xor    %fs:0x28,%rax
  404bbe:	00 00 
  404bc0:	74 05                	je     404bc7 <handle_port+0xaf>
  404bc2:	e8 d9 d5 ff ff       	callq  4021a0 <__stack_chk_fail@plt>
  404bc7:	c9                   	leaveq 
  404bc8:	c3                   	retq   

0000000000404bc9 <handle_quit>:
  404bc9:	55                   	push   %rbp
  404bca:	48 89 e5             	mov    %rsp,%rbp
  404bcd:	ba 4b ab 40 00       	mov    $0x40ab4b,%edx
  404bd2:	be dd 00 00 00       	mov    $0xdd,%esi
  404bd7:	bf 00 00 00 00       	mov    $0x0,%edi
  404bdc:	e8 f1 dd ff ff       	callq  4029d2 <write_cmd_respond>
  404be1:	bf 00 00 00 00       	mov    $0x0,%edi
  404be6:	e8 55 34 00 00       	callq  408040 <sysutil_exit>
  404beb:	90                   	nop
  404bec:	5d                   	pop    %rbp
  404bed:	c3                   	retq   

0000000000404bee <handle_rest>:
  404bee:	55                   	push   %rbp
  404bef:	48 89 e5             	mov    %rsp,%rbp
  404bf2:	48 89 7d f8          	mov    %rdi,-0x8(%rbp)
  404bf6:	48 89 75 f0          	mov    %rsi,-0x10(%rbp)
  404bfa:	90                   	nop
  404bfb:	5d                   	pop    %rbp
  404bfc:	c3                   	retq   

0000000000404bfd <handle_retr>:
  404bfd:	55                   	push   %rbp
  404bfe:	48 89 e5             	mov    %rsp,%rbp
  404c01:	48 83 ec 30          	sub    $0x30,%rsp
  404c05:	48 89 7d d8          	mov    %rdi,-0x28(%rbp)
  404c09:	48 89 75 d0          	mov    %rsi,-0x30(%rbp)
  404c0d:	64 48 8b 04 25 28 00 	mov    %fs:0x28,%rax
  404c14:	00 00 
  404c16:	48 89 45 f8          	mov    %rax,-0x8(%rbp)
  404c1a:	31 c0                	xor    %eax,%eax
  404c1c:	48 c7 45 e0 00 00 00 	movq   $0x0,-0x20(%rbp)
  404c23:	00 
  404c24:	c7 45 e8 00 00 00 00 	movl   $0x0,-0x18(%rbp)
  404c2b:	c7 45 ec 00 00 00 00 	movl   $0x0,-0x14(%rbp)
  404c32:	48 8d 45 e0          	lea    -0x20(%rbp),%rax
  404c36:	be 04 00 00 00       	mov    $0x4,%esi
  404c3b:	48 89 c7             	mov    %rax,%rdi
  404c3e:	e8 d4 17 00 00       	callq  406417 <str_append_char>
  404c43:	48 8d 45 e0          	lea    -0x20(%rbp),%rax
  404c47:	be 20 00 00 00       	mov    $0x20,%esi
  404c4c:	48 89 c7             	mov    %rax,%rdi
  404c4f:	e8 c3 17 00 00       	callq  406417 <str_append_char>
  404c54:	48 8b 55 d0          	mov    -0x30(%rbp),%rdx
  404c58:	48 8d 45 e0          	lea    -0x20(%rbp),%rax
  404c5c:	48 89 d6             	mov    %rdx,%rsi
  404c5f:	48 89 c7             	mov    %rax,%rdi
  404c62:	e8 7f 15 00 00       	callq  4061e6 <str_append_str>
  404c67:	48 8b 45 d8          	mov    -0x28(%rbp),%rax
  404c6b:	8b 80 14 01 00 00    	mov    0x114(%rax),%eax
  404c71:	48 8d 55 e0          	lea    -0x20(%rbp),%rdx
  404c75:	48 89 d6             	mov    %rdx,%rsi
  404c78:	89 c7                	mov    %eax,%edi
  404c7a:	e8 90 e0 ff ff       	callq  402d0f <write_internal_cmd_request>
  404c7f:	48 8b 45 d0          	mov    -0x30(%rbp),%rax
  404c83:	48 89 c7             	mov    %rax,%rdi
  404c86:	e8 66 13 00 00       	callq  405ff1 <str_free>
  404c8b:	48 8b 45 d8          	mov    -0x28(%rbp),%rax
  404c8f:	48 89 c7             	mov    %rax,%rdi
  404c92:	e8 ed f2 ff ff       	callq  403f84 <deal_parent_respond>
  404c97:	90                   	nop
  404c98:	48 8b 45 f8          	mov    -0x8(%rbp),%rax
  404c9c:	64 48 33 04 25 28 00 	xor    %fs:0x28,%rax
  404ca3:	00 00 
  404ca5:	74 05                	je     404cac <handle_retr+0xaf>
  404ca7:	e8 f4 d4 ff ff       	callq  4021a0 <__stack_chk_fail@plt>
  404cac:	c9                   	leaveq 
  404cad:	c3                   	retq   

0000000000404cae <handle_rmd>:
  404cae:	55                   	push   %rbp
  404caf:	48 89 e5             	mov    %rsp,%rbp
  404cb2:	48 89 7d f8          	mov    %rdi,-0x8(%rbp)
  404cb6:	48 89 75 f0          	mov    %rsi,-0x10(%rbp)
  404cba:	90                   	nop
  404cbb:	5d                   	pop    %rbp
  404cbc:	c3                   	retq   

0000000000404cbd <handle_rnfr>:
  404cbd:	55                   	push   %rbp
  404cbe:	48 89 e5             	mov    %rsp,%rbp
  404cc1:	48 89 7d f8          	mov    %rdi,-0x8(%rbp)
  404cc5:	48 89 75 f0          	mov    %rsi,-0x10(%rbp)
  404cc9:	90                   	nop
  404cca:	5d                   	pop    %rbp
  404ccb:	c3                   	retq   

0000000000404ccc <handle_stor>:
  404ccc:	55                   	push   %rbp
  404ccd:	48 89 e5             	mov    %rsp,%rbp
  404cd0:	48 89 7d f8          	mov    %rdi,-0x8(%rbp)
  404cd4:	48 89 75 f0          	mov    %rsi,-0x10(%rbp)
  404cd8:	90                   	nop
  404cd9:	5d                   	pop    %rbp
  404cda:	c3                   	retq   

0000000000404cdb <handle_stou>:
  404cdb:	55                   	push   %rbp
  404cdc:	48 89 e5             	mov    %rsp,%rbp
  404cdf:	48 89 7d f8          	mov    %rdi,-0x8(%rbp)
  404ce3:	48 89 75 f0          	mov    %rsi,-0x10(%rbp)
  404ce7:	90                   	nop
  404ce8:	5d                   	pop    %rbp
  404ce9:	c3                   	retq   

0000000000404cea <handle_appe>:
  404cea:	55                   	push   %rbp
  404ceb:	48 89 e5             	mov    %rsp,%rbp
  404cee:	48 89 7d f8          	mov    %rdi,-0x8(%rbp)
  404cf2:	48 89 75 f0          	mov    %rsi,-0x10(%rbp)
  404cf6:	90                   	nop
  404cf7:	5d                   	pop    %rbp
  404cf8:	c3                   	retq   

0000000000404cf9 <handle_syst>:
  404cf9:	55                   	push   %rbp
  404cfa:	48 89 e5             	mov    %rsp,%rbp
  404cfd:	48 83 ec 40          	sub    $0x40,%rsp
  404d01:	48 89 7d c8          	mov    %rdi,-0x38(%rbp)
  404d05:	64 48 8b 04 25 28 00 	mov    %fs:0x28,%rax
  404d0c:	00 00 
  404d0e:	48 89 45 f8          	mov    %rax,-0x8(%rbp)
  404d12:	31 c0                	xor    %eax,%eax
  404d14:	48 8b 45 c8          	mov    -0x38(%rbp),%rax
  404d18:	8b 80 30 01 00 00    	mov    0x130(%rax),%eax
  404d1e:	85 c0                	test   %eax,%eax
  404d20:	0f 85 8b 00 00 00    	jne    404db1 <handle_syst+0xb8>
  404d26:	48 c7 45 e0 00 00 00 	movq   $0x0,-0x20(%rbp)
  404d2d:	00 
  404d2e:	c7 45 e8 00 00 00 00 	movl   $0x0,-0x18(%rbp)
  404d35:	c7 45 ec 00 00 00 00 	movl   $0x0,-0x14(%rbp)
  404d3c:	48 8d 45 e0          	lea    -0x20(%rbp),%rax
  404d40:	be 55 ab 40 00       	mov    $0x40ab55,%esi
  404d45:	48 89 c7             	mov    %rax,%rdi
  404d48:	e8 6f 10 00 00       	callq  405dbc <str_alloc_text>
  404d4d:	48 8d 45 e0          	lea    -0x20(%rbp),%rax
  404d51:	be 55 ab 40 00       	mov    $0x40ab55,%esi
  404d56:	48 89 c7             	mov    %rax,%rdi
  404d59:	e8 5e 10 00 00       	callq  405dbc <str_alloc_text>
  404d5e:	c6 45 df 38          	movb   $0x38,-0x21(%rbp)
  404d62:	0f be 55 df          	movsbl -0x21(%rbp),%edx
  404d66:	48 8d 45 e0          	lea    -0x20(%rbp),%rax
  404d6a:	89 d6                	mov    %edx,%esi
  404d6c:	48 89 c7             	mov    %rax,%rdi
  404d6f:	e8 a3 16 00 00       	callq  406417 <str_append_char>
  404d74:	48 8d 45 e0          	lea    -0x20(%rbp),%rax
  404d78:	be 0a 00 00 00       	mov    $0xa,%esi
  404d7d:	48 89 c7             	mov    %rax,%rdi
  404d80:	e8 92 16 00 00       	callq  406417 <str_append_char>
  404d85:	48 8b 45 e0          	mov    -0x20(%rbp),%rax
  404d89:	48 89 c2             	mov    %rax,%rdx
  404d8c:	be d7 00 00 00       	mov    $0xd7,%esi
  404d91:	bf 00 00 00 00       	mov    $0x0,%edi
  404d96:	e8 37 dc ff ff       	callq  4029d2 <write_cmd_respond>
  404d9b:	48 8d 45 e0          	lea    -0x20(%rbp),%rax
  404d9f:	48 89 c7             	mov    %rax,%rdi
  404da2:	e8 4a 12 00 00       	callq  405ff1 <str_free>
  404da7:	bf 00 00 00 00       	mov    $0x0,%edi
  404dac:	e8 8f 32 00 00       	callq  408040 <sysutil_exit>
  404db1:	ba 68 ab 40 00       	mov    $0x40ab68,%edx
  404db6:	be 12 02 00 00       	mov    $0x212,%esi
  404dbb:	bf 00 00 00 00       	mov    $0x0,%edi
  404dc0:	e8 0d dc ff ff       	callq  4029d2 <write_cmd_respond>
  404dc5:	90                   	nop
  404dc6:	48 8b 45 f8          	mov    -0x8(%rbp),%rax
  404dca:	64 48 33 04 25 28 00 	xor    %fs:0x28,%rax
  404dd1:	00 00 
  404dd3:	74 05                	je     404dda <handle_syst+0xe1>
  404dd5:	e8 c6 d3 ff ff       	callq  4021a0 <__stack_chk_fail@plt>
  404dda:	c9                   	leaveq 
  404ddb:	c3                   	retq   

0000000000404ddc <max_align>:
  404ddc:	55                   	push   %rbp
  404ddd:	48 89 e5             	mov    %rsp,%rbp
  404de0:	89 7d ec             	mov    %edi,-0x14(%rbp)
  404de3:	89 75 e8             	mov    %esi,-0x18(%rbp)
  404de6:	8b 45 e8             	mov    -0x18(%rbp),%eax
  404de9:	89 45 f8             	mov    %eax,-0x8(%rbp)
  404dec:	c7 45 fc 00 00 00 00 	movl   $0x0,-0x4(%rbp)
  404df3:	eb 1f                	jmp    404e14 <max_align+0x38>
  404df5:	8b 4d f8             	mov    -0x8(%rbp),%ecx
  404df8:	ba 67 66 66 66       	mov    $0x66666667,%edx
  404dfd:	89 c8                	mov    %ecx,%eax
  404dff:	f7 ea                	imul   %edx
  404e01:	c1 fa 02             	sar    $0x2,%edx
  404e04:	89 c8                	mov    %ecx,%eax
  404e06:	c1 f8 1f             	sar    $0x1f,%eax
  404e09:	29 c2                	sub    %eax,%edx
  404e0b:	89 d0                	mov    %edx,%eax
  404e0d:	89 45 f8             	mov    %eax,-0x8(%rbp)
  404e10:	83 45 fc 01          	addl   $0x1,-0x4(%rbp)
  404e14:	83 7d f8 00          	cmpl   $0x0,-0x8(%rbp)
  404e18:	7f db                	jg     404df5 <max_align+0x19>
  404e1a:	8b 45 ec             	mov    -0x14(%rbp),%eax
  404e1d:	39 45 fc             	cmp    %eax,-0x4(%rbp)
  404e20:	0f 4d 45 fc          	cmovge -0x4(%rbp),%eax
  404e24:	5d                   	pop    %rbp
  404e25:	c3                   	retq   

0000000000404e26 <util_ls>:
  404e26:	55                   	push   %rbp
  404e27:	48 89 e5             	mov    %rsp,%rbp
  404e2a:	48 81 ec b0 00 00 00 	sub    $0xb0,%rsp
  404e31:	89 bd 5c ff ff ff    	mov    %edi,-0xa4(%rbp)
  404e37:	48 89 b5 50 ff ff ff 	mov    %rsi,-0xb0(%rbp)
  404e3e:	64 48 8b 04 25 28 00 	mov    %fs:0x28,%rax
  404e45:	00 00 
  404e47:	48 89 45 f8          	mov    %rax,-0x8(%rbp)
  404e4b:	31 c0                	xor    %eax,%eax
  404e4d:	66 0f ef c0          	pxor   %xmm0,%xmm0
  404e51:	f2 0f 11 85 70 ff ff 	movsd  %xmm0,-0x90(%rbp)
  404e58:	ff 
  404e59:	c7 85 64 ff ff ff 00 	movl   $0x0,-0x9c(%rbp)
  404e60:	00 00 00 
  404e63:	bf 0b 00 00 00       	mov    $0xb,%edi
  404e68:	e8 f6 30 00 00       	callq  407f63 <sysutil_malloc>
  404e6d:	48 89 85 78 ff ff ff 	mov    %rax,-0x88(%rbp)
  404e74:	bf 00 01 00 00       	mov    $0x100,%edi
  404e79:	e8 e5 30 00 00       	callq  407f63 <sysutil_malloc>
  404e7e:	48 89 45 80          	mov    %rax,-0x80(%rbp)
  404e82:	48 8b 85 50 ff ff ff 	mov    -0xb0(%rbp),%rax
  404e89:	be 0e 00 00 00       	mov    $0xe,%esi
  404e8e:	48 89 c7             	mov    %rax,%rdi
  404e91:	e8 a7 47 00 00       	callq  40963d <sysutil_syslog>
  404e96:	48 8b 85 50 ff ff ff 	mov    -0xb0(%rbp),%rax
  404e9d:	be 00 00 00 00       	mov    $0x0,%esi
  404ea2:	48 89 c7             	mov    %rax,%rdi
  404ea5:	e8 c6 d6 ff ff       	callq  402570 <access@plt>
  404eaa:	85 c0                	test   %eax,%eax
  404eac:	75 1e                	jne    404ecc <util_ls+0xa6>
  404eae:	48 8b 85 50 ff ff ff 	mov    -0xb0(%rbp),%rax
  404eb5:	48 89 c7             	mov    %rax,%rdi
  404eb8:	e8 18 28 00 00       	callq  4076d5 <sysutil_opendir>
  404ebd:	48 89 45 88          	mov    %rax,-0x78(%rbp)
  404ec1:	48 83 7d 88 00       	cmpq   $0x0,-0x78(%rbp)
  404ec6:	0f 85 e7 02 00 00    	jne    4051b3 <util_ls+0x38d>
  404ecc:	b8 00 00 00 00       	mov    $0x0,%eax
  404ed1:	e9 38 03 00 00       	jmpq   40520e <util_ls+0x3e8>
  404ed6:	48 8b 45 90          	mov    -0x70(%rbp),%rax
  404eda:	be 90 ab 40 00       	mov    $0x40ab90,%esi
  404edf:	48 89 c7             	mov    %rax,%rdi
  404ee2:	e8 59 d4 ff ff       	callq  402340 <strcmp@plt>
  404ee7:	85 c0                	test   %eax,%eax
  404ee9:	0f 84 c4 02 00 00    	je     4051b3 <util_ls+0x38d>
  404eef:	48 8b 45 90          	mov    -0x70(%rbp),%rax
  404ef3:	be 92 ab 40 00       	mov    $0x40ab92,%esi
  404ef8:	48 89 c7             	mov    %rax,%rdi
  404efb:	e8 40 d4 ff ff       	callq  402340 <strcmp@plt>
  404f00:	85 c0                	test   %eax,%eax
  404f02:	0f 84 ab 02 00 00    	je     4051b3 <util_ls+0x38d>
  404f08:	48 8b 45 90          	mov    -0x70(%rbp),%rax
  404f0c:	0f b6 00             	movzbl (%rax),%eax
  404f0f:	3c 2e                	cmp    $0x2e,%al
  404f11:	75 05                	jne    404f18 <util_ls+0xf2>
  404f13:	e9 9b 02 00 00       	jmpq   4051b3 <util_ls+0x38d>
  404f18:	48 8b 85 78 ff ff ff 	mov    -0x88(%rbp),%rax
  404f1f:	ba 0b 00 00 00       	mov    $0xb,%edx
  404f24:	be 00 00 00 00       	mov    $0x0,%esi
  404f29:	48 89 c7             	mov    %rax,%rdi
  404f2c:	e8 0f d3 ff ff       	callq  402240 <memset@plt>
  404f31:	48 8d 95 68 ff ff ff 	lea    -0x98(%rbp),%rdx
  404f38:	48 8b 45 90          	mov    -0x70(%rbp),%rax
  404f3c:	48 89 d6             	mov    %rdx,%rsi
  404f3f:	48 89 c7             	mov    %rax,%rdi
  404f42:	e8 14 2c 00 00       	callq  407b5b <sysutil_stat>
  404f47:	85 c0                	test   %eax,%eax
  404f49:	0f 85 64 02 00 00    	jne    4051b3 <util_ls+0x38d>
  404f4f:	48 8b 85 78 ff ff ff 	mov    -0x88(%rbp),%rax
  404f56:	ba 0a 00 00 00       	mov    $0xa,%edx
  404f5b:	be 95 ab 40 00       	mov    $0x40ab95,%esi
  404f60:	48 89 c7             	mov    %rax,%rdi
  404f63:	e8 28 d4 ff ff       	callq  402390 <memcpy@plt>
  404f68:	48 8b 85 68 ff ff ff 	mov    -0x98(%rbp),%rax
  404f6f:	8b 40 18             	mov    0x18(%rax),%eax
  404f72:	25 00 f0 00 00       	and    $0xf000,%eax
  404f77:	3d 00 40 00 00       	cmp    $0x4000,%eax
  404f7c:	75 0c                	jne    404f8a <util_ls+0x164>
  404f7e:	48 8b 85 78 ff ff ff 	mov    -0x88(%rbp),%rax
  404f85:	c6 00 64             	movb   $0x64,(%rax)
  404f88:	eb 20                	jmp    404faa <util_ls+0x184>
  404f8a:	48 8b 85 68 ff ff ff 	mov    -0x98(%rbp),%rax
  404f91:	8b 40 18             	mov    0x18(%rax),%eax
  404f94:	25 00 f0 00 00       	and    $0xf000,%eax
  404f99:	3d 00 a0 00 00       	cmp    $0xa000,%eax
  404f9e:	75 0a                	jne    404faa <util_ls+0x184>
  404fa0:	48 8b 85 78 ff ff ff 	mov    -0x88(%rbp),%rax
  404fa7:	c6 00 6c             	movb   $0x6c,(%rax)
  404faa:	48 8b 85 68 ff ff ff 	mov    -0x98(%rbp),%rax
  404fb1:	8b 40 18             	mov    0x18(%rax),%eax
  404fb4:	25 00 01 00 00       	and    $0x100,%eax
  404fb9:	85 c0                	test   %eax,%eax
  404fbb:	74 0e                	je     404fcb <util_ls+0x1a5>
  404fbd:	48 8b 85 78 ff ff ff 	mov    -0x88(%rbp),%rax
  404fc4:	48 83 c0 01          	add    $0x1,%rax
  404fc8:	c6 00 72             	movb   $0x72,(%rax)
  404fcb:	48 8b 85 68 ff ff ff 	mov    -0x98(%rbp),%rax
  404fd2:	8b 40 18             	mov    0x18(%rax),%eax
  404fd5:	25 80 00 00 00       	and    $0x80,%eax
  404fda:	85 c0                	test   %eax,%eax
  404fdc:	74 0e                	je     404fec <util_ls+0x1c6>
  404fde:	48 8b 85 78 ff ff ff 	mov    -0x88(%rbp),%rax
  404fe5:	48 83 c0 02          	add    $0x2,%rax
  404fe9:	c6 00 77             	movb   $0x77,(%rax)
  404fec:	48 8b 85 68 ff ff ff 	mov    -0x98(%rbp),%rax
  404ff3:	8b 40 18             	mov    0x18(%rax),%eax
  404ff6:	83 e0 40             	and    $0x40,%eax
  404ff9:	85 c0                	test   %eax,%eax
  404ffb:	74 0e                	je     40500b <util_ls+0x1e5>
  404ffd:	48 8b 85 78 ff ff ff 	mov    -0x88(%rbp),%rax
  405004:	48 83 c0 03          	add    $0x3,%rax
  405008:	c6 00 78             	movb   $0x78,(%rax)
  40500b:	48 8b 85 68 ff ff ff 	mov    -0x98(%rbp),%rax
  405012:	8b 40 18             	mov    0x18(%rax),%eax
  405015:	83 e0 20             	and    $0x20,%eax
  405018:	85 c0                	test   %eax,%eax
  40501a:	74 0e                	je     40502a <util_ls+0x204>
  40501c:	48 8b 85 78 ff ff ff 	mov    -0x88(%rbp),%rax
  405023:	48 83 c0 04          	add    $0x4,%rax
  405027:	c6 00 72             	movb   $0x72,(%rax)
  40502a:	48 8b 85 68 ff ff ff 	mov    -0x98(%rbp),%rax
  405031:	8b 40 18             	mov    0x18(%rax),%eax
  405034:	83 e0 10             	and    $0x10,%eax
  405037:	85 c0                	test   %eax,%eax
  405039:	74 0e                	je     405049 <util_ls+0x223>
  40503b:	48 8b 85 78 ff ff ff 	mov    -0x88(%rbp),%rax
  405042:	48 83 c0 05          	add    $0x5,%rax
  405046:	c6 00 77             	movb   $0x77,(%rax)
  405049:	48 8b 85 68 ff ff ff 	mov    -0x98(%rbp),%rax
  405050:	8b 40 18             	mov    0x18(%rax),%eax
  405053:	83 e0 08             	and    $0x8,%eax
  405056:	85 c0                	test   %eax,%eax
  405058:	74 0e                	je     405068 <util_ls+0x242>
  40505a:	48 8b 85 78 ff ff ff 	mov    -0x88(%rbp),%rax
  405061:	48 83 c0 06          	add    $0x6,%rax
  405065:	c6 00 78             	movb   $0x78,(%rax)
  405068:	48 8b 85 68 ff ff ff 	mov    -0x98(%rbp),%rax
  40506f:	8b 40 18             	mov    0x18(%rax),%eax
  405072:	83 e0 04             	and    $0x4,%eax
  405075:	85 c0                	test   %eax,%eax
  405077:	74 0e                	je     405087 <util_ls+0x261>
  405079:	48 8b 85 78 ff ff ff 	mov    -0x88(%rbp),%rax
  405080:	48 83 c0 07          	add    $0x7,%rax
  405084:	c6 00 72             	movb   $0x72,(%rax)
  405087:	48 8b 85 68 ff ff ff 	mov    -0x98(%rbp),%rax
  40508e:	8b 40 18             	mov    0x18(%rax),%eax
  405091:	83 e0 02             	and    $0x2,%eax
  405094:	85 c0                	test   %eax,%eax
  405096:	74 0e                	je     4050a6 <util_ls+0x280>
  405098:	48 8b 85 78 ff ff ff 	mov    -0x88(%rbp),%rax
  40509f:	48 83 c0 08          	add    $0x8,%rax
  4050a3:	c6 00 77             	movb   $0x77,(%rax)
  4050a6:	48 8b 85 68 ff ff ff 	mov    -0x98(%rbp),%rax
  4050ad:	8b 40 18             	mov    0x18(%rax),%eax
  4050b0:	83 e0 01             	and    $0x1,%eax
  4050b3:	85 c0                	test   %eax,%eax
  4050b5:	74 0e                	je     4050c5 <util_ls+0x29f>
  4050b7:	48 8b 85 78 ff ff ff 	mov    -0x88(%rbp),%rax
  4050be:	48 83 c0 09          	add    $0x9,%rax
  4050c2:	c6 00 78             	movb   $0x78,(%rax)
  4050c5:	48 8b 85 68 ff ff ff 	mov    -0x98(%rbp),%rax
  4050cc:	8b 40 1c             	mov    0x1c(%rax),%eax
  4050cf:	89 c7                	mov    %eax,%edi
  4050d1:	e8 8c 43 00 00       	callq  409462 <sysutil_getpwuid>
  4050d6:	48 89 45 98          	mov    %rax,-0x68(%rbp)
  4050da:	48 8b 85 68 ff ff ff 	mov    -0x98(%rbp),%rax
  4050e1:	8b 40 20             	mov    0x20(%rax),%eax
  4050e4:	89 c7                	mov    %eax,%edi
  4050e6:	e8 ed 43 00 00       	callq  4094d8 <sysutil_getgrgid>
  4050eb:	48 89 45 a0          	mov    %rax,-0x60(%rbp)
  4050ef:	48 c7 45 a8 00 00 00 	movq   $0x0,-0x58(%rbp)
  4050f6:	00 
  4050f7:	48 8b 85 68 ff ff ff 	mov    -0x98(%rbp),%rax
  4050fe:	48 83 c0 58          	add    $0x58,%rax
  405102:	48 89 c7             	mov    %rax,%rdi
  405105:	e8 06 cf ff ff       	callq  402010 <localtime@plt>
  40510a:	48 89 45 a8          	mov    %rax,-0x58(%rbp)
  40510e:	48 8b 55 a8          	mov    -0x58(%rbp),%rdx
  405112:	48 8d 45 b0          	lea    -0x50(%rbp),%rax
  405116:	48 89 d1             	mov    %rdx,%rcx
  405119:	ba a0 ab 40 00       	mov    $0x40aba0,%edx
  40511e:	be 40 00 00 00       	mov    $0x40,%esi
  405123:	48 89 c7             	mov    %rax,%rdi
  405126:	e8 f5 d3 ff ff       	callq  402520 <strftime@plt>
  40512b:	48 8b 45 80          	mov    -0x80(%rbp),%rax
  40512f:	be 00 01 00 00       	mov    $0x100,%esi
  405134:	48 89 c7             	mov    %rax,%rdi
  405137:	e8 87 30 00 00       	callq  4081c3 <sysutil_memclr>
  40513c:	48 8b 85 68 ff ff ff 	mov    -0x98(%rbp),%rax
  405143:	48 8b 70 30          	mov    0x30(%rax),%rsi
  405147:	48 8b 45 a0          	mov    -0x60(%rbp),%rax
  40514b:	4c 8b 08             	mov    (%rax),%r9
  40514e:	48 8b 45 98          	mov    -0x68(%rbp),%rax
  405152:	4c 8b 00             	mov    (%rax),%r8
  405155:	48 8b 85 68 ff ff ff 	mov    -0x98(%rbp),%rax
  40515c:	48 8b 48 10          	mov    0x10(%rax),%rcx
  405160:	48 8b 95 78 ff ff ff 	mov    -0x88(%rbp),%rdx
  405167:	48 8b 45 80          	mov    -0x80(%rbp),%rax
  40516b:	48 83 ec 08          	sub    $0x8,%rsp
  40516f:	ff 75 90             	pushq  -0x70(%rbp)
  405172:	48 8d 7d b0          	lea    -0x50(%rbp),%rdi
  405176:	57                   	push   %rdi
  405177:	56                   	push   %rsi
  405178:	be b0 ab 40 00       	mov    $0x40abb0,%esi
  40517d:	48 89 c7             	mov    %rax,%rdi
  405180:	b8 00 00 00 00       	mov    $0x0,%eax
  405185:	e8 96 d4 ff ff       	callq  402620 <sprintf@plt>
  40518a:	48 83 c4 20          	add    $0x20,%rsp
  40518e:	48 8b 55 80          	mov    -0x80(%rbp),%rdx
  405192:	8b 85 5c ff ff ff    	mov    -0xa4(%rbp),%eax
  405198:	be 01 00 00 00       	mov    $0x1,%esi
  40519d:	89 c7                	mov    %eax,%edi
  40519f:	e8 f3 d8 ff ff       	callq  402a97 <write_data_respond>
  4051a4:	48 8b 85 68 ff ff ff 	mov    -0x98(%rbp),%rax
  4051ab:	48 89 c7             	mov    %rax,%rdi
  4051ae:	e8 14 2e 00 00       	callq  407fc7 <sysutil_free>
  4051b3:	48 8b 45 88          	mov    -0x78(%rbp),%rax
  4051b7:	48 89 c7             	mov    %rax,%rdi
  4051ba:	e8 79 25 00 00       	callq  407738 <sysutil_next_dirent>
  4051bf:	48 89 45 90          	mov    %rax,-0x70(%rbp)
  4051c3:	48 83 7d 90 00       	cmpq   $0x0,-0x70(%rbp)
  4051c8:	0f 85 08 fd ff ff    	jne    404ed6 <util_ls+0xb0>
  4051ce:	48 8b 45 80          	mov    -0x80(%rbp),%rax
  4051d2:	48 89 c7             	mov    %rax,%rdi
  4051d5:	e8 ed 2d 00 00       	callq  407fc7 <sysutil_free>
  4051da:	48 8b 45 88          	mov    -0x78(%rbp),%rax
  4051de:	48 89 c7             	mov    %rax,%rdi
  4051e1:	e8 09 25 00 00       	callq  4076ef <sysutil_closedir>
  4051e6:	48 8b 85 78 ff ff ff 	mov    -0x88(%rbp),%rax
  4051ed:	48 89 c7             	mov    %rax,%rdi
  4051f0:	e8 d2 2d 00 00       	callq  407fc7 <sysutil_free>
  4051f5:	48 8b 85 50 ff ff ff 	mov    -0xb0(%rbp),%rax
  4051fc:	be 0e 00 00 00       	mov    $0xe,%esi
  405201:	48 89 c7             	mov    %rax,%rdi
  405204:	e8 34 44 00 00       	callq  40963d <sysutil_syslog>
  405209:	b8 01 00 00 00       	mov    $0x1,%eax
  40520e:	48 8b 4d f8          	mov    -0x8(%rbp),%rcx
  405212:	64 48 33 0c 25 28 00 	xor    %fs:0x28,%rcx
  405219:	00 00 
  40521b:	74 05                	je     405222 <util_ls+0x3fc>
  40521d:	e8 7e cf ff ff       	callq  4021a0 <__stack_chk_fail@plt>
  405222:	c9                   	leaveq 
  405223:	c3                   	retq   

0000000000405224 <main>:
  405224:	55                   	push   %rbp
  405225:	48 89 e5             	mov    %rsp,%rbp
  405228:	48 81 ec 40 01 00 00 	sub    $0x140,%rsp
  40522f:	64 48 8b 04 25 28 00 	mov    %fs:0x28,%rax
  405236:	00 00 
  405238:	48 89 45 f8          	mov    %rax,-0x8(%rbp)
  40523c:	31 c0                	xor    %eax,%eax
  40523e:	48 8d 95 c0 fe ff ff 	lea    -0x140(%rbp),%rdx
  405245:	b8 00 00 00 00       	mov    $0x0,%eax
  40524a:	b9 27 00 00 00       	mov    $0x27,%ecx
  40524f:	48 89 d7             	mov    %rdx,%rdi
  405252:	f3 48 ab             	rep stos %rax,%es:(%rdi)
  405255:	c7 45 d8 01 00 00 00 	movl   $0x1,-0x28(%rbp)
  40525c:	c7 85 d8 fe ff ff 14 	movl   $0x14,-0x128(%rbp)
  405263:	00 00 00 
  405266:	c7 85 dc fe ff ff 1e 	movl   $0x1e,-0x124(%rbp)
  40526d:	00 00 00 
  405270:	c7 85 10 ff ff ff 00 	movl   $0x0,-0xf0(%rbp)
  405277:	00 00 00 
  40527a:	48 8d 85 c0 fe ff ff 	lea    -0x140(%rbp),%rax
  405281:	48 89 c7             	mov    %rax,%rdi
  405284:	b8 00 00 00 00       	mov    $0x0,%eax
  405289:	e8 42 51 00 00       	callq  40a3d0 <standalone_socket>
  40528e:	bf 18 00 00 00       	mov    $0x18,%edi
  405293:	e8 83 43 00 00       	callq  40961b <sysutil_openlog>
  405298:	48 8d 85 c0 fe ff ff 	lea    -0x140(%rbp),%rax
  40529f:	48 89 c7             	mov    %rax,%rdi
  4052a2:	e8 b5 4c 00 00       	callq  409f5c <twoprogress>
  4052a7:	b8 00 00 00 00       	mov    $0x0,%eax
  4052ac:	48 8b 75 f8          	mov    -0x8(%rbp),%rsi
  4052b0:	64 48 33 34 25 28 00 	xor    %fs:0x28,%rsi
  4052b7:	00 00 
  4052b9:	74 05                	je     4052c0 <main+0x9c>
  4052bb:	e8 e0 ce ff ff       	callq  4021a0 <__stack_chk_fail@plt>
  4052c0:	c9                   	leaveq 
  4052c1:	c3                   	retq   

00000000004052c2 <init_connection>:
  4052c2:	55                   	push   %rbp
  4052c3:	48 89 e5             	mov    %rsp,%rbp
  4052c6:	48 83 ec 40          	sub    $0x40,%rsp
  4052ca:	48 89 7d c8          	mov    %rdi,-0x38(%rbp)
  4052ce:	64 48 8b 04 25 28 00 	mov    %fs:0x28,%rax
  4052d5:	00 00 
  4052d7:	48 89 45 f8          	mov    %rax,-0x8(%rbp)
  4052db:	31 c0                	xor    %eax,%eax
  4052dd:	48 c7 45 d0 00 00 00 	movq   $0x0,-0x30(%rbp)
  4052e4:	00 
  4052e5:	c7 45 d8 00 00 00 00 	movl   $0x0,-0x28(%rbp)
  4052ec:	c7 45 dc 00 00 00 00 	movl   $0x0,-0x24(%rbp)
  4052f3:	48 c7 45 e0 00 00 00 	movq   $0x0,-0x20(%rbp)
  4052fa:	00 
  4052fb:	c7 45 e8 00 00 00 00 	movl   $0x0,-0x18(%rbp)
  405302:	c7 45 ec 00 00 00 00 	movl   $0x0,-0x14(%rbp)
  405309:	48 8d 45 e0          	lea    -0x20(%rbp),%rax
  40530d:	48 89 c7             	mov    %rax,%rdi
  405310:	e8 fb 00 00 00       	callq  405410 <get_rpc_request>
  405315:	48 89 45 d0          	mov    %rax,-0x30(%rbp)
  405319:	48 89 55 d8          	mov    %rdx,-0x28(%rbp)
  40531d:	48 8b 45 d0          	mov    -0x30(%rbp),%rax
  405321:	be 0e 00 00 00       	mov    $0xe,%esi
  405326:	48 89 c7             	mov    %rax,%rdi
  405329:	e8 0f 43 00 00       	callq  40963d <sysutil_syslog>
  40532e:	48 8b 45 e0          	mov    -0x20(%rbp),%rax
  405332:	be 0e 00 00 00       	mov    $0xe,%esi
  405337:	48 89 c7             	mov    %rax,%rdi
  40533a:	e8 fe 42 00 00       	callq  40963d <sysutil_syslog>
  40533f:	48 8d 45 d0          	lea    -0x30(%rbp),%rax
  405343:	be d8 ab 40 00       	mov    $0x40abd8,%esi
  405348:	48 89 c7             	mov    %rax,%rdi
  40534b:	e8 42 0e 00 00       	callq  406192 <str_equal_text>
  405350:	85 c0                	test   %eax,%eax
  405352:	74 18                	je     40536c <init_connection+0xaa>
  405354:	48 8d 55 e0          	lea    -0x20(%rbp),%rdx
  405358:	48 8b 45 c8          	mov    -0x38(%rbp),%rax
  40535c:	48 89 d6             	mov    %rdx,%rsi
  40535f:	48 89 c7             	mov    %rax,%rdi
  405362:	e8 dd f0 ff ff       	callq  404444 <handle_user>
  405367:	e9 93 00 00 00       	jmpq   4053ff <init_connection+0x13d>
  40536c:	48 8d 45 d0          	lea    -0x30(%rbp),%rax
  405370:	be dd ab 40 00       	mov    $0x40abdd,%esi
  405375:	48 89 c7             	mov    %rax,%rdi
  405378:	e8 15 0e 00 00       	callq  406192 <str_equal_text>
  40537d:	85 c0                	test   %eax,%eax
  40537f:	74 15                	je     405396 <init_connection+0xd4>
  405381:	48 8d 55 e0          	lea    -0x20(%rbp),%rdx
  405385:	48 8b 45 c8          	mov    -0x38(%rbp),%rax
  405389:	48 89 d6             	mov    %rdx,%rsi
  40538c:	48 89 c7             	mov    %rax,%rdi
  40538f:	e8 67 f1 ff ff       	callq  4044fb <handle_pass>
  405394:	eb 69                	jmp    4053ff <init_connection+0x13d>
  405396:	48 8d 45 d0          	lea    -0x30(%rbp),%rax
  40539a:	be e2 ab 40 00       	mov    $0x40abe2,%esi
  40539f:	48 89 c7             	mov    %rax,%rdi
  4053a2:	e8 eb 0d 00 00       	callq  406192 <str_equal_text>
  4053a7:	85 c0                	test   %eax,%eax
  4053a9:	74 0e                	je     4053b9 <init_connection+0xf7>
  4053ab:	48 8b 45 c8          	mov    -0x38(%rbp),%rax
  4053af:	48 89 c7             	mov    %rax,%rdi
  4053b2:	e8 42 f9 ff ff       	callq  404cf9 <handle_syst>
  4053b7:	eb 46                	jmp    4053ff <init_connection+0x13d>
  4053b9:	48 8d 45 d0          	lea    -0x30(%rbp),%rax
  4053bd:	be e7 ab 40 00       	mov    $0x40abe7,%esi
  4053c2:	48 89 c7             	mov    %rax,%rdi
  4053c5:	e8 c8 0d 00 00       	callq  406192 <str_equal_text>
  4053ca:	85 c0                	test   %eax,%eax
  4053cc:	74 0c                	je     4053da <init_connection+0x118>
  4053ce:	b8 00 00 00 00       	mov    $0x0,%eax
  4053d3:	e8 f1 f7 ff ff       	callq  404bc9 <handle_quit>
  4053d8:	eb 25                	jmp    4053ff <init_connection+0x13d>
  4053da:	ba f0 ab 40 00       	mov    $0x40abf0,%edx
  4053df:	be 12 02 00 00       	mov    $0x212,%esi
  4053e4:	bf 00 00 00 00       	mov    $0x0,%edi
  4053e9:	b8 00 00 00 00       	mov    $0x0,%eax
  4053ee:	e8 df d5 ff ff       	callq  4029d2 <write_cmd_respond>
  4053f3:	48 8d 45 e0          	lea    -0x20(%rbp),%rax
  4053f7:	48 89 c7             	mov    %rax,%rdi
  4053fa:	e8 f2 0b 00 00       	callq  405ff1 <str_free>
  4053ff:	48 8d 45 d0          	lea    -0x30(%rbp),%rax
  405403:	48 89 c7             	mov    %rax,%rdi
  405406:	e8 e6 0b 00 00       	callq  405ff1 <str_free>
  40540b:	e9 e3 fe ff ff       	jmpq   4052f3 <init_connection+0x31>

0000000000405410 <get_rpc_request>:
  405410:	55                   	push   %rbp
  405411:	48 89 e5             	mov    %rsp,%rbp
  405414:	48 83 ec 50          	sub    $0x50,%rsp
  405418:	48 89 7d b8          	mov    %rdi,-0x48(%rbp)
  40541c:	64 48 8b 04 25 28 00 	mov    %fs:0x28,%rax
  405423:	00 00 
  405425:	48 89 45 f8          	mov    %rax,-0x8(%rbp)
  405429:	31 c0                	xor    %eax,%eax
  40542b:	c6 45 cb 0a          	movb   $0xa,-0x35(%rbp)
  40542f:	48 c7 45 d0 00 00 00 	movq   $0x0,-0x30(%rbp)
  405436:	00 
  405437:	c7 45 d8 00 00 00 00 	movl   $0x0,-0x28(%rbp)
  40543e:	c7 45 dc 00 00 00 00 	movl   $0x0,-0x24(%rbp)
  405445:	48 c7 45 e0 00 00 00 	movq   $0x0,-0x20(%rbp)
  40544c:	00 
  40544d:	c7 45 e8 00 00 00 00 	movl   $0x0,-0x18(%rbp)
  405454:	c7 45 ec 00 00 00 00 	movl   $0x0,-0x14(%rbp)
  40545b:	0f be 55 cb          	movsbl -0x35(%rbp),%edx
  40545f:	48 8d 45 d0          	lea    -0x30(%rbp),%rax
  405463:	89 d6                	mov    %edx,%esi
  405465:	48 89 c7             	mov    %rax,%rdi
  405468:	b8 00 00 00 00       	mov    $0x0,%eax
  40546d:	e8 84 d3 ff ff       	callq  4027f6 <get_netdata>
  405472:	89 45 cc             	mov    %eax,-0x34(%rbp)
  405475:	83 7d cc 00          	cmpl   $0x0,-0x34(%rbp)
  405479:	75 0a                	jne    405485 <get_rpc_request+0x75>
  40547b:	bf ff ff ff ff       	mov    $0xffffffff,%edi
  405480:	e8 bb 2b 00 00       	callq  408040 <sysutil_exit>
  405485:	8b 45 cc             	mov    -0x34(%rbp),%eax
  405488:	83 e8 01             	sub    $0x1,%eax
  40548b:	89 c2                	mov    %eax,%edx
  40548d:	48 8d 45 d0          	lea    -0x30(%rbp),%rax
  405491:	89 d6                	mov    %edx,%esi
  405493:	48 89 c7             	mov    %rax,%rdi
  405496:	e8 ce 18 00 00       	callq  406d69 <str_get_char_at>
  40549b:	3c 0d                	cmp    $0xd,%al
  40549d:	75 24                	jne    4054c3 <get_rpc_request+0xb3>
  40549f:	48 8b 4d d0          	mov    -0x30(%rbp),%rcx
  4054a3:	48 8d 45 e0          	lea    -0x20(%rbp),%rax
  4054a7:	ba 00 00 00 00       	mov    $0x0,%edx
  4054ac:	48 89 ce             	mov    %rcx,%rsi
  4054af:	48 89 c7             	mov    %rax,%rdi
  4054b2:	e8 9a 09 00 00       	callq  405e51 <str_alloc_alt_term>
  4054b7:	48 8d 45 d0          	lea    -0x30(%rbp),%rax
  4054bb:	48 89 c7             	mov    %rax,%rdi
  4054be:	e8 2e 0b 00 00       	callq  405ff1 <str_free>
  4054c3:	48 8b 4d b8          	mov    -0x48(%rbp),%rcx
  4054c7:	48 8d 45 e0          	lea    -0x20(%rbp),%rax
  4054cb:	ba 20 00 00 00       	mov    $0x20,%edx
  4054d0:	48 89 ce             	mov    %rcx,%rsi
  4054d3:	48 89 c7             	mov    %rax,%rdi
  4054d6:	e8 24 12 00 00       	callq  4066ff <str_split_char>
  4054db:	48 8b 45 b8          	mov    -0x48(%rbp),%rax
  4054df:	48 89 c7             	mov    %rax,%rdi
  4054e2:	e8 9f 18 00 00       	callq  406d86 <str_contains_space>
  4054e7:	85 c0                	test   %eax,%eax
  4054e9:	74 17                	je     405502 <get_rpc_request+0xf2>
  4054eb:	48 8b 45 b8          	mov    -0x48(%rbp),%rax
  4054ef:	48 89 c7             	mov    %rax,%rdi
  4054f2:	e8 37 19 00 00       	callq  406e2e <str_wipeout_blank>
  4054f7:	48 8b 4d b8          	mov    -0x48(%rbp),%rcx
  4054fb:	48 89 01             	mov    %rax,(%rcx)
  4054fe:	48 89 51 08          	mov    %rdx,0x8(%rcx)
  405502:	48 8d 45 e0          	lea    -0x20(%rbp),%rax
  405506:	48 89 c7             	mov    %rax,%rdi
  405509:	e8 1c 10 00 00       	callq  40652a <str_upper>
  40550e:	48 8b 45 e0          	mov    -0x20(%rbp),%rax
  405512:	48 8b 55 e8          	mov    -0x18(%rbp),%rdx
  405516:	48 8b 75 f8          	mov    -0x8(%rbp),%rsi
  40551a:	64 48 33 34 25 28 00 	xor    %fs:0x28,%rsi
  405521:	00 00 
  405523:	74 05                	je     40552a <get_rpc_request+0x11a>
  405525:	e8 76 cc ff ff       	callq  4021a0 <__stack_chk_fail@plt>
  40552a:	c9                   	leaveq 
  40552b:	c3                   	retq   

000000000040552c <user_common_deal>:
  40552c:	55                   	push   %rbp
  40552d:	48 89 e5             	mov    %rsp,%rbp
  405530:	48 83 ec 20          	sub    $0x20,%rsp
  405534:	48 89 7d e8          	mov    %rdi,-0x18(%rbp)
  405538:	48 8b 45 e8          	mov    -0x18(%rbp),%rax
  40553c:	48 89 c7             	mov    %rax,%rdi
  40553f:	b8 00 00 00 00       	mov    $0x0,%eax
  405544:	e8 a5 4a 00 00       	callq  409fee <set_private_unix_socket>
  405549:	e8 ad 2a 00 00       	callq  407ffb <sysutil_fork>
  40554e:	89 45 fc             	mov    %eax,-0x4(%rbp)
  405551:	83 7d fc 00          	cmpl   $0x0,-0x4(%rbp)
  405555:	74 3f                	je     405596 <user_common_deal+0x6a>
  405557:	bf 03 00 00 00       	mov    $0x3,%edi
  40555c:	e8 be 1d 00 00       	callq  40731f <sysutil_install_null_sighandler>
  405561:	bf 04 00 00 00       	mov    $0x4,%edi
  405566:	e8 b4 1d 00 00       	callq  40731f <sysutil_install_null_sighandler>
  40556b:	48 8b 45 e8          	mov    -0x18(%rbp),%rax
  40556f:	48 89 c7             	mov    %rax,%rdi
  405572:	b8 00 00 00 00       	mov    $0x0,%eax
  405577:	e8 d2 4a 00 00       	callq  40a04e <close_child_context>
  40557c:	48 8b 45 e8          	mov    -0x18(%rbp),%rax
  405580:	48 89 c7             	mov    %rax,%rdi
  405583:	e8 35 06 00 00       	callq  405bbd <login_user>
  405588:	48 8b 45 e8          	mov    -0x18(%rbp),%rax
  40558c:	48 89 c7             	mov    %rax,%rdi
  40558f:	e8 4c 00 00 00       	callq  4055e0 <common_request>
  405594:	eb f2                	jmp    405588 <user_common_deal+0x5c>
  405596:	48 8b 45 e8          	mov    -0x18(%rbp),%rax
  40559a:	48 83 c0 58          	add    $0x58,%rax
  40559e:	48 89 c7             	mov    %rax,%rdi
  4055a1:	e8 4b 0a 00 00       	callq  405ff1 <str_free>
  4055a6:	48 8b 45 e8          	mov    -0x18(%rbp),%rax
  4055aa:	48 83 c0 68          	add    $0x68,%rax
  4055ae:	48 89 c7             	mov    %rax,%rdi
  4055b1:	e8 3b 0a 00 00       	callq  405ff1 <str_free>
  4055b6:	48 8b 45 e8          	mov    -0x18(%rbp),%rax
  4055ba:	48 89 c7             	mov    %rax,%rdi
  4055bd:	b8 00 00 00 00       	mov    $0x0,%eax
  4055c2:	e8 59 4a 00 00       	callq  40a020 <close_parent_context>
  4055c7:	b8 00 00 00 00       	mov    $0x0,%eax
  4055cc:	e8 ab 4a 00 00       	callq  40a07c <del_privilege>
  4055d1:	48 8b 45 e8          	mov    -0x18(%rbp),%rax
  4055d5:	48 89 c7             	mov    %rax,%rdi
  4055d8:	e8 a0 00 00 00       	callq  40567d <wait_data_connection>
  4055dd:	90                   	nop
  4055de:	c9                   	leaveq 
  4055df:	c3                   	retq   

00000000004055e0 <common_request>:
  4055e0:	55                   	push   %rbp
  4055e1:	48 89 e5             	mov    %rsp,%rbp
  4055e4:	48 83 ec 30          	sub    $0x30,%rsp
  4055e8:	48 89 7d d8          	mov    %rdi,-0x28(%rbp)
  4055ec:	64 48 8b 04 25 28 00 	mov    %fs:0x28,%rax
  4055f3:	00 00 
  4055f5:	48 89 45 f8          	mov    %rax,-0x8(%rbp)
  4055f9:	31 c0                	xor    %eax,%eax
  4055fb:	48 c7 45 e0 00 00 00 	movq   $0x0,-0x20(%rbp)
  405602:	00 
  405603:	c7 45 e8 00 00 00 00 	movl   $0x0,-0x18(%rbp)
  40560a:	c7 45 ec 00 00 00 00 	movl   $0x0,-0x14(%rbp)
  405611:	48 8d 45 e0          	lea    -0x20(%rbp),%rax
  405615:	ba 00 04 00 00       	mov    $0x400,%edx
  40561a:	be 00 00 00 00       	mov    $0x0,%esi
  40561f:	48 89 c7             	mov    %rax,%rdi
  405622:	e8 f5 06 00 00       	callq  405d1c <private_str_alloc_memchunk>
  405627:	48 8b 45 d8          	mov    -0x28(%rbp),%rax
  40562b:	8b 80 10 01 00 00    	mov    0x110(%rax),%eax
  405631:	48 8d 55 e0          	lea    -0x20(%rbp),%rdx
  405635:	48 89 d6             	mov    %rdx,%rsi
  405638:	89 c7                	mov    %eax,%edi
  40563a:	b8 00 00 00 00       	mov    $0x0,%eax
  40563f:	e8 8f d6 ff ff       	callq  402cd3 <get_internal_cmd_data>
  405644:	48 8d 55 e0          	lea    -0x20(%rbp),%rdx
  405648:	48 8b 45 d8          	mov    -0x28(%rbp),%rax
  40564c:	48 89 d6             	mov    %rdx,%rsi
  40564f:	48 89 c7             	mov    %rax,%rdi
  405652:	b8 00 00 00 00       	mov    $0x0,%eax
  405657:	e8 b0 4b 00 00       	callq  40a20c <parse_cmd>
  40565c:	48 8d 45 e0          	lea    -0x20(%rbp),%rax
  405660:	48 89 c7             	mov    %rax,%rdi
  405663:	e8 57 09 00 00       	callq  405fbf <str_empty>
  405668:	e8 4e 2a 00 00       	callq  4080bb <sysutil_wait_reap_one>
  40566d:	85 c0                	test   %eax,%eax
  40566f:	74 b6                	je     405627 <common_request+0x47>
  405671:	bf 00 00 00 00       	mov    $0x0,%edi
  405676:	e8 c5 29 00 00       	callq  408040 <sysutil_exit>
  40567b:	eb aa                	jmp    405627 <common_request+0x47>

000000000040567d <wait_data_connection>:
  40567d:	55                   	push   %rbp
  40567e:	48 89 e5             	mov    %rsp,%rbp
  405681:	48 83 ec 40          	sub    $0x40,%rsp
  405685:	48 89 7d c8          	mov    %rdi,-0x38(%rbp)
  405689:	64 48 8b 04 25 28 00 	mov    %fs:0x28,%rax
  405690:	00 00 
  405692:	48 89 45 f8          	mov    %rax,-0x8(%rbp)
  405696:	31 c0                	xor    %eax,%eax
  405698:	48 c7 45 d0 00 00 00 	movq   $0x0,-0x30(%rbp)
  40569f:	00 
  4056a0:	c7 45 d8 00 00 00 00 	movl   $0x0,-0x28(%rbp)
  4056a7:	c7 45 dc 00 00 00 00 	movl   $0x0,-0x24(%rbp)
  4056ae:	48 c7 45 e0 00 00 00 	movq   $0x0,-0x20(%rbp)
  4056b5:	00 
  4056b6:	c7 45 e8 00 00 00 00 	movl   $0x0,-0x18(%rbp)
  4056bd:	c7 45 ec 00 00 00 00 	movl   $0x0,-0x14(%rbp)
  4056c4:	48 8d 45 e0          	lea    -0x20(%rbp),%rax
  4056c8:	48 89 c7             	mov    %rax,%rdi
  4056cb:	e8 40 fd ff ff       	callq  405410 <get_rpc_request>
  4056d0:	48 89 45 d0          	mov    %rax,-0x30(%rbp)
  4056d4:	48 89 55 d8          	mov    %rdx,-0x28(%rbp)
  4056d8:	48 8b 45 d0          	mov    -0x30(%rbp),%rax
  4056dc:	be 0e 00 00 00       	mov    $0xe,%esi
  4056e1:	48 89 c7             	mov    %rax,%rdi
  4056e4:	e8 54 3f 00 00       	callq  40963d <sysutil_syslog>
  4056e9:	48 8b 45 e0          	mov    -0x20(%rbp),%rax
  4056ed:	be 0e 00 00 00       	mov    $0xe,%esi
  4056f2:	48 89 c7             	mov    %rax,%rdi
  4056f5:	e8 43 3f 00 00       	callq  40963d <sysutil_syslog>
  4056fa:	48 8d 45 d0          	lea    -0x30(%rbp),%rax
  4056fe:	be 12 ac 40 00       	mov    $0x40ac12,%esi
  405703:	48 89 c7             	mov    %rax,%rdi
  405706:	e8 87 0a 00 00       	callq  406192 <str_equal_text>
  40570b:	85 c0                	test   %eax,%eax
  40570d:	74 11                	je     405720 <wait_data_connection+0xa3>
  40570f:	48 8b 45 c8          	mov    -0x38(%rbp),%rax
  405713:	48 89 c7             	mov    %rax,%rdi
  405716:	e8 4a f1 ff ff       	callq  404865 <handle_pwd>
  40571b:	e9 24 02 00 00       	jmpq   405944 <wait_data_connection+0x2c7>
  405720:	48 8d 45 d0          	lea    -0x30(%rbp),%rax
  405724:	be 16 ac 40 00       	mov    $0x40ac16,%esi
  405729:	48 89 c7             	mov    %rax,%rdi
  40572c:	e8 61 0a 00 00       	callq  406192 <str_equal_text>
  405731:	85 c0                	test   %eax,%eax
  405733:	74 18                	je     40574d <wait_data_connection+0xd0>
  405735:	48 8d 55 e0          	lea    -0x20(%rbp),%rdx
  405739:	48 8b 45 c8          	mov    -0x38(%rbp),%rax
  40573d:	48 89 d6             	mov    %rdx,%rsi
  405740:	48 89 c7             	mov    %rax,%rdi
  405743:	e8 6c f0 ff ff       	callq  4047b4 <handle_cwd>
  405748:	e9 f7 01 00 00       	jmpq   405944 <wait_data_connection+0x2c7>
  40574d:	48 8d 45 d0          	lea    -0x30(%rbp),%rax
  405751:	be 1a ac 40 00       	mov    $0x40ac1a,%esi
  405756:	48 89 c7             	mov    %rax,%rdi
  405759:	e8 34 0a 00 00       	callq  406192 <str_equal_text>
  40575e:	85 c0                	test   %eax,%eax
  405760:	74 18                	je     40577a <wait_data_connection+0xfd>
  405762:	48 8d 55 e0          	lea    -0x20(%rbp),%rdx
  405766:	48 8b 45 c8          	mov    -0x38(%rbp),%rax
  40576a:	48 89 d6             	mov    %rdx,%rsi
  40576d:	48 89 c7             	mov    %rax,%rdi
  405770:	e8 a3 f3 ff ff       	callq  404b18 <handle_port>
  405775:	e9 ca 01 00 00       	jmpq   405944 <wait_data_connection+0x2c7>
  40577a:	48 8d 45 d0          	lea    -0x30(%rbp),%rax
  40577e:	be 1f ac 40 00       	mov    $0x40ac1f,%esi
  405783:	48 89 c7             	mov    %rax,%rdi
  405786:	e8 07 0a 00 00       	callq  406192 <str_equal_text>
  40578b:	85 c0                	test   %eax,%eax
  40578d:	74 11                	je     4057a0 <wait_data_connection+0x123>
  40578f:	48 8b 45 c8          	mov    -0x38(%rbp),%rax
  405793:	48 89 c7             	mov    %rax,%rdi
  405796:	e8 20 ec ff ff       	callq  4043bb <handle_pasv>
  40579b:	e9 a4 01 00 00       	jmpq   405944 <wait_data_connection+0x2c7>
  4057a0:	48 8d 45 d0          	lea    -0x30(%rbp),%rax
  4057a4:	be 24 ac 40 00       	mov    $0x40ac24,%esi
  4057a9:	48 89 c7             	mov    %rax,%rdi
  4057ac:	e8 e1 09 00 00       	callq  406192 <str_equal_text>
  4057b1:	85 c0                	test   %eax,%eax
  4057b3:	74 16                	je     4057cb <wait_data_connection+0x14e>
  4057b5:	48 8b 45 c8          	mov    -0x38(%rbp),%rax
  4057b9:	48 89 c7             	mov    %rax,%rdi
  4057bc:	b8 00 00 00 00       	mov    $0x0,%eax
  4057c1:	e8 36 f1 ff ff       	callq  4048fc <handle_list>
  4057c6:	e9 79 01 00 00       	jmpq   405944 <wait_data_connection+0x2c7>
  4057cb:	48 8d 45 d0          	lea    -0x30(%rbp),%rax
  4057cf:	be 29 ac 40 00       	mov    $0x40ac29,%esi
  4057d4:	48 89 c7             	mov    %rax,%rdi
  4057d7:	e8 b6 09 00 00       	callq  406192 <str_equal_text>
  4057dc:	85 c0                	test   %eax,%eax
  4057de:	74 11                	je     4057f1 <wait_data_connection+0x174>
  4057e0:	48 8b 45 c8          	mov    -0x38(%rbp),%rax
  4057e4:	48 89 c7             	mov    %rax,%rdi
  4057e7:	e8 8e ee ff ff       	callq  40467a <handle_cdup>
  4057ec:	e9 53 01 00 00       	jmpq   405944 <wait_data_connection+0x2c7>
  4057f1:	48 8d 45 d0          	lea    -0x30(%rbp),%rax
  4057f5:	be 2e ac 40 00       	mov    $0x40ac2e,%esi
  4057fa:	48 89 c7             	mov    %rax,%rdi
  4057fd:	e8 90 09 00 00       	callq  406192 <str_equal_text>
  405802:	85 c0                	test   %eax,%eax
  405804:	74 1d                	je     405823 <wait_data_connection+0x1a6>
  405806:	48 8d 55 e0          	lea    -0x20(%rbp),%rdx
  40580a:	48 8b 45 c8          	mov    -0x38(%rbp),%rax
  40580e:	48 89 d6             	mov    %rdx,%rsi
  405811:	48 89 c7             	mov    %rax,%rdi
  405814:	b8 00 00 00 00       	mov    $0x0,%eax
  405819:	e8 e5 ee ff ff       	callq  404703 <handle_type>
  40581e:	e9 21 01 00 00       	jmpq   405944 <wait_data_connection+0x2c7>
  405823:	48 8d 45 d0          	lea    -0x30(%rbp),%rax
  405827:	be 33 ac 40 00       	mov    $0x40ac33,%esi
  40582c:	48 89 c7             	mov    %rax,%rdi
  40582f:	e8 5e 09 00 00       	callq  406192 <str_equal_text>
  405834:	85 c0                	test   %eax,%eax
  405836:	74 18                	je     405850 <wait_data_connection+0x1d3>
  405838:	48 8d 55 e0          	lea    -0x20(%rbp),%rdx
  40583c:	48 8b 45 c8          	mov    -0x38(%rbp),%rax
  405840:	48 89 d6             	mov    %rdx,%rsi
  405843:	48 89 c7             	mov    %rax,%rdi
  405846:	e8 a3 f3 ff ff       	callq  404bee <handle_rest>
  40584b:	e9 f4 00 00 00       	jmpq   405944 <wait_data_connection+0x2c7>
  405850:	48 8d 45 d0          	lea    -0x30(%rbp),%rax
  405854:	be 38 ac 40 00       	mov    $0x40ac38,%esi
  405859:	48 89 c7             	mov    %rax,%rdi
  40585c:	e8 31 09 00 00       	callq  406192 <str_equal_text>
  405861:	85 c0                	test   %eax,%eax
  405863:	74 18                	je     40587d <wait_data_connection+0x200>
  405865:	48 8d 55 e0          	lea    -0x20(%rbp),%rdx
  405869:	48 8b 45 c8          	mov    -0x38(%rbp),%rax
  40586d:	48 89 d6             	mov    %rdx,%rsi
  405870:	48 89 c7             	mov    %rax,%rdi
  405873:	e8 3e f1 ff ff       	callq  4049b6 <handle_size>
  405878:	e9 c7 00 00 00       	jmpq   405944 <wait_data_connection+0x2c7>
  40587d:	48 8d 45 d0          	lea    -0x30(%rbp),%rax
  405881:	be 3d ac 40 00       	mov    $0x40ac3d,%esi
  405886:	48 89 c7             	mov    %rax,%rdi
  405889:	e8 04 09 00 00       	callq  406192 <str_equal_text>
  40588e:	85 c0                	test   %eax,%eax
  405890:	74 18                	je     4058aa <wait_data_connection+0x22d>
  405892:	48 8d 55 e0          	lea    -0x20(%rbp),%rdx
  405896:	48 8b 45 c8          	mov    -0x38(%rbp),%rax
  40589a:	48 89 d6             	mov    %rdx,%rsi
  40589d:	48 89 c7             	mov    %rax,%rdi
  4058a0:	e8 c2 f1 ff ff       	callq  404a67 <handle_mdtm>
  4058a5:	e9 9a 00 00 00       	jmpq   405944 <wait_data_connection+0x2c7>
  4058aa:	48 8d 45 d0          	lea    -0x30(%rbp),%rax
  4058ae:	be 42 ac 40 00       	mov    $0x40ac42,%esi
  4058b3:	48 89 c7             	mov    %rax,%rdi
  4058b6:	e8 d7 08 00 00       	callq  406192 <str_equal_text>
  4058bb:	85 c0                	test   %eax,%eax
  4058bd:	74 15                	je     4058d4 <wait_data_connection+0x257>
  4058bf:	48 8d 55 e0          	lea    -0x20(%rbp),%rdx
  4058c3:	48 8b 45 c8          	mov    -0x38(%rbp),%rax
  4058c7:	48 89 d6             	mov    %rdx,%rsi
  4058ca:	48 89 c7             	mov    %rax,%rdi
  4058cd:	e8 2b f3 ff ff       	callq  404bfd <handle_retr>
  4058d2:	eb 70                	jmp    405944 <wait_data_connection+0x2c7>
  4058d4:	48 8d 45 d0          	lea    -0x30(%rbp),%rax
  4058d8:	be 47 ac 40 00       	mov    $0x40ac47,%esi
  4058dd:	48 89 c7             	mov    %rax,%rdi
  4058e0:	e8 ad 08 00 00       	callq  406192 <str_equal_text>
  4058e5:	85 c0                	test   %eax,%eax
  4058e7:	74 15                	je     4058fe <wait_data_connection+0x281>
  4058e9:	48 8d 55 e0          	lea    -0x20(%rbp),%rdx
  4058ed:	48 8b 45 c8          	mov    -0x38(%rbp),%rax
  4058f1:	48 89 d6             	mov    %rdx,%rsi
  4058f4:	48 89 c7             	mov    %rax,%rdi
  4058f7:	e8 9d f0 ff ff       	callq  404999 <handle_mkd>
  4058fc:	eb 46                	jmp    405944 <wait_data_connection+0x2c7>
  4058fe:	48 8d 45 d0          	lea    -0x30(%rbp),%rax
  405902:	be e7 ab 40 00       	mov    $0x40abe7,%esi
  405907:	48 89 c7             	mov    %rax,%rdi
  40590a:	e8 83 08 00 00       	callq  406192 <str_equal_text>
  40590f:	85 c0                	test   %eax,%eax
  405911:	74 0c                	je     40591f <wait_data_connection+0x2a2>
  405913:	b8 00 00 00 00       	mov    $0x0,%eax
  405918:	e8 ac f2 ff ff       	callq  404bc9 <handle_quit>
  40591d:	eb 25                	jmp    405944 <wait_data_connection+0x2c7>
  40591f:	ba 4b ac 40 00       	mov    $0x40ac4b,%edx
  405924:	be f6 01 00 00       	mov    $0x1f6,%esi
  405929:	bf 00 00 00 00       	mov    $0x0,%edi
  40592e:	b8 00 00 00 00       	mov    $0x0,%eax
  405933:	e8 9a d0 ff ff       	callq  4029d2 <write_cmd_respond>
  405938:	48 8d 45 e0          	lea    -0x20(%rbp),%rax
  40593c:	48 89 c7             	mov    %rax,%rdi
  40593f:	e8 ad 06 00 00       	callq  405ff1 <str_free>
  405944:	48 8d 45 d0          	lea    -0x30(%rbp),%rax
  405948:	48 89 c7             	mov    %rax,%rdi
  40594b:	e8 a1 06 00 00       	callq  405ff1 <str_free>
  405950:	e9 59 fd ff ff       	jmpq   4056ae <wait_data_connection+0x31>

0000000000405955 <prepare_login>:
  405955:	55                   	push   %rbp
  405956:	48 89 e5             	mov    %rsp,%rbp
  405959:	48 83 ec 50          	sub    $0x50,%rsp
  40595d:	48 89 7d b8          	mov    %rdi,-0x48(%rbp)
  405961:	48 89 75 b0          	mov    %rsi,-0x50(%rbp)
  405965:	64 48 8b 04 25 28 00 	mov    %fs:0x28,%rax
  40596c:	00 00 
  40596e:	48 89 45 f8          	mov    %rax,-0x8(%rbp)
  405972:	31 c0                	xor    %eax,%eax
  405974:	be 0e 00 00 00       	mov    $0xe,%esi
  405979:	bf 5d ac 40 00       	mov    $0x40ac5d,%edi
  40597e:	e8 ba 3c 00 00       	callq  40963d <sysutil_syslog>
  405983:	c7 45 c4 08 00 00 00 	movl   $0x8,-0x3c(%rbp)
  40598a:	48 c7 45 d0 00 00 00 	movq   $0x0,-0x30(%rbp)
  405991:	00 
  405992:	c7 45 d8 00 00 00 00 	movl   $0x0,-0x28(%rbp)
  405999:	c7 45 dc 00 00 00 00 	movl   $0x0,-0x24(%rbp)
  4059a0:	48 c7 45 e0 00 00 00 	movq   $0x0,-0x20(%rbp)
  4059a7:	00 
  4059a8:	c7 45 e8 00 00 00 00 	movl   $0x0,-0x18(%rbp)
  4059af:	c7 45 ec 00 00 00 00 	movl   $0x0,-0x14(%rbp)
  4059b6:	48 c7 45 c8 00 00 00 	movq   $0x0,-0x38(%rbp)
  4059bd:	00 
  4059be:	48 8d 4d d0          	lea    -0x30(%rbp),%rcx
  4059c2:	48 8b 45 b8          	mov    -0x48(%rbp),%rax
  4059c6:	ba 20 00 00 00       	mov    $0x20,%edx
  4059cb:	48 89 ce             	mov    %rcx,%rsi
  4059ce:	48 89 c7             	mov    %rax,%rdi
  4059d1:	e8 29 0d 00 00       	callq  4066ff <str_split_char>
  4059d6:	48 8d 4d e0          	lea    -0x20(%rbp),%rcx
  4059da:	48 8d 45 d0          	lea    -0x30(%rbp),%rax
  4059de:	ba 20 00 00 00       	mov    $0x20,%edx
  4059e3:	48 89 ce             	mov    %rcx,%rsi
  4059e6:	48 89 c7             	mov    %rax,%rdi
  4059e9:	e8 11 0d 00 00       	callq  4066ff <str_split_char>
  4059ee:	48 8b 45 d0          	mov    -0x30(%rbp),%rax
  4059f2:	be 0e 00 00 00       	mov    $0xe,%esi
  4059f7:	48 89 c7             	mov    %rax,%rdi
  4059fa:	e8 3e 3c 00 00       	callq  40963d <sysutil_syslog>
  4059ff:	48 8b 45 e0          	mov    -0x20(%rbp),%rax
  405a03:	be 0e 00 00 00       	mov    $0xe,%esi
  405a08:	48 89 c7             	mov    %rax,%rdi
  405a0b:	e8 2d 3c 00 00       	callq  40963d <sysutil_syslog>
  405a10:	48 8d 45 d0          	lea    -0x30(%rbp),%rax
  405a14:	be 6b ac 40 00       	mov    $0x40ac6b,%esi
  405a19:	48 89 c7             	mov    %rax,%rdi
  405a1c:	e8 71 07 00 00       	callq  406192 <str_equal_text>
  405a21:	85 c0                	test   %eax,%eax
  405a23:	0f 85 e6 00 00 00    	jne    405b0f <prepare_login+0x1ba>
  405a29:	48 8d 45 e0          	lea    -0x20(%rbp),%rax
  405a2d:	48 89 c7             	mov    %rax,%rdi
  405a30:	e8 5c 06 00 00       	callq  406091 <str_isempty>
  405a35:	85 c0                	test   %eax,%eax
  405a37:	0f 85 82 00 00 00    	jne    405abf <prepare_login+0x16a>
  405a3d:	48 8d 45 e0          	lea    -0x20(%rbp),%rax
  405a41:	48 89 c7             	mov    %rax,%rdi
  405a44:	e8 91 13 00 00       	callq  406dda <str_all_space>
  405a49:	85 c0                	test   %eax,%eax
  405a4b:	75 72                	jne    405abf <prepare_login+0x16a>
  405a4d:	48 8d 45 e0          	lea    -0x20(%rbp),%rax
  405a51:	48 89 c7             	mov    %rax,%rdi
  405a54:	e8 51 06 00 00       	callq  4060aa <str_getlen>
  405a59:	3d 80 00 00 00       	cmp    $0x80,%eax
  405a5e:	77 5f                	ja     405abf <prepare_login+0x16a>
  405a60:	48 8d 45 e0          	lea    -0x20(%rbp),%rax
  405a64:	48 89 c7             	mov    %rax,%rdi
  405a67:	e8 7e 14 00 00       	callq  406eea <str_contains_unprintable>
  405a6c:	85 c0                	test   %eax,%eax
  405a6e:	75 4f                	jne    405abf <prepare_login+0x16a>
  405a70:	48 8b 45 d0          	mov    -0x30(%rbp),%rax
  405a74:	48 89 c7             	mov    %rax,%rdi
  405a77:	e8 d4 ca ff ff       	callq  402550 <getspnam@plt>
  405a7c:	48 89 45 c8          	mov    %rax,-0x38(%rbp)
  405a80:	48 83 7d c8 00       	cmpq   $0x0,-0x38(%rbp)
  405a85:	74 38                	je     405abf <prepare_login+0x16a>
  405a87:	48 8b 45 c8          	mov    -0x38(%rbp),%rax
  405a8b:	48 8b 50 08          	mov    0x8(%rax),%rdx
  405a8f:	48 8b 45 e0          	mov    -0x20(%rbp),%rax
  405a93:	48 89 d6             	mov    %rdx,%rsi
  405a96:	48 89 c7             	mov    %rax,%rdi
  405a99:	b8 00 00 00 00       	mov    $0x0,%eax
  405a9e:	e8 0d c8 ff ff       	callq  4022b0 <crypt@plt>
  405aa3:	48 98                	cltq   
  405aa5:	48 89 c2             	mov    %rax,%rdx
  405aa8:	48 8b 45 c8          	mov    -0x38(%rbp),%rax
  405aac:	48 8b 40 08          	mov    0x8(%rax),%rax
  405ab0:	48 89 d6             	mov    %rdx,%rsi
  405ab3:	48 89 c7             	mov    %rax,%rdi
  405ab6:	e8 d0 27 00 00       	callq  40828b <sysutil_strcmp>
  405abb:	85 c0                	test   %eax,%eax
  405abd:	74 6d                	je     405b2c <prepare_login+0x1d7>
  405abf:	48 8d 45 d0          	lea    -0x30(%rbp),%rax
  405ac3:	48 89 c7             	mov    %rax,%rdi
  405ac6:	e8 26 05 00 00       	callq  405ff1 <str_free>
  405acb:	48 8d 45 e0          	lea    -0x20(%rbp),%rax
  405acf:	48 89 c7             	mov    %rax,%rdi
  405ad2:	e8 1a 05 00 00       	callq  405ff1 <str_free>
  405ad7:	48 8b 45 b0          	mov    -0x50(%rbp),%rax
  405adb:	c7 80 30 01 00 00 01 	movl   $0x1,0x130(%rax)
  405ae2:	00 00 00 
  405ae5:	48 8b 45 b0          	mov    -0x50(%rbp),%rax
  405ae9:	8b 80 10 01 00 00    	mov    0x110(%rax),%eax
  405aef:	ba 00 00 00 00       	mov    $0x0,%edx
  405af4:	be 02 00 00 00       	mov    $0x2,%esi
  405af9:	89 c7                	mov    %eax,%edi
  405afb:	b8 00 00 00 00       	mov    $0x0,%eax
  405b00:	e8 48 d2 ff ff       	callq  402d4d <write_internal_cmd_respond>
  405b05:	b8 00 00 00 00       	mov    $0x0,%eax
  405b0a:	e9 98 00 00 00       	jmpq   405ba7 <prepare_login+0x252>
  405b0f:	48 8d 45 d0          	lea    -0x30(%rbp),%rax
  405b13:	48 89 c7             	mov    %rax,%rdi
  405b16:	e8 d6 04 00 00       	callq  405ff1 <str_free>
  405b1b:	48 8d 45 d0          	lea    -0x30(%rbp),%rax
  405b1f:	be 75 ac 40 00       	mov    $0x40ac75,%esi
  405b24:	48 89 c7             	mov    %rax,%rdi
  405b27:	e8 90 02 00 00       	callq  405dbc <str_alloc_text>
  405b2c:	be 0e 00 00 00       	mov    $0xe,%esi
  405b31:	bf 79 ac 40 00       	mov    $0x40ac79,%edi
  405b36:	e8 02 3b 00 00       	callq  40963d <sysutil_syslog>
  405b3b:	48 8b 45 b0          	mov    -0x50(%rbp),%rax
  405b3f:	8b 80 10 01 00 00    	mov    0x110(%rax),%eax
  405b45:	ba 00 00 00 00       	mov    $0x0,%edx
  405b4a:	be 01 00 00 00       	mov    $0x1,%esi
  405b4f:	89 c7                	mov    %eax,%edi
  405b51:	b8 00 00 00 00       	mov    $0x0,%eax
  405b56:	e8 f2 d1 ff ff       	callq  402d4d <write_internal_cmd_respond>
  405b5b:	48 8b 45 b0          	mov    -0x50(%rbp),%rax
  405b5f:	48 89 c7             	mov    %rax,%rdi
  405b62:	b8 00 00 00 00       	mov    $0x0,%eax
  405b67:	e8 b4 44 00 00       	callq  40a020 <close_parent_context>
  405b6c:	48 8b 4d b0          	mov    -0x50(%rbp),%rcx
  405b70:	48 8b 45 d0          	mov    -0x30(%rbp),%rax
  405b74:	48 8b 55 d8          	mov    -0x28(%rbp),%rdx
  405b78:	48 89 41 58          	mov    %rax,0x58(%rcx)
  405b7c:	48 89 51 60          	mov    %rdx,0x60(%rcx)
  405b80:	48 8b 4d b0          	mov    -0x50(%rbp),%rcx
  405b84:	48 8b 45 e0          	mov    -0x20(%rbp),%rax
  405b88:	48 8b 55 e8          	mov    -0x18(%rbp),%rdx
  405b8c:	48 89 41 68          	mov    %rax,0x68(%rcx)
  405b90:	48 89 51 70          	mov    %rdx,0x70(%rcx)
  405b94:	48 8b 45 b0          	mov    -0x50(%rbp),%rax
  405b98:	c7 80 30 01 00 00 00 	movl   $0x0,0x130(%rax)
  405b9f:	00 00 00 
  405ba2:	b8 01 00 00 00       	mov    $0x1,%eax
  405ba7:	48 8b 55 f8          	mov    -0x8(%rbp),%rdx
  405bab:	64 48 33 14 25 28 00 	xor    %fs:0x28,%rdx
  405bb2:	00 00 
  405bb4:	74 05                	je     405bbb <prepare_login+0x266>
  405bb6:	e8 e5 c5 ff ff       	callq  4021a0 <__stack_chk_fail@plt>
  405bbb:	c9                   	leaveq 
  405bbc:	c3                   	retq   

0000000000405bbd <login_user>:
  405bbd:	55                   	push   %rbp
  405bbe:	48 89 e5             	mov    %rsp,%rbp
  405bc1:	48 83 ec 40          	sub    $0x40,%rsp
  405bc5:	48 89 7d c8          	mov    %rdi,-0x38(%rbp)
  405bc9:	64 48 8b 04 25 28 00 	mov    %fs:0x28,%rax
  405bd0:	00 00 
  405bd2:	48 89 45 f8          	mov    %rax,-0x8(%rbp)
  405bd6:	31 c0                	xor    %eax,%eax
  405bd8:	48 8b 45 c8          	mov    -0x38(%rbp),%rax
  405bdc:	48 8b 40 58          	mov    0x58(%rax),%rax
  405be0:	48 89 c7             	mov    %rax,%rdi
  405be3:	e8 91 38 00 00       	callq  409479 <sysutil_getpwnam>
  405be8:	48 89 45 d0          	mov    %rax,-0x30(%rbp)
  405bec:	48 83 7d d0 00       	cmpq   $0x0,-0x30(%rbp)
  405bf1:	75 0a                	jne    405bfd <login_user+0x40>
  405bf3:	bf 82 ac 40 00       	mov    $0x40ac82,%edi
  405bf8:	e8 dd 16 00 00       	callq  4072da <die>
  405bfd:	48 8b 45 d0          	mov    -0x30(%rbp),%rax
  405c01:	48 8b 40 20          	mov    0x20(%rax),%rax
  405c05:	48 89 c7             	mov    %rax,%rdi
  405c08:	e8 73 1a 00 00       	callq  407680 <sysutil_chdir>
  405c0d:	be 0e 00 00 00       	mov    $0xe,%esi
  405c12:	bf 8c ac 40 00       	mov    $0x40ac8c,%edi
  405c17:	e8 21 3a 00 00       	callq  40963d <sysutil_syslog>
  405c1c:	bf 08 00 00 00       	mov    $0x8,%edi
  405c21:	e8 2f 41 00 00       	callq  409d55 <sysutil_prctl>
  405c26:	48 8b 45 d0          	mov    -0x30(%rbp),%rax
  405c2a:	8b 40 14             	mov    0x14(%rax),%eax
  405c2d:	89 c7                	mov    %eax,%edi
  405c2f:	e8 d3 3a 00 00       	callq  409707 <sysutil_setgid_numeric>
  405c34:	48 8b 45 d0          	mov    -0x30(%rbp),%rax
  405c38:	8b 40 10             	mov    0x10(%rax),%eax
  405c3b:	89 c7                	mov    %eax,%edi
  405c3d:	e8 9a 3a 00 00       	callq  4096dc <sysutil_setuid_numeric>
  405c42:	be 0e 00 00 00       	mov    $0xe,%esi
  405c47:	bf 92 ac 40 00       	mov    $0x40ac92,%edi
  405c4c:	e8 ec 39 00 00       	callq  40963d <sysutil_syslog>
  405c51:	b8 00 00 00 00       	mov    $0x0,%eax
  405c56:	e8 2f 41 00 00       	callq  409d8a <sysutil_capnetbind>
  405c5b:	be 0e 00 00 00       	mov    $0xe,%esi
  405c60:	bf a7 ac 40 00       	mov    $0x40aca7,%edi
  405c65:	e8 d3 39 00 00       	callq  40963d <sysutil_syslog>
  405c6a:	48 c7 45 e0 00 00 00 	movq   $0x0,-0x20(%rbp)
  405c71:	00 
  405c72:	c7 45 e8 00 00 00 00 	movl   $0x0,-0x18(%rbp)
  405c79:	c7 45 ec 00 00 00 00 	movl   $0x0,-0x14(%rbp)
  405c80:	48 8b 45 d0          	mov    -0x30(%rbp),%rax
  405c84:	48 8b 50 20          	mov    0x20(%rax),%rdx
  405c88:	48 8d 45 e0          	lea    -0x20(%rbp),%rax
  405c8c:	48 89 d6             	mov    %rdx,%rsi
  405c8f:	48 89 c7             	mov    %rax,%rdi
  405c92:	e8 25 01 00 00       	callq  405dbc <str_alloc_text>
  405c97:	48 8b 4d c8          	mov    -0x38(%rbp),%rcx
  405c9b:	48 8b 45 e0          	mov    -0x20(%rbp),%rax
  405c9f:	48 8b 55 e8          	mov    -0x18(%rbp),%rdx
  405ca3:	48 89 81 20 01 00 00 	mov    %rax,0x120(%rcx)
  405caa:	48 89 91 28 01 00 00 	mov    %rdx,0x128(%rcx)
  405cb1:	bf 10 00 00 00       	mov    $0x10,%edi
  405cb6:	e8 a8 22 00 00       	callq  407f63 <sysutil_malloc>
  405cbb:	48 89 45 d8          	mov    %rax,-0x28(%rbp)
  405cbf:	48 8b 45 d8          	mov    -0x28(%rbp),%rax
  405cc3:	48 c7 40 08 00 00 00 	movq   $0x0,0x8(%rax)
  405cca:	00 
  405ccb:	48 8b 45 d8          	mov    -0x28(%rbp),%rax
  405ccf:	c7 40 04 00 00 00 00 	movl   $0x0,0x4(%rax)
  405cd6:	48 8b 45 d8          	mov    -0x28(%rbp),%rax
  405cda:	8b 50 04             	mov    0x4(%rax),%edx
  405cdd:	48 8b 45 d8          	mov    -0x28(%rbp),%rax
  405ce1:	89 10                	mov    %edx,(%rax)
  405ce3:	48 8d 55 e0          	lea    -0x20(%rbp),%rdx
  405ce7:	48 8b 45 d8          	mov    -0x28(%rbp),%rax
  405ceb:	48 89 d6             	mov    %rdx,%rsi
  405cee:	48 89 c7             	mov    %rax,%rdi
  405cf1:	e8 4e 14 00 00       	callq  407144 <str_list_add>
  405cf6:	48 8b 45 c8          	mov    -0x38(%rbp),%rax
  405cfa:	48 8b 55 d8          	mov    -0x28(%rbp),%rdx
  405cfe:	48 89 90 a0 00 00 00 	mov    %rdx,0xa0(%rax)
  405d05:	90                   	nop
  405d06:	48 8b 45 f8          	mov    -0x8(%rbp),%rax
  405d0a:	64 48 33 04 25 28 00 	xor    %fs:0x28,%rax
  405d11:	00 00 
  405d13:	74 05                	je     405d1a <login_user+0x15d>
  405d15:	e8 86 c4 ff ff       	callq  4021a0 <__stack_chk_fail@plt>
  405d1a:	c9                   	leaveq 
  405d1b:	c3                   	retq   

0000000000405d1c <private_str_alloc_memchunk>:
  405d1c:	55                   	push   %rbp
  405d1d:	48 89 e5             	mov    %rsp,%rbp
  405d20:	48 83 ec 20          	sub    $0x20,%rsp
  405d24:	48 89 7d f8          	mov    %rdi,-0x8(%rbp)
  405d28:	48 89 75 f0          	mov    %rsi,-0x10(%rbp)
  405d2c:	89 55 ec             	mov    %edx,-0x14(%rbp)
  405d2f:	8b 45 ec             	mov    -0x14(%rbp),%eax
  405d32:	83 c0 01             	add    $0x1,%eax
  405d35:	89 c7                	mov    %eax,%edi
  405d37:	e8 27 22 00 00       	callq  407f63 <sysutil_malloc>
  405d3c:	48 89 c2             	mov    %rax,%rdx
  405d3f:	48 8b 45 f8          	mov    -0x8(%rbp),%rax
  405d43:	48 89 10             	mov    %rdx,(%rax)
  405d46:	8b 45 ec             	mov    -0x14(%rbp),%eax
  405d49:	8d 50 01             	lea    0x1(%rax),%edx
  405d4c:	48 8b 45 f8          	mov    -0x8(%rbp),%rax
  405d50:	89 50 0c             	mov    %edx,0xc(%rax)
  405d53:	48 8b 45 f8          	mov    -0x8(%rbp),%rax
  405d57:	c7 40 08 00 00 00 00 	movl   $0x0,0x8(%rax)
  405d5e:	8b 45 ec             	mov    -0x14(%rbp),%eax
  405d61:	8d 50 01             	lea    0x1(%rax),%edx
  405d64:	48 8b 45 f8          	mov    -0x8(%rbp),%rax
  405d68:	48 8b 00             	mov    (%rax),%rax
  405d6b:	89 d6                	mov    %edx,%esi
  405d6d:	48 89 c7             	mov    %rax,%rdi
  405d70:	e8 4e 24 00 00       	callq  4081c3 <sysutil_memclr>
  405d75:	48 83 7d f0 00       	cmpq   $0x0,-0x10(%rbp)
  405d7a:	74 3d                	je     405db9 <private_str_alloc_memchunk+0x9d>
  405d7c:	48 8b 45 f0          	mov    -0x10(%rbp),%rax
  405d80:	48 89 c7             	mov    %rax,%rdi
  405d83:	e8 ee 23 00 00       	callq  408176 <sysutil_strlen>
  405d88:	89 c2                	mov    %eax,%edx
  405d8a:	48 8b 45 f8          	mov    -0x8(%rbp),%rax
  405d8e:	89 50 08             	mov    %edx,0x8(%rax)
  405d91:	48 8b 45 f8          	mov    -0x8(%rbp),%rax
  405d95:	8b 40 08             	mov    0x8(%rax),%eax
  405d98:	85 c0                	test   %eax,%eax
  405d9a:	74 1d                	je     405db9 <private_str_alloc_memchunk+0x9d>
  405d9c:	48 8b 45 f8          	mov    -0x8(%rbp),%rax
  405da0:	8b 50 08             	mov    0x8(%rax),%edx
  405da3:	48 8b 45 f8          	mov    -0x8(%rbp),%rax
  405da7:	48 8b 00             	mov    (%rax),%rax
  405daa:	48 8b 4d f0          	mov    -0x10(%rbp),%rcx
  405dae:	48 89 ce             	mov    %rcx,%rsi
  405db1:	48 89 c7             	mov    %rax,%rdi
  405db4:	e8 30 24 00 00       	callq  4081e9 <sysutil_memcpy>
  405db9:	90                   	nop
  405dba:	c9                   	leaveq 
  405dbb:	c3                   	retq   

0000000000405dbc <str_alloc_text>:
  405dbc:	55                   	push   %rbp
  405dbd:	48 89 e5             	mov    %rsp,%rbp
  405dc0:	48 83 ec 20          	sub    $0x20,%rsp
  405dc4:	48 89 7d e8          	mov    %rdi,-0x18(%rbp)
  405dc8:	48 89 75 e0          	mov    %rsi,-0x20(%rbp)
  405dcc:	48 83 7d e0 00       	cmpq   $0x0,-0x20(%rbp)
  405dd1:	75 0a                	jne    405ddd <str_alloc_text+0x21>
  405dd3:	bf aa ac 40 00       	mov    $0x40acaa,%edi
  405dd8:	e8 fd 14 00 00       	callq  4072da <die>
  405ddd:	48 8b 45 e0          	mov    -0x20(%rbp),%rax
  405de1:	48 89 c7             	mov    %rax,%rdi
  405de4:	e8 8d 23 00 00       	callq  408176 <sysutil_strlen>
  405de9:	89 45 fc             	mov    %eax,-0x4(%rbp)
  405dec:	8b 45 fc             	mov    -0x4(%rbp),%eax
  405def:	83 c0 01             	add    $0x1,%eax
  405df2:	89 c7                	mov    %eax,%edi
  405df4:	e8 6a 21 00 00       	callq  407f63 <sysutil_malloc>
  405df9:	48 89 c2             	mov    %rax,%rdx
  405dfc:	48 8b 45 e8          	mov    -0x18(%rbp),%rax
  405e00:	48 89 10             	mov    %rdx,(%rax)
  405e03:	8b 45 fc             	mov    -0x4(%rbp),%eax
  405e06:	83 c0 01             	add    $0x1,%eax
  405e09:	89 c2                	mov    %eax,%edx
  405e0b:	48 8b 45 e8          	mov    -0x18(%rbp),%rax
  405e0f:	89 50 0c             	mov    %edx,0xc(%rax)
  405e12:	8b 55 fc             	mov    -0x4(%rbp),%edx
  405e15:	48 8b 45 e8          	mov    -0x18(%rbp),%rax
  405e19:	89 50 08             	mov    %edx,0x8(%rax)
  405e1c:	8b 45 fc             	mov    -0x4(%rbp),%eax
  405e1f:	83 c0 01             	add    $0x1,%eax
  405e22:	89 c2                	mov    %eax,%edx
  405e24:	48 8b 45 e8          	mov    -0x18(%rbp),%rax
  405e28:	48 8b 00             	mov    (%rax),%rax
  405e2b:	89 d6                	mov    %edx,%esi
  405e2d:	48 89 c7             	mov    %rax,%rdi
  405e30:	e8 8e 23 00 00       	callq  4081c3 <sysutil_memclr>
  405e35:	8b 55 fc             	mov    -0x4(%rbp),%edx
  405e38:	48 8b 45 e8          	mov    -0x18(%rbp),%rax
  405e3c:	48 8b 00             	mov    (%rax),%rax
  405e3f:	48 8b 4d e0          	mov    -0x20(%rbp),%rcx
  405e43:	48 89 ce             	mov    %rcx,%rsi
  405e46:	48 89 c7             	mov    %rax,%rdi
  405e49:	e8 9b 23 00 00       	callq  4081e9 <sysutil_memcpy>
  405e4e:	90                   	nop
  405e4f:	c9                   	leaveq 
  405e50:	c3                   	retq   

0000000000405e51 <str_alloc_alt_term>:
  405e51:	55                   	push   %rbp
  405e52:	48 89 e5             	mov    %rsp,%rbp
  405e55:	48 83 ec 30          	sub    $0x30,%rsp
  405e59:	48 89 7d e8          	mov    %rdi,-0x18(%rbp)
  405e5d:	48 89 75 e0          	mov    %rsi,-0x20(%rbp)
  405e61:	89 d0                	mov    %edx,%eax
  405e63:	88 45 dc             	mov    %al,-0x24(%rbp)
  405e66:	48 8b 45 e0          	mov    -0x20(%rbp),%rax
  405e6a:	48 89 c7             	mov    %rax,%rdi
  405e6d:	e8 04 23 00 00       	callq  408176 <sysutil_strlen>
  405e72:	89 45 fc             	mov    %eax,-0x4(%rbp)
  405e75:	8b 55 fc             	mov    -0x4(%rbp),%edx
  405e78:	48 8b 4d e0          	mov    -0x20(%rbp),%rcx
  405e7c:	48 8b 45 e8          	mov    -0x18(%rbp),%rax
  405e80:	48 89 ce             	mov    %rcx,%rsi
  405e83:	48 89 c7             	mov    %rax,%rdi
  405e86:	e8 91 fe ff ff       	callq  405d1c <private_str_alloc_memchunk>
  405e8b:	48 8b 45 e8          	mov    -0x18(%rbp),%rax
  405e8f:	48 8b 00             	mov    (%rax),%rax
  405e92:	8b 55 fc             	mov    -0x4(%rbp),%edx
  405e95:	48 63 d2             	movslq %edx,%rdx
  405e98:	48 83 ea 01          	sub    $0x1,%rdx
  405e9c:	48 01 c2             	add    %rax,%rdx
  405e9f:	0f b6 45 dc          	movzbl -0x24(%rbp),%eax
  405ea3:	88 02                	mov    %al,(%rdx)
  405ea5:	48 8b 45 e8          	mov    -0x18(%rbp),%rax
  405ea9:	8b 40 08             	mov    0x8(%rax),%eax
  405eac:	8d 50 ff             	lea    -0x1(%rax),%edx
  405eaf:	48 8b 45 e8          	mov    -0x18(%rbp),%rax
  405eb3:	89 50 08             	mov    %edx,0x8(%rax)
  405eb6:	90                   	nop
  405eb7:	c9                   	leaveq 
  405eb8:	c3                   	retq   

0000000000405eb9 <str_alloc_ulong>:
  405eb9:	55                   	push   %rbp
  405eba:	48 89 e5             	mov    %rsp,%rbp
  405ebd:	48 83 ec 20          	sub    $0x20,%rsp
  405ec1:	48 89 7d e8          	mov    %rdi,-0x18(%rbp)
  405ec5:	48 89 75 e0          	mov    %rsi,-0x20(%rbp)
  405ec9:	c7 45 fc 08 00 00 00 	movl   $0x8,-0x4(%rbp)
  405ed0:	8b 45 fc             	mov    -0x4(%rbp),%eax
  405ed3:	89 c7                	mov    %eax,%edi
  405ed5:	e8 89 20 00 00       	callq  407f63 <sysutil_malloc>
  405eda:	48 89 c2             	mov    %rax,%rdx
  405edd:	48 8b 45 e8          	mov    -0x18(%rbp),%rax
  405ee1:	48 89 10             	mov    %rdx,(%rax)
  405ee4:	8b 55 fc             	mov    -0x4(%rbp),%edx
  405ee7:	48 8b 45 e8          	mov    -0x18(%rbp),%rax
  405eeb:	89 50 0c             	mov    %edx,0xc(%rax)
  405eee:	8b 55 fc             	mov    -0x4(%rbp),%edx
  405ef1:	48 8b 45 e8          	mov    -0x18(%rbp),%rax
  405ef5:	89 50 08             	mov    %edx,0x8(%rax)
  405ef8:	8b 55 fc             	mov    -0x4(%rbp),%edx
  405efb:	48 8b 45 e8          	mov    -0x18(%rbp),%rax
  405eff:	48 8b 00             	mov    (%rax),%rax
  405f02:	48 8d 4d e0          	lea    -0x20(%rbp),%rcx
  405f06:	48 89 ce             	mov    %rcx,%rsi
  405f09:	48 89 c7             	mov    %rax,%rdi
  405f0c:	e8 d8 22 00 00       	callq  4081e9 <sysutil_memcpy>
  405f11:	90                   	nop
  405f12:	c9                   	leaveq 
  405f13:	c3                   	retq   

0000000000405f14 <str_alloc_filesize_t>:
  405f14:	55                   	push   %rbp
  405f15:	48 89 e5             	mov    %rsp,%rbp
  405f18:	48 83 ec 20          	sub    $0x20,%rsp
  405f1c:	48 89 7d e8          	mov    %rdi,-0x18(%rbp)
  405f20:	48 89 75 e0          	mov    %rsi,-0x20(%rbp)
  405f24:	c7 45 fc 08 00 00 00 	movl   $0x8,-0x4(%rbp)
  405f2b:	8b 45 fc             	mov    -0x4(%rbp),%eax
  405f2e:	89 c7                	mov    %eax,%edi
  405f30:	e8 2e 20 00 00       	callq  407f63 <sysutil_malloc>
  405f35:	48 89 c2             	mov    %rax,%rdx
  405f38:	48 8b 45 e8          	mov    -0x18(%rbp),%rax
  405f3c:	48 89 10             	mov    %rdx,(%rax)
  405f3f:	8b 55 fc             	mov    -0x4(%rbp),%edx
  405f42:	48 8b 45 e8          	mov    -0x18(%rbp),%rax
  405f46:	89 50 0c             	mov    %edx,0xc(%rax)
  405f49:	8b 55 fc             	mov    -0x4(%rbp),%edx
  405f4c:	48 8b 45 e8          	mov    -0x18(%rbp),%rax
  405f50:	89 50 08             	mov    %edx,0x8(%rax)
  405f53:	8b 55 fc             	mov    -0x4(%rbp),%edx
  405f56:	48 8b 45 e8          	mov    -0x18(%rbp),%rax
  405f5a:	48 8b 00             	mov    (%rax),%rax
  405f5d:	48 8d 4d e0          	lea    -0x20(%rbp),%rcx
  405f61:	48 89 ce             	mov    %rcx,%rsi
  405f64:	48 89 c7             	mov    %rax,%rdi
  405f67:	e8 7d 22 00 00       	callq  4081e9 <sysutil_memcpy>
  405f6c:	90                   	nop
  405f6d:	c9                   	leaveq 
  405f6e:	c3                   	retq   

0000000000405f6f <str_copy>:
  405f6f:	55                   	push   %rbp
  405f70:	48 89 e5             	mov    %rsp,%rbp
  405f73:	48 83 ec 10          	sub    $0x10,%rsp
  405f77:	48 89 7d f8          	mov    %rdi,-0x8(%rbp)
  405f7b:	48 89 75 f0          	mov    %rsi,-0x10(%rbp)
  405f7f:	48 8b 45 f0          	mov    -0x10(%rbp),%rax
  405f83:	8b 50 08             	mov    0x8(%rax),%edx
  405f86:	48 8b 45 f0          	mov    -0x10(%rbp),%rax
  405f8a:	48 8b 08             	mov    (%rax),%rcx
  405f8d:	48 8b 45 f8          	mov    -0x8(%rbp),%rax
  405f91:	48 8b 00             	mov    (%rax),%rax
  405f94:	48 89 ce             	mov    %rcx,%rsi
  405f97:	48 89 c7             	mov    %rax,%rdi
  405f9a:	e8 4a 22 00 00       	callq  4081e9 <sysutil_memcpy>
  405f9f:	90                   	nop
  405fa0:	c9                   	leaveq 
  405fa1:	c3                   	retq   

0000000000405fa2 <str_strdup>:
  405fa2:	55                   	push   %rbp
  405fa3:	48 89 e5             	mov    %rsp,%rbp
  405fa6:	48 83 ec 10          	sub    $0x10,%rsp
  405faa:	48 89 7d f8          	mov    %rdi,-0x8(%rbp)
  405fae:	48 8b 45 f8          	mov    -0x8(%rbp),%rax
  405fb2:	48 8b 00             	mov    (%rax),%rax
  405fb5:	48 89 c7             	mov    %rax,%rdi
  405fb8:	e8 a3 c6 ff ff       	callq  402660 <strdup@plt>
  405fbd:	c9                   	leaveq 
  405fbe:	c3                   	retq   

0000000000405fbf <str_empty>:
  405fbf:	55                   	push   %rbp
  405fc0:	48 89 e5             	mov    %rsp,%rbp
  405fc3:	48 83 ec 10          	sub    $0x10,%rsp
  405fc7:	48 89 7d f8          	mov    %rdi,-0x8(%rbp)
  405fcb:	48 8b 45 f8          	mov    -0x8(%rbp),%rax
  405fcf:	8b 50 08             	mov    0x8(%rax),%edx
  405fd2:	48 8b 45 f8          	mov    -0x8(%rbp),%rax
  405fd6:	48 8b 00             	mov    (%rax),%rax
  405fd9:	89 d6                	mov    %edx,%esi
  405fdb:	48 89 c7             	mov    %rax,%rdi
  405fde:	e8 e0 21 00 00       	callq  4081c3 <sysutil_memclr>
  405fe3:	48 8b 45 f8          	mov    -0x8(%rbp),%rax
  405fe7:	c7 40 08 00 00 00 00 	movl   $0x0,0x8(%rax)
  405fee:	90                   	nop
  405fef:	c9                   	leaveq 
  405ff0:	c3                   	retq   

0000000000405ff1 <str_free>:
  405ff1:	55                   	push   %rbp
  405ff2:	48 89 e5             	mov    %rsp,%rbp
  405ff5:	48 83 ec 10          	sub    $0x10,%rsp
  405ff9:	48 89 7d f8          	mov    %rdi,-0x8(%rbp)
  405ffd:	48 8b 45 f8          	mov    -0x8(%rbp),%rax
  406001:	c7 40 0c 00 00 00 00 	movl   $0x0,0xc(%rax)
  406008:	48 8b 45 f8          	mov    -0x8(%rbp),%rax
  40600c:	c7 40 08 00 00 00 00 	movl   $0x0,0x8(%rax)
  406013:	48 8b 45 f8          	mov    -0x8(%rbp),%rax
  406017:	48 8b 00             	mov    (%rax),%rax
  40601a:	48 89 c7             	mov    %rax,%rdi
  40601d:	e8 a5 1f 00 00       	callq  407fc7 <sysutil_free>
  406022:	48 8b 45 f8          	mov    -0x8(%rbp),%rax
  406026:	48 c7 00 00 00 00 00 	movq   $0x0,(%rax)
  40602d:	90                   	nop
  40602e:	c9                   	leaveq 
  40602f:	c3                   	retq   

0000000000406030 <str_trunc>:
  406030:	55                   	push   %rbp
  406031:	48 89 e5             	mov    %rsp,%rbp
  406034:	48 83 ec 10          	sub    $0x10,%rsp
  406038:	48 89 7d f8          	mov    %rdi,-0x8(%rbp)
  40603c:	89 75 f4             	mov    %esi,-0xc(%rbp)
  40603f:	48 8b 45 f8          	mov    -0x8(%rbp),%rax
  406043:	48 8b 00             	mov    (%rax),%rax
  406046:	8b 55 f4             	mov    -0xc(%rbp),%edx
  406049:	89 d6                	mov    %edx,%esi
  40604b:	48 89 c7             	mov    %rax,%rdi
  40604e:	e8 70 21 00 00       	callq  4081c3 <sysutil_memclr>
  406053:	48 8b 45 f8          	mov    -0x8(%rbp),%rax
  406057:	c7 40 08 00 00 00 00 	movl   $0x0,0x8(%rax)
  40605e:	90                   	nop
  40605f:	c9                   	leaveq 
  406060:	c3                   	retq   

0000000000406061 <str_reserve>:
  406061:	55                   	push   %rbp
  406062:	48 89 e5             	mov    %rsp,%rbp
  406065:	48 83 ec 10          	sub    $0x10,%rsp
  406069:	48 89 7d f8          	mov    %rdi,-0x8(%rbp)
  40606d:	89 75 f4             	mov    %esi,-0xc(%rbp)
  406070:	8b 45 f4             	mov    -0xc(%rbp),%eax
  406073:	89 c7                	mov    %eax,%edi
  406075:	e8 e9 1e 00 00       	callq  407f63 <sysutil_malloc>
  40607a:	48 89 c2             	mov    %rax,%rdx
  40607d:	48 8b 45 f8          	mov    -0x8(%rbp),%rax
  406081:	48 89 10             	mov    %rdx,(%rax)
  406084:	48 8b 45 f8          	mov    -0x8(%rbp),%rax
  406088:	8b 55 f4             	mov    -0xc(%rbp),%edx
  40608b:	89 50 0c             	mov    %edx,0xc(%rax)
  40608e:	90                   	nop
  40608f:	c9                   	leaveq 
  406090:	c3                   	retq   

0000000000406091 <str_isempty>:
  406091:	55                   	push   %rbp
  406092:	48 89 e5             	mov    %rsp,%rbp
  406095:	48 89 7d f8          	mov    %rdi,-0x8(%rbp)
  406099:	48 8b 45 f8          	mov    -0x8(%rbp),%rax
  40609d:	8b 40 08             	mov    0x8(%rax),%eax
  4060a0:	85 c0                	test   %eax,%eax
  4060a2:	0f 94 c0             	sete   %al
  4060a5:	0f b6 c0             	movzbl %al,%eax
  4060a8:	5d                   	pop    %rbp
  4060a9:	c3                   	retq   

00000000004060aa <str_getlen>:
  4060aa:	55                   	push   %rbp
  4060ab:	48 89 e5             	mov    %rsp,%rbp
  4060ae:	48 89 7d f8          	mov    %rdi,-0x8(%rbp)
  4060b2:	48 8b 45 f8          	mov    -0x8(%rbp),%rax
  4060b6:	8b 40 08             	mov    0x8(%rax),%eax
  4060b9:	5d                   	pop    %rbp
  4060ba:	c3                   	retq   

00000000004060bb <str_getbuf>:
  4060bb:	55                   	push   %rbp
  4060bc:	48 89 e5             	mov    %rsp,%rbp
  4060bf:	48 89 7d f8          	mov    %rdi,-0x8(%rbp)
  4060c3:	48 8b 45 f8          	mov    -0x8(%rbp),%rax
  4060c7:	48 8b 00             	mov    (%rax),%rax
  4060ca:	5d                   	pop    %rbp
  4060cb:	c3                   	retq   

00000000004060cc <str_strcmp>:
  4060cc:	55                   	push   %rbp
  4060cd:	48 89 e5             	mov    %rsp,%rbp
  4060d0:	48 83 ec 10          	sub    $0x10,%rsp
  4060d4:	48 89 7d f8          	mov    %rdi,-0x8(%rbp)
  4060d8:	48 89 75 f0          	mov    %rsi,-0x10(%rbp)
  4060dc:	48 8b 45 f0          	mov    -0x10(%rbp),%rax
  4060e0:	8b 48 08             	mov    0x8(%rax),%ecx
  4060e3:	48 8b 45 f0          	mov    -0x10(%rbp),%rax
  4060e7:	48 8b 10             	mov    (%rax),%rdx
  4060ea:	48 8b 45 f8          	mov    -0x8(%rbp),%rax
  4060ee:	8b 70 08             	mov    0x8(%rax),%esi
  4060f1:	48 8b 45 f8          	mov    -0x8(%rbp),%rax
  4060f5:	48 8b 00             	mov    (%rax),%rax
  4060f8:	48 89 c7             	mov    %rax,%rdi
  4060fb:	b8 00 00 00 00       	mov    $0x0,%eax
  406100:	e8 02 00 00 00       	callq  406107 <str_equal_internal>
  406105:	c9                   	leaveq 
  406106:	c3                   	retq   

0000000000406107 <str_equal_internal>:
  406107:	55                   	push   %rbp
  406108:	48 89 e5             	mov    %rsp,%rbp
  40610b:	48 83 ec 30          	sub    $0x30,%rsp
  40610f:	48 89 7d e8          	mov    %rdi,-0x18(%rbp)
  406113:	89 75 e4             	mov    %esi,-0x1c(%rbp)
  406116:	48 89 55 d8          	mov    %rdx,-0x28(%rbp)
  40611a:	89 4d e0             	mov    %ecx,-0x20(%rbp)
  40611d:	8b 45 e4             	mov    -0x1c(%rbp),%eax
  406120:	89 45 f8             	mov    %eax,-0x8(%rbp)
  406123:	8b 45 f8             	mov    -0x8(%rbp),%eax
  406126:	39 45 e0             	cmp    %eax,-0x20(%rbp)
  406129:	73 06                	jae    406131 <str_equal_internal+0x2a>
  40612b:	8b 45 e0             	mov    -0x20(%rbp),%eax
  40612e:	89 45 f8             	mov    %eax,-0x8(%rbp)
  406131:	8b 55 f8             	mov    -0x8(%rbp),%edx
  406134:	48 8b 4d d8          	mov    -0x28(%rbp),%rcx
  406138:	48 8b 45 e8          	mov    -0x18(%rbp),%rax
  40613c:	48 89 ce             	mov    %rcx,%rsi
  40613f:	48 89 c7             	mov    %rax,%rdi
  406142:	e8 0c 21 00 00       	callq  408253 <sysutil_memcmp>
  406147:	89 45 fc             	mov    %eax,-0x4(%rbp)
  40614a:	83 7d fc 00          	cmpl   $0x0,-0x4(%rbp)
  40614e:	75 08                	jne    406158 <str_equal_internal+0x51>
  406150:	8b 45 e4             	mov    -0x1c(%rbp),%eax
  406153:	3b 45 e0             	cmp    -0x20(%rbp),%eax
  406156:	75 05                	jne    40615d <str_equal_internal+0x56>
  406158:	8b 45 fc             	mov    -0x4(%rbp),%eax
  40615b:	eb 06                	jmp    406163 <str_equal_internal+0x5c>
  40615d:	8b 45 e4             	mov    -0x1c(%rbp),%eax
  406160:	2b 45 e0             	sub    -0x20(%rbp),%eax
  406163:	c9                   	leaveq 
  406164:	c3                   	retq   

0000000000406165 <str_equal>:
  406165:	55                   	push   %rbp
  406166:	48 89 e5             	mov    %rsp,%rbp
  406169:	48 83 ec 10          	sub    $0x10,%rsp
  40616d:	48 89 7d f8          	mov    %rdi,-0x8(%rbp)
  406171:	48 89 75 f0          	mov    %rsi,-0x10(%rbp)
  406175:	48 8b 55 f0          	mov    -0x10(%rbp),%rdx
  406179:	48 8b 45 f8          	mov    -0x8(%rbp),%rax
  40617d:	48 89 d6             	mov    %rdx,%rsi
  406180:	48 89 c7             	mov    %rax,%rdi
  406183:	e8 44 ff ff ff       	callq  4060cc <str_strcmp>
  406188:	85 c0                	test   %eax,%eax
  40618a:	0f 94 c0             	sete   %al
  40618d:	0f b6 c0             	movzbl %al,%eax
  406190:	c9                   	leaveq 
  406191:	c3                   	retq   

0000000000406192 <str_equal_text>:
  406192:	55                   	push   %rbp
  406193:	48 89 e5             	mov    %rsp,%rbp
  406196:	48 83 ec 20          	sub    $0x20,%rsp
  40619a:	48 89 7d e8          	mov    %rdi,-0x18(%rbp)
  40619e:	48 89 75 e0          	mov    %rsi,-0x20(%rbp)
  4061a2:	48 8b 45 e0          	mov    -0x20(%rbp),%rax
  4061a6:	48 89 c7             	mov    %rax,%rdi
  4061a9:	e8 c8 1f 00 00       	callq  408176 <sysutil_strlen>
  4061ae:	89 45 f8             	mov    %eax,-0x8(%rbp)
  4061b1:	48 8b 45 e8          	mov    -0x18(%rbp),%rax
  4061b5:	48 8b 00             	mov    (%rax),%rax
  4061b8:	48 89 c7             	mov    %rax,%rdi
  4061bb:	e8 b6 1f 00 00       	callq  408176 <sysutil_strlen>
  4061c0:	89 45 fc             	mov    %eax,-0x4(%rbp)
  4061c3:	48 8b 45 e8          	mov    -0x18(%rbp),%rax
  4061c7:	48 8b 00             	mov    (%rax),%rax
  4061ca:	8b 4d f8             	mov    -0x8(%rbp),%ecx
  4061cd:	48 8b 55 e0          	mov    -0x20(%rbp),%rdx
  4061d1:	8b 75 fc             	mov    -0x4(%rbp),%esi
  4061d4:	48 89 c7             	mov    %rax,%rdi
  4061d7:	e8 2b ff ff ff       	callq  406107 <str_equal_internal>
  4061dc:	85 c0                	test   %eax,%eax
  4061de:	0f 94 c0             	sete   %al
  4061e1:	0f b6 c0             	movzbl %al,%eax
  4061e4:	c9                   	leaveq 
  4061e5:	c3                   	retq   

00000000004061e6 <str_append_str>:
  4061e6:	55                   	push   %rbp
  4061e7:	48 89 e5             	mov    %rsp,%rbp
  4061ea:	48 83 ec 20          	sub    $0x20,%rsp
  4061ee:	48 89 7d e8          	mov    %rdi,-0x18(%rbp)
  4061f2:	48 89 75 e0          	mov    %rsi,-0x20(%rbp)
  4061f6:	48 8b 45 e8          	mov    -0x18(%rbp),%rax
  4061fa:	8b 40 08             	mov    0x8(%rax),%eax
  4061fd:	89 45 f4             	mov    %eax,-0xc(%rbp)
  406200:	48 8b 45 e0          	mov    -0x20(%rbp),%rax
  406204:	8b 40 08             	mov    0x8(%rax),%eax
  406207:	89 45 f8             	mov    %eax,-0x8(%rbp)
  40620a:	48 8b 45 e8          	mov    -0x18(%rbp),%rax
  40620e:	8b 50 0c             	mov    0xc(%rax),%edx
  406211:	8b 45 f4             	mov    -0xc(%rbp),%eax
  406214:	29 c2                	sub    %eax,%edx
  406216:	89 d0                	mov    %edx,%eax
  406218:	89 45 fc             	mov    %eax,-0x4(%rbp)
  40621b:	8b 45 fc             	mov    -0x4(%rbp),%eax
  40621e:	3b 45 f8             	cmp    -0x8(%rbp),%eax
  406221:	7d 19                	jge    40623c <str_append_str+0x56>
  406223:	8b 45 f8             	mov    -0x8(%rbp),%eax
  406226:	2b 45 fc             	sub    -0x4(%rbp),%eax
  406229:	83 c0 01             	add    $0x1,%eax
  40622c:	89 c2                	mov    %eax,%edx
  40622e:	48 8b 45 e8          	mov    -0x18(%rbp),%rax
  406232:	89 d6                	mov    %edx,%esi
  406234:	48 89 c7             	mov    %rax,%rdi
  406237:	e8 4c 03 00 00       	callq  406588 <str_rpad>
  40623c:	8b 55 f8             	mov    -0x8(%rbp),%edx
  40623f:	48 8b 45 e0          	mov    -0x20(%rbp),%rax
  406243:	48 8b 00             	mov    (%rax),%rax
  406246:	48 8b 4d e8          	mov    -0x18(%rbp),%rcx
  40624a:	48 8b 31             	mov    (%rcx),%rsi
  40624d:	8b 4d f4             	mov    -0xc(%rbp),%ecx
  406250:	48 63 c9             	movslq %ecx,%rcx
  406253:	48 01 f1             	add    %rsi,%rcx
  406256:	48 89 c6             	mov    %rax,%rsi
  406259:	48 89 cf             	mov    %rcx,%rdi
  40625c:	e8 88 1f 00 00       	callq  4081e9 <sysutil_memcpy>
  406261:	48 8b 45 e8          	mov    -0x18(%rbp),%rax
  406265:	8b 50 08             	mov    0x8(%rax),%edx
  406268:	8b 45 f8             	mov    -0x8(%rbp),%eax
  40626b:	01 c2                	add    %eax,%edx
  40626d:	48 8b 45 e8          	mov    -0x18(%rbp),%rax
  406271:	89 50 08             	mov    %edx,0x8(%rax)
  406274:	90                   	nop
  406275:	c9                   	leaveq 
  406276:	c3                   	retq   

0000000000406277 <str_append_text>:
  406277:	55                   	push   %rbp
  406278:	48 89 e5             	mov    %rsp,%rbp
  40627b:	48 83 ec 20          	sub    $0x20,%rsp
  40627f:	48 89 7d e8          	mov    %rdi,-0x18(%rbp)
  406283:	48 89 75 e0          	mov    %rsi,-0x20(%rbp)
  406287:	48 8b 45 e8          	mov    -0x18(%rbp),%rax
  40628b:	8b 40 08             	mov    0x8(%rax),%eax
  40628e:	89 45 f4             	mov    %eax,-0xc(%rbp)
  406291:	48 8b 45 e0          	mov    -0x20(%rbp),%rax
  406295:	48 89 c7             	mov    %rax,%rdi
  406298:	e8 d9 1e 00 00       	callq  408176 <sysutil_strlen>
  40629d:	89 45 f8             	mov    %eax,-0x8(%rbp)
  4062a0:	48 8b 45 e8          	mov    -0x18(%rbp),%rax
  4062a4:	8b 50 0c             	mov    0xc(%rax),%edx
  4062a7:	8b 45 f4             	mov    -0xc(%rbp),%eax
  4062aa:	29 c2                	sub    %eax,%edx
  4062ac:	89 d0                	mov    %edx,%eax
  4062ae:	89 45 fc             	mov    %eax,-0x4(%rbp)
  4062b1:	8b 45 fc             	mov    -0x4(%rbp),%eax
  4062b4:	3b 45 f8             	cmp    -0x8(%rbp),%eax
  4062b7:	7d 19                	jge    4062d2 <str_append_text+0x5b>
  4062b9:	8b 45 f8             	mov    -0x8(%rbp),%eax
  4062bc:	2b 45 fc             	sub    -0x4(%rbp),%eax
  4062bf:	83 c0 01             	add    $0x1,%eax
  4062c2:	89 c2                	mov    %eax,%edx
  4062c4:	48 8b 45 e8          	mov    -0x18(%rbp),%rax
  4062c8:	89 d6                	mov    %edx,%esi
  4062ca:	48 89 c7             	mov    %rax,%rdi
  4062cd:	e8 b6 02 00 00       	callq  406588 <str_rpad>
  4062d2:	8b 55 f8             	mov    -0x8(%rbp),%edx
  4062d5:	48 8b 45 e8          	mov    -0x18(%rbp),%rax
  4062d9:	48 8b 08             	mov    (%rax),%rcx
  4062dc:	8b 45 f4             	mov    -0xc(%rbp),%eax
  4062df:	48 98                	cltq   
  4062e1:	48 01 c1             	add    %rax,%rcx
  4062e4:	48 8b 45 e0          	mov    -0x20(%rbp),%rax
  4062e8:	48 89 c6             	mov    %rax,%rsi
  4062eb:	48 89 cf             	mov    %rcx,%rdi
  4062ee:	e8 f6 1e 00 00       	callq  4081e9 <sysutil_memcpy>
  4062f3:	48 8b 45 e8          	mov    -0x18(%rbp),%rax
  4062f7:	8b 50 08             	mov    0x8(%rax),%edx
  4062fa:	8b 45 f8             	mov    -0x8(%rbp),%eax
  4062fd:	01 c2                	add    %eax,%edx
  4062ff:	48 8b 45 e8          	mov    -0x18(%rbp),%rax
  406303:	89 50 08             	mov    %edx,0x8(%rax)
  406306:	90                   	nop
  406307:	c9                   	leaveq 
  406308:	c3                   	retq   

0000000000406309 <str_append_ulong>:
  406309:	55                   	push   %rbp
  40630a:	48 89 e5             	mov    %rsp,%rbp
  40630d:	48 83 ec 20          	sub    $0x20,%rsp
  406311:	48 89 7d e8          	mov    %rdi,-0x18(%rbp)
  406315:	48 89 75 e0          	mov    %rsi,-0x20(%rbp)
  406319:	48 8b 45 e8          	mov    -0x18(%rbp),%rax
  40631d:	8b 40 08             	mov    0x8(%rax),%eax
  406320:	89 45 f4             	mov    %eax,-0xc(%rbp)
  406323:	c7 45 f8 08 00 00 00 	movl   $0x8,-0x8(%rbp)
  40632a:	48 8b 45 e8          	mov    -0x18(%rbp),%rax
  40632e:	8b 50 0c             	mov    0xc(%rax),%edx
  406331:	8b 45 f4             	mov    -0xc(%rbp),%eax
  406334:	29 c2                	sub    %eax,%edx
  406336:	89 d0                	mov    %edx,%eax
  406338:	89 45 fc             	mov    %eax,-0x4(%rbp)
  40633b:	8b 45 fc             	mov    -0x4(%rbp),%eax
  40633e:	3b 45 f8             	cmp    -0x8(%rbp),%eax
  406341:	7d 16                	jge    406359 <str_append_ulong+0x50>
  406343:	8b 45 f8             	mov    -0x8(%rbp),%eax
  406346:	2b 45 fc             	sub    -0x4(%rbp),%eax
  406349:	89 c2                	mov    %eax,%edx
  40634b:	48 8b 45 e8          	mov    -0x18(%rbp),%rax
  40634f:	89 d6                	mov    %edx,%esi
  406351:	48 89 c7             	mov    %rax,%rdi
  406354:	e8 2f 02 00 00       	callq  406588 <str_rpad>
  406359:	8b 55 f8             	mov    -0x8(%rbp),%edx
  40635c:	48 8b 45 e8          	mov    -0x18(%rbp),%rax
  406360:	48 8b 08             	mov    (%rax),%rcx
  406363:	8b 45 f4             	mov    -0xc(%rbp),%eax
  406366:	48 98                	cltq   
  406368:	48 01 c1             	add    %rax,%rcx
  40636b:	48 8d 45 e0          	lea    -0x20(%rbp),%rax
  40636f:	48 89 c6             	mov    %rax,%rsi
  406372:	48 89 cf             	mov    %rcx,%rdi
  406375:	e8 6f 1e 00 00       	callq  4081e9 <sysutil_memcpy>
  40637a:	48 8b 45 e8          	mov    -0x18(%rbp),%rax
  40637e:	8b 50 08             	mov    0x8(%rax),%edx
  406381:	8b 45 f8             	mov    -0x8(%rbp),%eax
  406384:	01 c2                	add    %eax,%edx
  406386:	48 8b 45 e8          	mov    -0x18(%rbp),%rax
  40638a:	89 50 08             	mov    %edx,0x8(%rax)
  40638d:	90                   	nop
  40638e:	c9                   	leaveq 
  40638f:	c3                   	retq   

0000000000406390 <str_append_filesize_t>:
  406390:	55                   	push   %rbp
  406391:	48 89 e5             	mov    %rsp,%rbp
  406394:	48 83 ec 20          	sub    $0x20,%rsp
  406398:	48 89 7d e8          	mov    %rdi,-0x18(%rbp)
  40639c:	48 89 75 e0          	mov    %rsi,-0x20(%rbp)
  4063a0:	48 8b 45 e8          	mov    -0x18(%rbp),%rax
  4063a4:	8b 40 08             	mov    0x8(%rax),%eax
  4063a7:	89 45 f4             	mov    %eax,-0xc(%rbp)
  4063aa:	c7 45 f8 08 00 00 00 	movl   $0x8,-0x8(%rbp)
  4063b1:	48 8b 45 e8          	mov    -0x18(%rbp),%rax
  4063b5:	8b 50 0c             	mov    0xc(%rax),%edx
  4063b8:	8b 45 f4             	mov    -0xc(%rbp),%eax
  4063bb:	29 c2                	sub    %eax,%edx
  4063bd:	89 d0                	mov    %edx,%eax
  4063bf:	89 45 fc             	mov    %eax,-0x4(%rbp)
  4063c2:	8b 45 fc             	mov    -0x4(%rbp),%eax
  4063c5:	3b 45 f8             	cmp    -0x8(%rbp),%eax
  4063c8:	7d 16                	jge    4063e0 <str_append_filesize_t+0x50>
  4063ca:	8b 45 f8             	mov    -0x8(%rbp),%eax
  4063cd:	2b 45 fc             	sub    -0x4(%rbp),%eax
  4063d0:	89 c2                	mov    %eax,%edx
  4063d2:	48 8b 45 e8          	mov    -0x18(%rbp),%rax
  4063d6:	89 d6                	mov    %edx,%esi
  4063d8:	48 89 c7             	mov    %rax,%rdi
  4063db:	e8 a8 01 00 00       	callq  406588 <str_rpad>
  4063e0:	8b 55 f8             	mov    -0x8(%rbp),%edx
  4063e3:	48 8b 45 e8          	mov    -0x18(%rbp),%rax
  4063e7:	48 8b 08             	mov    (%rax),%rcx
  4063ea:	8b 45 f4             	mov    -0xc(%rbp),%eax
  4063ed:	48 98                	cltq   
  4063ef:	48 01 c1             	add    %rax,%rcx
  4063f2:	48 8d 45 e0          	lea    -0x20(%rbp),%rax
  4063f6:	48 89 c6             	mov    %rax,%rsi
  4063f9:	48 89 cf             	mov    %rcx,%rdi
  4063fc:	e8 e8 1d 00 00       	callq  4081e9 <sysutil_memcpy>
  406401:	48 8b 45 e8          	mov    -0x18(%rbp),%rax
  406405:	8b 50 08             	mov    0x8(%rax),%edx
  406408:	8b 45 f8             	mov    -0x8(%rbp),%eax
  40640b:	01 c2                	add    %eax,%edx
  40640d:	48 8b 45 e8          	mov    -0x18(%rbp),%rax
  406411:	89 50 08             	mov    %edx,0x8(%rax)
  406414:	90                   	nop
  406415:	c9                   	leaveq 
  406416:	c3                   	retq   

0000000000406417 <str_append_char>:
  406417:	55                   	push   %rbp
  406418:	48 89 e5             	mov    %rsp,%rbp
  40641b:	48 83 ec 20          	sub    $0x20,%rsp
  40641f:	48 89 7d e8          	mov    %rdi,-0x18(%rbp)
  406423:	89 f0                	mov    %esi,%eax
  406425:	88 45 e4             	mov    %al,-0x1c(%rbp)
  406428:	48 8b 45 e8          	mov    -0x18(%rbp),%rax
  40642c:	8b 40 08             	mov    0x8(%rax),%eax
  40642f:	89 45 f4             	mov    %eax,-0xc(%rbp)
  406432:	c7 45 f8 01 00 00 00 	movl   $0x1,-0x8(%rbp)
  406439:	48 8b 45 e8          	mov    -0x18(%rbp),%rax
  40643d:	8b 50 0c             	mov    0xc(%rax),%edx
  406440:	8b 45 f4             	mov    -0xc(%rbp),%eax
  406443:	29 c2                	sub    %eax,%edx
  406445:	89 d0                	mov    %edx,%eax
  406447:	89 45 fc             	mov    %eax,-0x4(%rbp)
  40644a:	8b 45 fc             	mov    -0x4(%rbp),%eax
  40644d:	3b 45 f8             	cmp    -0x8(%rbp),%eax
  406450:	7f 11                	jg     406463 <str_append_char+0x4c>
  406452:	48 8b 45 e8          	mov    -0x18(%rbp),%rax
  406456:	be 02 00 00 00       	mov    $0x2,%esi
  40645b:	48 89 c7             	mov    %rax,%rdi
  40645e:	e8 25 01 00 00       	callq  406588 <str_rpad>
  406463:	8b 55 f8             	mov    -0x8(%rbp),%edx
  406466:	48 8b 45 e8          	mov    -0x18(%rbp),%rax
  40646a:	48 8b 08             	mov    (%rax),%rcx
  40646d:	8b 45 f4             	mov    -0xc(%rbp),%eax
  406470:	48 98                	cltq   
  406472:	48 01 c1             	add    %rax,%rcx
  406475:	48 8d 45 e4          	lea    -0x1c(%rbp),%rax
  406479:	48 89 c6             	mov    %rax,%rsi
  40647c:	48 89 cf             	mov    %rcx,%rdi
  40647f:	e8 65 1d 00 00       	callq  4081e9 <sysutil_memcpy>
  406484:	0f b6 45 e4          	movzbl -0x1c(%rbp),%eax
  406488:	84 c0                	test   %al,%al
  40648a:	74 13                	je     40649f <str_append_char+0x88>
  40648c:	48 8b 45 e8          	mov    -0x18(%rbp),%rax
  406490:	8b 50 08             	mov    0x8(%rax),%edx
  406493:	8b 45 f8             	mov    -0x8(%rbp),%eax
  406496:	01 c2                	add    %eax,%edx
  406498:	48 8b 45 e8          	mov    -0x18(%rbp),%rax
  40649c:	89 50 08             	mov    %edx,0x8(%rax)
  40649f:	90                   	nop
  4064a0:	c9                   	leaveq 
  4064a1:	c3                   	retq   

00000000004064a2 <str_append_double>:
  4064a2:	55                   	push   %rbp
  4064a3:	48 89 e5             	mov    %rsp,%rbp
  4064a6:	48 83 ec 20          	sub    $0x20,%rsp
  4064aa:	48 89 7d e8          	mov    %rdi,-0x18(%rbp)
  4064ae:	f2 0f 11 45 e0       	movsd  %xmm0,-0x20(%rbp)
  4064b3:	48 8b 45 e8          	mov    -0x18(%rbp),%rax
  4064b7:	8b 40 08             	mov    0x8(%rax),%eax
  4064ba:	89 45 f4             	mov    %eax,-0xc(%rbp)
  4064bd:	c7 45 f8 08 00 00 00 	movl   $0x8,-0x8(%rbp)
  4064c4:	48 8b 45 e8          	mov    -0x18(%rbp),%rax
  4064c8:	8b 50 0c             	mov    0xc(%rax),%edx
  4064cb:	8b 45 f4             	mov    -0xc(%rbp),%eax
  4064ce:	29 c2                	sub    %eax,%edx
  4064d0:	89 d0                	mov    %edx,%eax
  4064d2:	89 45 fc             	mov    %eax,-0x4(%rbp)
  4064d5:	8b 45 fc             	mov    -0x4(%rbp),%eax
  4064d8:	3b 45 f8             	cmp    -0x8(%rbp),%eax
  4064db:	7d 16                	jge    4064f3 <str_append_double+0x51>
  4064dd:	8b 45 f8             	mov    -0x8(%rbp),%eax
  4064e0:	2b 45 fc             	sub    -0x4(%rbp),%eax
  4064e3:	89 c2                	mov    %eax,%edx
  4064e5:	48 8b 45 e8          	mov    -0x18(%rbp),%rax
  4064e9:	89 d6                	mov    %edx,%esi
  4064eb:	48 89 c7             	mov    %rax,%rdi
  4064ee:	e8 95 00 00 00       	callq  406588 <str_rpad>
  4064f3:	8b 55 f8             	mov    -0x8(%rbp),%edx
  4064f6:	48 8b 45 e8          	mov    -0x18(%rbp),%rax
  4064fa:	48 8b 08             	mov    (%rax),%rcx
  4064fd:	8b 45 f4             	mov    -0xc(%rbp),%eax
  406500:	48 98                	cltq   
  406502:	48 01 c1             	add    %rax,%rcx
  406505:	48 8d 45 e0          	lea    -0x20(%rbp),%rax
  406509:	48 89 c6             	mov    %rax,%rsi
  40650c:	48 89 cf             	mov    %rcx,%rdi
  40650f:	e8 d5 1c 00 00       	callq  4081e9 <sysutil_memcpy>
  406514:	48 8b 45 e8          	mov    -0x18(%rbp),%rax
  406518:	8b 50 08             	mov    0x8(%rax),%edx
  40651b:	8b 45 f8             	mov    -0x8(%rbp),%eax
  40651e:	01 c2                	add    %eax,%edx
  406520:	48 8b 45 e8          	mov    -0x18(%rbp),%rax
  406524:	89 50 08             	mov    %edx,0x8(%rax)
  406527:	90                   	nop
  406528:	c9                   	leaveq 
  406529:	c3                   	retq   

000000000040652a <str_upper>:
  40652a:	55                   	push   %rbp
  40652b:	48 89 e5             	mov    %rsp,%rbp
  40652e:	53                   	push   %rbx
  40652f:	48 83 ec 28          	sub    $0x28,%rsp
  406533:	48 89 7d d8          	mov    %rdi,-0x28(%rbp)
  406537:	c7 45 ec 00 00 00 00 	movl   $0x0,-0x14(%rbp)
  40653e:	eb 32                	jmp    406572 <str_upper+0x48>
  406540:	48 8b 45 d8          	mov    -0x28(%rbp),%rax
  406544:	48 8b 10             	mov    (%rax),%rdx
  406547:	8b 45 ec             	mov    -0x14(%rbp),%eax
  40654a:	48 98                	cltq   
  40654c:	48 8d 1c 02          	lea    (%rdx,%rax,1),%rbx
  406550:	48 8b 45 d8          	mov    -0x28(%rbp),%rax
  406554:	48 8b 10             	mov    (%rax),%rdx
  406557:	8b 45 ec             	mov    -0x14(%rbp),%eax
  40655a:	48 98                	cltq   
  40655c:	48 01 d0             	add    %rdx,%rax
  40655f:	0f b6 00             	movzbl (%rax),%eax
  406562:	0f be c0             	movsbl %al,%eax
  406565:	89 c7                	mov    %eax,%edi
  406567:	e8 c3 1d 00 00       	callq  40832f <sysutil_toupper>
  40656c:	88 03                	mov    %al,(%rbx)
  40656e:	83 45 ec 01          	addl   $0x1,-0x14(%rbp)
  406572:	48 8b 45 d8          	mov    -0x28(%rbp),%rax
  406576:	8b 50 08             	mov    0x8(%rax),%edx
  406579:	8b 45 ec             	mov    -0x14(%rbp),%eax
  40657c:	39 c2                	cmp    %eax,%edx
  40657e:	77 c0                	ja     406540 <str_upper+0x16>
  406580:	90                   	nop
  406581:	48 83 c4 28          	add    $0x28,%rsp
  406585:	5b                   	pop    %rbx
  406586:	5d                   	pop    %rbp
  406587:	c3                   	retq   

0000000000406588 <str_rpad>:
  406588:	55                   	push   %rbp
  406589:	48 89 e5             	mov    %rsp,%rbp
  40658c:	48 83 ec 20          	sub    $0x20,%rsp
  406590:	48 89 7d e8          	mov    %rdi,-0x18(%rbp)
  406594:	89 75 e4             	mov    %esi,-0x1c(%rbp)
  406597:	48 8b 45 e8          	mov    -0x18(%rbp),%rax
  40659b:	8b 50 0c             	mov    0xc(%rax),%edx
  40659e:	8b 45 e4             	mov    -0x1c(%rbp),%eax
  4065a1:	01 d0                	add    %edx,%eax
  4065a3:	89 45 f4             	mov    %eax,-0xc(%rbp)
  4065a6:	8b 45 f4             	mov    -0xc(%rbp),%eax
  4065a9:	89 c7                	mov    %eax,%edi
  4065ab:	e8 b3 19 00 00       	callq  407f63 <sysutil_malloc>
  4065b0:	48 89 45 f8          	mov    %rax,-0x8(%rbp)
  4065b4:	8b 55 f4             	mov    -0xc(%rbp),%edx
  4065b7:	48 8b 45 f8          	mov    -0x8(%rbp),%rax
  4065bb:	89 d6                	mov    %edx,%esi
  4065bd:	48 89 c7             	mov    %rax,%rdi
  4065c0:	e8 fe 1b 00 00       	callq  4081c3 <sysutil_memclr>
  4065c5:	48 8b 45 e8          	mov    -0x18(%rbp),%rax
  4065c9:	8b 50 08             	mov    0x8(%rax),%edx
  4065cc:	48 8b 45 e8          	mov    -0x18(%rbp),%rax
  4065d0:	48 8b 08             	mov    (%rax),%rcx
  4065d3:	48 8b 45 f8          	mov    -0x8(%rbp),%rax
  4065d7:	48 89 ce             	mov    %rcx,%rsi
  4065da:	48 89 c7             	mov    %rax,%rdi
  4065dd:	e8 07 1c 00 00       	callq  4081e9 <sysutil_memcpy>
  4065e2:	48 8b 45 e8          	mov    -0x18(%rbp),%rax
  4065e6:	48 8b 00             	mov    (%rax),%rax
  4065e9:	48 89 c7             	mov    %rax,%rdi
  4065ec:	e8 d6 19 00 00       	callq  407fc7 <sysutil_free>
  4065f1:	48 8b 45 e8          	mov    -0x18(%rbp),%rax
  4065f5:	48 8b 55 f8          	mov    -0x8(%rbp),%rdx
  4065f9:	48 89 10             	mov    %rdx,(%rax)
  4065fc:	8b 55 f4             	mov    -0xc(%rbp),%edx
  4065ff:	48 8b 45 e8          	mov    -0x18(%rbp),%rax
  406603:	89 50 0c             	mov    %edx,0xc(%rax)
  406606:	90                   	nop
  406607:	c9                   	leaveq 
  406608:	c3                   	retq   

0000000000406609 <str_lpad>:
  406609:	55                   	push   %rbp
  40660a:	48 89 e5             	mov    %rsp,%rbp
  40660d:	48 83 ec 20          	sub    $0x20,%rsp
  406611:	48 89 7d e8          	mov    %rdi,-0x18(%rbp)
  406615:	89 75 e4             	mov    %esi,-0x1c(%rbp)
  406618:	48 8b 45 e8          	mov    -0x18(%rbp),%rax
  40661c:	8b 50 0c             	mov    0xc(%rax),%edx
  40661f:	8b 45 e4             	mov    -0x1c(%rbp),%eax
  406622:	01 d0                	add    %edx,%eax
  406624:	89 45 f4             	mov    %eax,-0xc(%rbp)
  406627:	8b 45 f4             	mov    -0xc(%rbp),%eax
  40662a:	89 c7                	mov    %eax,%edi
  40662c:	e8 32 19 00 00       	callq  407f63 <sysutil_malloc>
  406631:	48 89 45 f8          	mov    %rax,-0x8(%rbp)
  406635:	8b 55 f4             	mov    -0xc(%rbp),%edx
  406638:	48 8b 45 f8          	mov    -0x8(%rbp),%rax
  40663c:	89 d6                	mov    %edx,%esi
  40663e:	48 89 c7             	mov    %rax,%rdi
  406641:	e8 7d 1b 00 00       	callq  4081c3 <sysutil_memclr>
  406646:	48 8b 45 e8          	mov    -0x18(%rbp),%rax
  40664a:	8b 50 08             	mov    0x8(%rax),%edx
  40664d:	48 8b 45 e8          	mov    -0x18(%rbp),%rax
  406651:	48 8b 00             	mov    (%rax),%rax
  406654:	8b 75 e4             	mov    -0x1c(%rbp),%esi
  406657:	48 8b 4d f8          	mov    -0x8(%rbp),%rcx
  40665b:	48 01 f1             	add    %rsi,%rcx
  40665e:	48 89 c6             	mov    %rax,%rsi
  406661:	48 89 cf             	mov    %rcx,%rdi
  406664:	e8 80 1b 00 00       	callq  4081e9 <sysutil_memcpy>
  406669:	48 8b 45 e8          	mov    -0x18(%rbp),%rax
  40666d:	48 8b 00             	mov    (%rax),%rax
  406670:	48 89 c7             	mov    %rax,%rdi
  406673:	e8 4f 19 00 00       	callq  407fc7 <sysutil_free>
  406678:	48 8b 45 e8          	mov    -0x18(%rbp),%rax
  40667c:	48 8b 55 f8          	mov    -0x8(%rbp),%rdx
  406680:	48 89 10             	mov    %rdx,(%rax)
  406683:	8b 55 f4             	mov    -0xc(%rbp),%edx
  406686:	48 8b 45 e8          	mov    -0x18(%rbp),%rax
  40668a:	89 50 0c             	mov    %edx,0xc(%rax)
  40668d:	90                   	nop
  40668e:	c9                   	leaveq 
  40668f:	c3                   	retq   

0000000000406690 <str_replace_char>:
  406690:	55                   	push   %rbp
  406691:	48 89 e5             	mov    %rsp,%rbp
  406694:	48 89 7d e8          	mov    %rdi,-0x18(%rbp)
  406698:	89 f1                	mov    %esi,%ecx
  40669a:	89 d0                	mov    %edx,%eax
  40669c:	88 4d e4             	mov    %cl,-0x1c(%rbp)
  40669f:	88 45 e0             	mov    %al,-0x20(%rbp)
  4066a2:	c7 45 fc 00 00 00 00 	movl   $0x0,-0x4(%rbp)
  4066a9:	eb 30                	jmp    4066db <str_replace_char+0x4b>
  4066ab:	48 8b 45 e8          	mov    -0x18(%rbp),%rax
  4066af:	48 8b 10             	mov    (%rax),%rdx
  4066b2:	8b 45 fc             	mov    -0x4(%rbp),%eax
  4066b5:	48 98                	cltq   
  4066b7:	48 01 d0             	add    %rdx,%rax
  4066ba:	0f b6 00             	movzbl (%rax),%eax
  4066bd:	3a 45 e4             	cmp    -0x1c(%rbp),%al
  4066c0:	75 15                	jne    4066d7 <str_replace_char+0x47>
  4066c2:	48 8b 45 e8          	mov    -0x18(%rbp),%rax
  4066c6:	48 8b 10             	mov    (%rax),%rdx
  4066c9:	8b 45 fc             	mov    -0x4(%rbp),%eax
  4066cc:	48 98                	cltq   
  4066ce:	48 01 c2             	add    %rax,%rdx
  4066d1:	0f b6 45 e0          	movzbl -0x20(%rbp),%eax
  4066d5:	88 02                	mov    %al,(%rdx)
  4066d7:	83 45 fc 01          	addl   $0x1,-0x4(%rbp)
  4066db:	48 8b 45 e8          	mov    -0x18(%rbp),%rax
  4066df:	8b 50 08             	mov    0x8(%rax),%edx
  4066e2:	8b 45 fc             	mov    -0x4(%rbp),%eax
  4066e5:	39 c2                	cmp    %eax,%edx
  4066e7:	77 c2                	ja     4066ab <str_replace_char+0x1b>
  4066e9:	90                   	nop
  4066ea:	5d                   	pop    %rbp
  4066eb:	c3                   	retq   

00000000004066ec <str_replace_text>:
  4066ec:	55                   	push   %rbp
  4066ed:	48 89 e5             	mov    %rsp,%rbp
  4066f0:	48 89 7d f8          	mov    %rdi,-0x8(%rbp)
  4066f4:	48 89 75 f0          	mov    %rsi,-0x10(%rbp)
  4066f8:	48 89 55 e8          	mov    %rdx,-0x18(%rbp)
  4066fc:	90                   	nop
  4066fd:	5d                   	pop    %rbp
  4066fe:	c3                   	retq   

00000000004066ff <str_split_char>:
  4066ff:	55                   	push   %rbp
  406700:	48 89 e5             	mov    %rsp,%rbp
  406703:	48 83 ec 30          	sub    $0x30,%rsp
  406707:	48 89 7d e8          	mov    %rdi,-0x18(%rbp)
  40670b:	48 89 75 e0          	mov    %rsi,-0x20(%rbp)
  40670f:	89 d0                	mov    %edx,%eax
  406711:	88 45 dc             	mov    %al,-0x24(%rbp)
  406714:	48 8b 45 e8          	mov    -0x18(%rbp),%rax
  406718:	8b 40 08             	mov    0x8(%rax),%eax
  40671b:	89 45 f8             	mov    %eax,-0x8(%rbp)
  40671e:	c7 45 f4 00 00 00 00 	movl   $0x0,-0xc(%rbp)
  406725:	eb 1b                	jmp    406742 <str_split_char+0x43>
  406727:	48 8b 45 e8          	mov    -0x18(%rbp),%rax
  40672b:	48 8b 10             	mov    (%rax),%rdx
  40672e:	8b 45 f4             	mov    -0xc(%rbp),%eax
  406731:	48 98                	cltq   
  406733:	48 01 d0             	add    %rdx,%rax
  406736:	0f b6 00             	movzbl (%rax),%eax
  406739:	3a 45 dc             	cmp    -0x24(%rbp),%al
  40673c:	74 0e                	je     40674c <str_split_char+0x4d>
  40673e:	83 45 f4 01          	addl   $0x1,-0xc(%rbp)
  406742:	8b 45 f4             	mov    -0xc(%rbp),%eax
  406745:	3b 45 f8             	cmp    -0x8(%rbp),%eax
  406748:	7c dd                	jl     406727 <str_split_char+0x28>
  40674a:	eb 01                	jmp    40674d <str_split_char+0x4e>
  40674c:	90                   	nop
  40674d:	8b 45 f8             	mov    -0x8(%rbp),%eax
  406750:	2b 45 f4             	sub    -0xc(%rbp),%eax
  406753:	83 e8 01             	sub    $0x1,%eax
  406756:	89 45 fc             	mov    %eax,-0x4(%rbp)
  406759:	83 7d fc 00          	cmpl   $0x0,-0x4(%rbp)
  40675d:	7e 72                	jle    4067d1 <str_split_char+0xd2>
  40675f:	8b 45 fc             	mov    -0x4(%rbp),%eax
  406762:	83 c0 01             	add    $0x1,%eax
  406765:	89 c7                	mov    %eax,%edi
  406767:	e8 f7 17 00 00       	callq  407f63 <sysutil_malloc>
  40676c:	48 89 c2             	mov    %rax,%rdx
  40676f:	48 8b 45 e0          	mov    -0x20(%rbp),%rax
  406773:	48 89 10             	mov    %rdx,(%rax)
  406776:	8b 45 fc             	mov    -0x4(%rbp),%eax
  406779:	83 c0 01             	add    $0x1,%eax
  40677c:	89 c2                	mov    %eax,%edx
  40677e:	48 8b 45 e0          	mov    -0x20(%rbp),%rax
  406782:	48 8b 00             	mov    (%rax),%rax
  406785:	89 d6                	mov    %edx,%esi
  406787:	48 89 c7             	mov    %rax,%rdi
  40678a:	e8 34 1a 00 00       	callq  4081c3 <sysutil_memclr>
  40678f:	8b 45 fc             	mov    -0x4(%rbp),%eax
  406792:	83 c0 01             	add    $0x1,%eax
  406795:	89 c2                	mov    %eax,%edx
  406797:	48 8b 45 e0          	mov    -0x20(%rbp),%rax
  40679b:	89 50 0c             	mov    %edx,0xc(%rax)
  40679e:	8b 55 fc             	mov    -0x4(%rbp),%edx
  4067a1:	48 8b 45 e0          	mov    -0x20(%rbp),%rax
  4067a5:	89 50 08             	mov    %edx,0x8(%rax)
  4067a8:	8b 55 fc             	mov    -0x4(%rbp),%edx
  4067ab:	48 8b 45 e8          	mov    -0x18(%rbp),%rax
  4067af:	48 8b 00             	mov    (%rax),%rax
  4067b2:	8b 4d f4             	mov    -0xc(%rbp),%ecx
  4067b5:	48 63 c9             	movslq %ecx,%rcx
  4067b8:	48 83 c1 01          	add    $0x1,%rcx
  4067bc:	48 01 c1             	add    %rax,%rcx
  4067bf:	48 8b 45 e0          	mov    -0x20(%rbp),%rax
  4067c3:	48 8b 00             	mov    (%rax),%rax
  4067c6:	48 89 ce             	mov    %rcx,%rsi
  4067c9:	48 89 c7             	mov    %rax,%rdi
  4067cc:	e8 18 1a 00 00       	callq  4081e9 <sysutil_memcpy>
  4067d1:	8b 45 fc             	mov    -0x4(%rbp),%eax
  4067d4:	83 c0 01             	add    $0x1,%eax
  4067d7:	89 c1                	mov    %eax,%ecx
  4067d9:	48 8b 45 e8          	mov    -0x18(%rbp),%rax
  4067dd:	48 8b 10             	mov    (%rax),%rdx
  4067e0:	8b 45 f4             	mov    -0xc(%rbp),%eax
  4067e3:	48 98                	cltq   
  4067e5:	48 01 d0             	add    %rdx,%rax
  4067e8:	89 ce                	mov    %ecx,%esi
  4067ea:	48 89 c7             	mov    %rax,%rdi
  4067ed:	e8 d1 19 00 00       	callq  4081c3 <sysutil_memclr>
  4067f2:	8b 55 f4             	mov    -0xc(%rbp),%edx
  4067f5:	48 8b 45 e8          	mov    -0x18(%rbp),%rax
  4067f9:	89 50 08             	mov    %edx,0x8(%rax)
  4067fc:	90                   	nop
  4067fd:	c9                   	leaveq 
  4067fe:	c3                   	retq   

00000000004067ff <str_split_char_reverse>:
  4067ff:	55                   	push   %rbp
  406800:	48 89 e5             	mov    %rsp,%rbp
  406803:	48 83 ec 30          	sub    $0x30,%rsp
  406807:	48 89 7d e8          	mov    %rdi,-0x18(%rbp)
  40680b:	48 89 75 e0          	mov    %rsi,-0x20(%rbp)
  40680f:	89 d0                	mov    %edx,%eax
  406811:	88 45 dc             	mov    %al,-0x24(%rbp)
  406814:	48 8b 45 e8          	mov    -0x18(%rbp),%rax
  406818:	8b 40 08             	mov    0x8(%rax),%eax
  40681b:	89 45 f8             	mov    %eax,-0x8(%rbp)
  40681e:	8b 45 f8             	mov    -0x8(%rbp),%eax
  406821:	83 e8 01             	sub    $0x1,%eax
  406824:	89 45 f4             	mov    %eax,-0xc(%rbp)
  406827:	eb 1b                	jmp    406844 <str_split_char_reverse+0x45>
  406829:	48 8b 45 e8          	mov    -0x18(%rbp),%rax
  40682d:	48 8b 10             	mov    (%rax),%rdx
  406830:	8b 45 f4             	mov    -0xc(%rbp),%eax
  406833:	48 98                	cltq   
  406835:	48 01 d0             	add    %rdx,%rax
  406838:	0f b6 00             	movzbl (%rax),%eax
  40683b:	3a 45 dc             	cmp    -0x24(%rbp),%al
  40683e:	74 0c                	je     40684c <str_split_char_reverse+0x4d>
  406840:	83 6d f4 01          	subl   $0x1,-0xc(%rbp)
  406844:	83 7d f4 00          	cmpl   $0x0,-0xc(%rbp)
  406848:	79 df                	jns    406829 <str_split_char_reverse+0x2a>
  40684a:	eb 01                	jmp    40684d <str_split_char_reverse+0x4e>
  40684c:	90                   	nop
  40684d:	8b 45 f8             	mov    -0x8(%rbp),%eax
  406850:	2b 45 f4             	sub    -0xc(%rbp),%eax
  406853:	83 e8 01             	sub    $0x1,%eax
  406856:	89 45 fc             	mov    %eax,-0x4(%rbp)
  406859:	83 7d fc 00          	cmpl   $0x0,-0x4(%rbp)
  40685d:	7e 72                	jle    4068d1 <str_split_char_reverse+0xd2>
  40685f:	8b 45 fc             	mov    -0x4(%rbp),%eax
  406862:	83 c0 01             	add    $0x1,%eax
  406865:	89 c7                	mov    %eax,%edi
  406867:	e8 f7 16 00 00       	callq  407f63 <sysutil_malloc>
  40686c:	48 89 c2             	mov    %rax,%rdx
  40686f:	48 8b 45 e0          	mov    -0x20(%rbp),%rax
  406873:	48 89 10             	mov    %rdx,(%rax)
  406876:	8b 45 fc             	mov    -0x4(%rbp),%eax
  406879:	83 c0 01             	add    $0x1,%eax
  40687c:	89 c2                	mov    %eax,%edx
  40687e:	48 8b 45 e0          	mov    -0x20(%rbp),%rax
  406882:	48 8b 00             	mov    (%rax),%rax
  406885:	89 d6                	mov    %edx,%esi
  406887:	48 89 c7             	mov    %rax,%rdi
  40688a:	e8 34 19 00 00       	callq  4081c3 <sysutil_memclr>
  40688f:	8b 45 fc             	mov    -0x4(%rbp),%eax
  406892:	83 c0 01             	add    $0x1,%eax
  406895:	89 c2                	mov    %eax,%edx
  406897:	48 8b 45 e0          	mov    -0x20(%rbp),%rax
  40689b:	89 50 0c             	mov    %edx,0xc(%rax)
  40689e:	8b 55 fc             	mov    -0x4(%rbp),%edx
  4068a1:	48 8b 45 e0          	mov    -0x20(%rbp),%rax
  4068a5:	89 50 08             	mov    %edx,0x8(%rax)
  4068a8:	8b 55 fc             	mov    -0x4(%rbp),%edx
  4068ab:	48 8b 45 e8          	mov    -0x18(%rbp),%rax
  4068af:	48 8b 00             	mov    (%rax),%rax
  4068b2:	8b 4d f4             	mov    -0xc(%rbp),%ecx
  4068b5:	48 63 c9             	movslq %ecx,%rcx
  4068b8:	48 83 c1 01          	add    $0x1,%rcx
  4068bc:	48 01 c1             	add    %rax,%rcx
  4068bf:	48 8b 45 e0          	mov    -0x20(%rbp),%rax
  4068c3:	48 8b 00             	mov    (%rax),%rax
  4068c6:	48 89 ce             	mov    %rcx,%rsi
  4068c9:	48 89 c7             	mov    %rax,%rdi
  4068cc:	e8 18 19 00 00       	callq  4081e9 <sysutil_memcpy>
  4068d1:	8b 45 f8             	mov    -0x8(%rbp),%eax
  4068d4:	2b 45 f4             	sub    -0xc(%rbp),%eax
  4068d7:	89 c1                	mov    %eax,%ecx
  4068d9:	48 8b 45 e8          	mov    -0x18(%rbp),%rax
  4068dd:	48 8b 10             	mov    (%rax),%rdx
  4068e0:	8b 45 f4             	mov    -0xc(%rbp),%eax
  4068e3:	48 98                	cltq   
  4068e5:	48 01 d0             	add    %rdx,%rax
  4068e8:	89 ce                	mov    %ecx,%esi
  4068ea:	48 89 c7             	mov    %rax,%rdi
  4068ed:	e8 d1 18 00 00       	callq  4081c3 <sysutil_memclr>
  4068f2:	8b 55 f4             	mov    -0xc(%rbp),%edx
  4068f5:	48 8b 45 e8          	mov    -0x18(%rbp),%rax
  4068f9:	89 50 08             	mov    %edx,0x8(%rax)
  4068fc:	90                   	nop
  4068fd:	c9                   	leaveq 
  4068fe:	c3                   	retq   

00000000004068ff <str_split_text>:
  4068ff:	55                   	push   %rbp
  406900:	48 89 e5             	mov    %rsp,%rbp
  406903:	48 83 ec 40          	sub    $0x40,%rsp
  406907:	48 89 7d d8          	mov    %rdi,-0x28(%rbp)
  40690b:	48 89 75 d0          	mov    %rsi,-0x30(%rbp)
  40690f:	48 89 55 c8          	mov    %rdx,-0x38(%rbp)
  406913:	48 8b 45 d8          	mov    -0x28(%rbp),%rax
  406917:	8b 40 08             	mov    0x8(%rax),%eax
  40691a:	89 45 f4             	mov    %eax,-0xc(%rbp)
  40691d:	48 8b 45 c8          	mov    -0x38(%rbp),%rax
  406921:	48 89 c7             	mov    %rax,%rdi
  406924:	e8 4d 18 00 00       	callq  408176 <sysutil_strlen>
  406929:	89 45 f8             	mov    %eax,-0x8(%rbp)
  40692c:	48 8b 45 c8          	mov    -0x38(%rbp),%rax
  406930:	0f b6 00             	movzbl (%rax),%eax
  406933:	84 c0                	test   %al,%al
  406935:	0f 84 14 01 00 00    	je     406a4f <str_split_text+0x150>
  40693b:	c7 45 e8 00 00 00 00 	movl   $0x0,-0x18(%rbp)
  406942:	eb 69                	jmp    4069ad <str_split_text+0xae>
  406944:	c7 45 ec 00 00 00 00 	movl   $0x0,-0x14(%rbp)
  40694b:	8b 45 e8             	mov    -0x18(%rbp),%eax
  40694e:	89 45 f0             	mov    %eax,-0x10(%rbp)
  406951:	eb 08                	jmp    40695b <str_split_text+0x5c>
  406953:	83 45 f0 01          	addl   $0x1,-0x10(%rbp)
  406957:	83 45 ec 01          	addl   $0x1,-0x14(%rbp)
  40695b:	48 8b 45 d8          	mov    -0x28(%rbp),%rax
  40695f:	48 8b 10             	mov    (%rax),%rdx
  406962:	8b 45 f0             	mov    -0x10(%rbp),%eax
  406965:	48 98                	cltq   
  406967:	48 01 d0             	add    %rdx,%rax
  40696a:	0f b6 10             	movzbl (%rax),%edx
  40696d:	8b 45 ec             	mov    -0x14(%rbp),%eax
  406970:	48 63 c8             	movslq %eax,%rcx
  406973:	48 8b 45 c8          	mov    -0x38(%rbp),%rax
  406977:	48 01 c8             	add    %rcx,%rax
  40697a:	0f b6 00             	movzbl (%rax),%eax
  40697d:	38 c2                	cmp    %al,%dl
  40697f:	75 14                	jne    406995 <str_split_text+0x96>
  406981:	8b 45 ec             	mov    -0x14(%rbp),%eax
  406984:	48 63 d0             	movslq %eax,%rdx
  406987:	48 8b 45 c8          	mov    -0x38(%rbp),%rax
  40698b:	48 01 d0             	add    %rdx,%rax
  40698e:	0f b6 00             	movzbl (%rax),%eax
  406991:	84 c0                	test   %al,%al
  406993:	75 be                	jne    406953 <str_split_text+0x54>
  406995:	8b 45 ec             	mov    -0x14(%rbp),%eax
  406998:	48 63 d0             	movslq %eax,%rdx
  40699b:	48 8b 45 c8          	mov    -0x38(%rbp),%rax
  40699f:	48 01 d0             	add    %rdx,%rax
  4069a2:	0f b6 00             	movzbl (%rax),%eax
  4069a5:	84 c0                	test   %al,%al
  4069a7:	74 0e                	je     4069b7 <str_split_text+0xb8>
  4069a9:	83 45 e8 01          	addl   $0x1,-0x18(%rbp)
  4069ad:	8b 45 e8             	mov    -0x18(%rbp),%eax
  4069b0:	3b 45 f4             	cmp    -0xc(%rbp),%eax
  4069b3:	7c 8f                	jl     406944 <str_split_text+0x45>
  4069b5:	eb 01                	jmp    4069b8 <str_split_text+0xb9>
  4069b7:	90                   	nop
  4069b8:	8b 45 f4             	mov    -0xc(%rbp),%eax
  4069bb:	2b 45 f8             	sub    -0x8(%rbp),%eax
  4069be:	2b 45 e8             	sub    -0x18(%rbp),%eax
  4069c1:	89 45 fc             	mov    %eax,-0x4(%rbp)
  4069c4:	83 7d fc 00          	cmpl   $0x0,-0x4(%rbp)
  4069c8:	74 56                	je     406a20 <str_split_text+0x121>
  4069ca:	8b 45 fc             	mov    -0x4(%rbp),%eax
  4069cd:	89 c7                	mov    %eax,%edi
  4069cf:	e8 8f 15 00 00       	callq  407f63 <sysutil_malloc>
  4069d4:	48 89 c2             	mov    %rax,%rdx
  4069d7:	48 8b 45 d0          	mov    -0x30(%rbp),%rax
  4069db:	48 89 10             	mov    %rdx,(%rax)
  4069de:	8b 55 fc             	mov    -0x4(%rbp),%edx
  4069e1:	48 8b 45 d0          	mov    -0x30(%rbp),%rax
  4069e5:	89 50 0c             	mov    %edx,0xc(%rax)
  4069e8:	8b 55 fc             	mov    -0x4(%rbp),%edx
  4069eb:	48 8b 45 d0          	mov    -0x30(%rbp),%rax
  4069ef:	89 50 08             	mov    %edx,0x8(%rax)
  4069f2:	8b 55 fc             	mov    -0x4(%rbp),%edx
  4069f5:	48 8b 45 d8          	mov    -0x28(%rbp),%rax
  4069f9:	48 8b 00             	mov    (%rax),%rax
  4069fc:	8b 4d e8             	mov    -0x18(%rbp),%ecx
  4069ff:	48 63 f1             	movslq %ecx,%rsi
  406a02:	8b 4d f8             	mov    -0x8(%rbp),%ecx
  406a05:	48 63 c9             	movslq %ecx,%rcx
  406a08:	48 01 f1             	add    %rsi,%rcx
  406a0b:	48 01 c1             	add    %rax,%rcx
  406a0e:	48 8b 45 d0          	mov    -0x30(%rbp),%rax
  406a12:	48 8b 00             	mov    (%rax),%rax
  406a15:	48 89 ce             	mov    %rcx,%rsi
  406a18:	48 89 c7             	mov    %rax,%rdi
  406a1b:	e8 c9 17 00 00       	callq  4081e9 <sysutil_memcpy>
  406a20:	8b 55 f8             	mov    -0x8(%rbp),%edx
  406a23:	8b 45 fc             	mov    -0x4(%rbp),%eax
  406a26:	01 d0                	add    %edx,%eax
  406a28:	89 c1                	mov    %eax,%ecx
  406a2a:	48 8b 45 d8          	mov    -0x28(%rbp),%rax
  406a2e:	48 8b 10             	mov    (%rax),%rdx
  406a31:	8b 45 e8             	mov    -0x18(%rbp),%eax
  406a34:	48 98                	cltq   
  406a36:	48 01 d0             	add    %rdx,%rax
  406a39:	89 ce                	mov    %ecx,%esi
  406a3b:	48 89 c7             	mov    %rax,%rdi
  406a3e:	e8 80 17 00 00       	callq  4081c3 <sysutil_memclr>
  406a43:	8b 55 e8             	mov    -0x18(%rbp),%edx
  406a46:	48 8b 45 d8          	mov    -0x28(%rbp),%rax
  406a4a:	89 50 08             	mov    %edx,0x8(%rax)
  406a4d:	eb 01                	jmp    406a50 <str_split_text+0x151>
  406a4f:	90                   	nop
  406a50:	c9                   	leaveq 
  406a51:	c3                   	retq   

0000000000406a52 <str_split_text_reverse>:
  406a52:	55                   	push   %rbp
  406a53:	48 89 e5             	mov    %rsp,%rbp
  406a56:	48 83 ec 40          	sub    $0x40,%rsp
  406a5a:	48 89 7d d8          	mov    %rdi,-0x28(%rbp)
  406a5e:	48 89 75 d0          	mov    %rsi,-0x30(%rbp)
  406a62:	48 89 55 c8          	mov    %rdx,-0x38(%rbp)
  406a66:	48 8b 45 d8          	mov    -0x28(%rbp),%rax
  406a6a:	8b 40 08             	mov    0x8(%rax),%eax
  406a6d:	89 45 f4             	mov    %eax,-0xc(%rbp)
  406a70:	48 8b 45 c8          	mov    -0x38(%rbp),%rax
  406a74:	48 89 c7             	mov    %rax,%rdi
  406a77:	e8 fa 16 00 00       	callq  408176 <sysutil_strlen>
  406a7c:	89 45 f8             	mov    %eax,-0x8(%rbp)
  406a7f:	48 8b 45 c8          	mov    -0x38(%rbp),%rax
  406a83:	0f b6 00             	movzbl (%rax),%eax
  406a86:	84 c0                	test   %al,%al
  406a88:	0f 84 17 01 00 00    	je     406ba5 <str_split_text_reverse+0x153>
  406a8e:	8b 45 f4             	mov    -0xc(%rbp),%eax
  406a91:	2b 45 f8             	sub    -0x8(%rbp),%eax
  406a94:	83 c0 01             	add    $0x1,%eax
  406a97:	89 45 e8             	mov    %eax,-0x18(%rbp)
  406a9a:	eb 69                	jmp    406b05 <str_split_text_reverse+0xb3>
  406a9c:	c7 45 ec 00 00 00 00 	movl   $0x0,-0x14(%rbp)
  406aa3:	8b 45 e8             	mov    -0x18(%rbp),%eax
  406aa6:	89 45 f0             	mov    %eax,-0x10(%rbp)
  406aa9:	eb 08                	jmp    406ab3 <str_split_text_reverse+0x61>
  406aab:	83 45 f0 01          	addl   $0x1,-0x10(%rbp)
  406aaf:	83 45 ec 01          	addl   $0x1,-0x14(%rbp)
  406ab3:	48 8b 45 d8          	mov    -0x28(%rbp),%rax
  406ab7:	48 8b 10             	mov    (%rax),%rdx
  406aba:	8b 45 f0             	mov    -0x10(%rbp),%eax
  406abd:	48 98                	cltq   
  406abf:	48 01 d0             	add    %rdx,%rax
  406ac2:	0f b6 10             	movzbl (%rax),%edx
  406ac5:	8b 45 ec             	mov    -0x14(%rbp),%eax
  406ac8:	48 63 c8             	movslq %eax,%rcx
  406acb:	48 8b 45 c8          	mov    -0x38(%rbp),%rax
  406acf:	48 01 c8             	add    %rcx,%rax
  406ad2:	0f b6 00             	movzbl (%rax),%eax
  406ad5:	38 c2                	cmp    %al,%dl
  406ad7:	75 14                	jne    406aed <str_split_text_reverse+0x9b>
  406ad9:	8b 45 ec             	mov    -0x14(%rbp),%eax
  406adc:	48 63 d0             	movslq %eax,%rdx
  406adf:	48 8b 45 c8          	mov    -0x38(%rbp),%rax
  406ae3:	48 01 d0             	add    %rdx,%rax
  406ae6:	0f b6 00             	movzbl (%rax),%eax
  406ae9:	84 c0                	test   %al,%al
  406aeb:	75 be                	jne    406aab <str_split_text_reverse+0x59>
  406aed:	8b 45 ec             	mov    -0x14(%rbp),%eax
  406af0:	48 63 d0             	movslq %eax,%rdx
  406af3:	48 8b 45 c8          	mov    -0x38(%rbp),%rax
  406af7:	48 01 d0             	add    %rdx,%rax
  406afa:	0f b6 00             	movzbl (%rax),%eax
  406afd:	84 c0                	test   %al,%al
  406aff:	74 0c                	je     406b0d <str_split_text_reverse+0xbb>
  406b01:	83 6d e8 01          	subl   $0x1,-0x18(%rbp)
  406b05:	83 7d e8 00          	cmpl   $0x0,-0x18(%rbp)
  406b09:	7f 91                	jg     406a9c <str_split_text_reverse+0x4a>
  406b0b:	eb 01                	jmp    406b0e <str_split_text_reverse+0xbc>
  406b0d:	90                   	nop
  406b0e:	8b 45 f4             	mov    -0xc(%rbp),%eax
  406b11:	2b 45 f8             	sub    -0x8(%rbp),%eax
  406b14:	2b 45 e8             	sub    -0x18(%rbp),%eax
  406b17:	89 45 fc             	mov    %eax,-0x4(%rbp)
  406b1a:	83 7d fc 00          	cmpl   $0x0,-0x4(%rbp)
  406b1e:	7e 56                	jle    406b76 <str_split_text_reverse+0x124>
  406b20:	8b 45 fc             	mov    -0x4(%rbp),%eax
  406b23:	89 c7                	mov    %eax,%edi
  406b25:	e8 39 14 00 00       	callq  407f63 <sysutil_malloc>
  406b2a:	48 89 c2             	mov    %rax,%rdx
  406b2d:	48 8b 45 d0          	mov    -0x30(%rbp),%rax
  406b31:	48 89 10             	mov    %rdx,(%rax)
  406b34:	8b 55 fc             	mov    -0x4(%rbp),%edx
  406b37:	48 8b 45 d0          	mov    -0x30(%rbp),%rax
  406b3b:	89 50 0c             	mov    %edx,0xc(%rax)
  406b3e:	8b 55 fc             	mov    -0x4(%rbp),%edx
  406b41:	48 8b 45 d0          	mov    -0x30(%rbp),%rax
  406b45:	89 50 08             	mov    %edx,0x8(%rax)
  406b48:	8b 55 fc             	mov    -0x4(%rbp),%edx
  406b4b:	48 8b 45 d8          	mov    -0x28(%rbp),%rax
  406b4f:	48 8b 00             	mov    (%rax),%rax
  406b52:	8b 4d e8             	mov    -0x18(%rbp),%ecx
  406b55:	48 63 f1             	movslq %ecx,%rsi
  406b58:	8b 4d f8             	mov    -0x8(%rbp),%ecx
  406b5b:	48 63 c9             	movslq %ecx,%rcx
  406b5e:	48 01 f1             	add    %rsi,%rcx
  406b61:	48 01 c1             	add    %rax,%rcx
  406b64:	48 8b 45 d0          	mov    -0x30(%rbp),%rax
  406b68:	48 8b 00             	mov    (%rax),%rax
  406b6b:	48 89 ce             	mov    %rcx,%rsi
  406b6e:	48 89 c7             	mov    %rax,%rdi
  406b71:	e8 73 16 00 00       	callq  4081e9 <sysutil_memcpy>
  406b76:	8b 55 f8             	mov    -0x8(%rbp),%edx
  406b79:	8b 45 fc             	mov    -0x4(%rbp),%eax
  406b7c:	01 d0                	add    %edx,%eax
  406b7e:	89 c1                	mov    %eax,%ecx
  406b80:	48 8b 45 d8          	mov    -0x28(%rbp),%rax
  406b84:	48 8b 10             	mov    (%rax),%rdx
  406b87:	8b 45 e8             	mov    -0x18(%rbp),%eax
  406b8a:	48 98                	cltq   
  406b8c:	48 01 d0             	add    %rdx,%rax
  406b8f:	89 ce                	mov    %ecx,%esi
  406b91:	48 89 c7             	mov    %rax,%rdi
  406b94:	e8 2a 16 00 00       	callq  4081c3 <sysutil_memclr>
  406b99:	8b 55 e8             	mov    -0x18(%rbp),%edx
  406b9c:	48 8b 45 d8          	mov    -0x28(%rbp),%rax
  406ba0:	89 50 08             	mov    %edx,0x8(%rax)
  406ba3:	eb 01                	jmp    406ba6 <str_split_text_reverse+0x154>
  406ba5:	90                   	nop
  406ba6:	c9                   	leaveq 
  406ba7:	c3                   	retq   

0000000000406ba8 <str_locate_char>:
  406ba8:	55                   	push   %rbp
  406ba9:	48 89 e5             	mov    %rsp,%rbp
  406bac:	48 89 7d f8          	mov    %rdi,-0x8(%rbp)
  406bb0:	89 f0                	mov    %esi,%eax
  406bb2:	88 45 f4             	mov    %al,-0xc(%rbp)
  406bb5:	90                   	nop
  406bb6:	4c 89 c0             	mov    %r8,%rax
  406bb9:	89 ca                	mov    %ecx,%edx
  406bbb:	5d                   	pop    %rbp
  406bbc:	c3                   	retq   

0000000000406bbd <str_locate_str>:
  406bbd:	55                   	push   %rbp
  406bbe:	48 89 e5             	mov    %rsp,%rbp
  406bc1:	48 89 7d f8          	mov    %rdi,-0x8(%rbp)
  406bc5:	48 89 75 f0          	mov    %rsi,-0x10(%rbp)
  406bc9:	90                   	nop
  406bca:	4c 89 c0             	mov    %r8,%rax
  406bcd:	89 ca                	mov    %ecx,%edx
  406bcf:	5d                   	pop    %rbp
  406bd0:	c3                   	retq   

0000000000406bd1 <str_locate_str_reverse>:
  406bd1:	55                   	push   %rbp
  406bd2:	48 89 e5             	mov    %rsp,%rbp
  406bd5:	48 89 7d f8          	mov    %rdi,-0x8(%rbp)
  406bd9:	48 89 75 f0          	mov    %rsi,-0x10(%rbp)
  406bdd:	90                   	nop
  406bde:	4c 89 c0             	mov    %r8,%rax
  406be1:	89 ca                	mov    %ecx,%edx
  406be3:	5d                   	pop    %rbp
  406be4:	c3                   	retq   

0000000000406be5 <str_locate_text>:
  406be5:	55                   	push   %rbp
  406be6:	48 89 e5             	mov    %rsp,%rbp
  406be9:	48 89 7d f8          	mov    %rdi,-0x8(%rbp)
  406bed:	48 89 75 f0          	mov    %rsi,-0x10(%rbp)
  406bf1:	90                   	nop
  406bf2:	4c 89 c0             	mov    %r8,%rax
  406bf5:	89 ca                	mov    %ecx,%edx
  406bf7:	5d                   	pop    %rbp
  406bf8:	c3                   	retq   

0000000000406bf9 <str_locate_text_reverse>:
  406bf9:	55                   	push   %rbp
  406bfa:	48 89 e5             	mov    %rsp,%rbp
  406bfd:	48 89 7d f8          	mov    %rdi,-0x8(%rbp)
  406c01:	48 89 75 f0          	mov    %rsi,-0x10(%rbp)
  406c05:	90                   	nop
  406c06:	4c 89 c0             	mov    %r8,%rax
  406c09:	89 ca                	mov    %ecx,%edx
  406c0b:	5d                   	pop    %rbp
  406c0c:	c3                   	retq   

0000000000406c0d <str_locate_chars>:
  406c0d:	55                   	push   %rbp
  406c0e:	48 89 e5             	mov    %rsp,%rbp
  406c11:	48 89 7d f8          	mov    %rdi,-0x8(%rbp)
  406c15:	48 89 75 f0          	mov    %rsi,-0x10(%rbp)
  406c19:	90                   	nop
  406c1a:	4c 89 c0             	mov    %r8,%rax
  406c1d:	89 ca                	mov    %ecx,%edx
  406c1f:	5d                   	pop    %rbp
  406c20:	c3                   	retq   

0000000000406c21 <str_left>:
  406c21:	55                   	push   %rbp
  406c22:	48 89 e5             	mov    %rsp,%rbp
  406c25:	48 83 ec 20          	sub    $0x20,%rsp
  406c29:	48 89 7d f8          	mov    %rdi,-0x8(%rbp)
  406c2d:	48 89 75 f0          	mov    %rsi,-0x10(%rbp)
  406c31:	89 55 ec             	mov    %edx,-0x14(%rbp)
  406c34:	83 7d ec 00          	cmpl   $0x0,-0x14(%rbp)
  406c38:	74 60                	je     406c9a <str_left+0x79>
  406c3a:	48 8b 45 f8          	mov    -0x8(%rbp),%rax
  406c3e:	8b 40 08             	mov    0x8(%rax),%eax
  406c41:	3b 45 ec             	cmp    -0x14(%rbp),%eax
  406c44:	73 0a                	jae    406c50 <str_left+0x2f>
  406c46:	48 8b 45 f8          	mov    -0x8(%rbp),%rax
  406c4a:	8b 40 08             	mov    0x8(%rax),%eax
  406c4d:	89 45 ec             	mov    %eax,-0x14(%rbp)
  406c50:	8b 45 ec             	mov    -0x14(%rbp),%eax
  406c53:	89 c7                	mov    %eax,%edi
  406c55:	e8 09 13 00 00       	callq  407f63 <sysutil_malloc>
  406c5a:	48 89 c2             	mov    %rax,%rdx
  406c5d:	48 8b 45 f0          	mov    -0x10(%rbp),%rax
  406c61:	48 89 10             	mov    %rdx,(%rax)
  406c64:	48 8b 45 f0          	mov    -0x10(%rbp),%rax
  406c68:	8b 55 ec             	mov    -0x14(%rbp),%edx
  406c6b:	89 50 08             	mov    %edx,0x8(%rax)
  406c6e:	48 8b 45 f0          	mov    -0x10(%rbp),%rax
  406c72:	8b 50 08             	mov    0x8(%rax),%edx
  406c75:	48 8b 45 f0          	mov    -0x10(%rbp),%rax
  406c79:	89 50 0c             	mov    %edx,0xc(%rax)
  406c7c:	48 8b 45 f8          	mov    -0x8(%rbp),%rax
  406c80:	48 8b 08             	mov    (%rax),%rcx
  406c83:	48 8b 45 f0          	mov    -0x10(%rbp),%rax
  406c87:	48 8b 00             	mov    (%rax),%rax
  406c8a:	8b 55 ec             	mov    -0x14(%rbp),%edx
  406c8d:	48 89 ce             	mov    %rcx,%rsi
  406c90:	48 89 c7             	mov    %rax,%rdi
  406c93:	e8 51 15 00 00       	callq  4081e9 <sysutil_memcpy>
  406c98:	eb 01                	jmp    406c9b <str_left+0x7a>
  406c9a:	90                   	nop
  406c9b:	c9                   	leaveq 
  406c9c:	c3                   	retq   

0000000000406c9d <str_right>:
  406c9d:	55                   	push   %rbp
  406c9e:	48 89 e5             	mov    %rsp,%rbp
  406ca1:	48 83 ec 30          	sub    $0x30,%rsp
  406ca5:	48 89 7d e8          	mov    %rdi,-0x18(%rbp)
  406ca9:	48 89 75 e0          	mov    %rsi,-0x20(%rbp)
  406cad:	89 55 dc             	mov    %edx,-0x24(%rbp)
  406cb0:	48 8b 45 e8          	mov    -0x18(%rbp),%rax
  406cb4:	8b 40 08             	mov    0x8(%rax),%eax
  406cb7:	3b 45 dc             	cmp    -0x24(%rbp),%eax
  406cba:	73 0a                	jae    406cc6 <str_right+0x29>
  406cbc:	48 8b 45 e8          	mov    -0x18(%rbp),%rax
  406cc0:	8b 40 08             	mov    0x8(%rax),%eax
  406cc3:	89 45 dc             	mov    %eax,-0x24(%rbp)
  406cc6:	48 8b 45 e8          	mov    -0x18(%rbp),%rax
  406cca:	8b 40 08             	mov    0x8(%rax),%eax
  406ccd:	2b 45 dc             	sub    -0x24(%rbp),%eax
  406cd0:	89 45 fc             	mov    %eax,-0x4(%rbp)
  406cd3:	48 8b 45 e8          	mov    -0x18(%rbp),%rax
  406cd7:	48 8b 10             	mov    (%rax),%rdx
  406cda:	8b 45 fc             	mov    -0x4(%rbp),%eax
  406cdd:	48 98                	cltq   
  406cdf:	48 8d 0c 02          	lea    (%rdx,%rax,1),%rcx
  406ce3:	8b 55 dc             	mov    -0x24(%rbp),%edx
  406ce6:	48 8b 45 e0          	mov    -0x20(%rbp),%rax
  406cea:	48 89 ce             	mov    %rcx,%rsi
  406ced:	48 89 c7             	mov    %rax,%rdi
  406cf0:	e8 27 f0 ff ff       	callq  405d1c <private_str_alloc_memchunk>
  406cf5:	90                   	nop
  406cf6:	c9                   	leaveq 
  406cf7:	c3                   	retq   

0000000000406cf8 <str_mid_to_end>:
  406cf8:	55                   	push   %rbp
  406cf9:	48 89 e5             	mov    %rsp,%rbp
  406cfc:	48 83 ec 30          	sub    $0x30,%rsp
  406d00:	48 89 7d e8          	mov    %rdi,-0x18(%rbp)
  406d04:	48 89 75 e0          	mov    %rsi,-0x20(%rbp)
  406d08:	89 55 dc             	mov    %edx,-0x24(%rbp)
  406d0b:	48 8b 45 e8          	mov    -0x18(%rbp),%rax
  406d0f:	8b 40 08             	mov    0x8(%rax),%eax
  406d12:	2b 45 dc             	sub    -0x24(%rbp),%eax
  406d15:	89 45 fc             	mov    %eax,-0x4(%rbp)
  406d18:	8b 45 fc             	mov    -0x4(%rbp),%eax
  406d1b:	89 c7                	mov    %eax,%edi
  406d1d:	e8 41 12 00 00       	callq  407f63 <sysutil_malloc>
  406d22:	48 89 c2             	mov    %rax,%rdx
  406d25:	48 8b 45 e0          	mov    -0x20(%rbp),%rax
  406d29:	48 89 10             	mov    %rdx,(%rax)
  406d2c:	8b 55 fc             	mov    -0x4(%rbp),%edx
  406d2f:	48 8b 45 e0          	mov    -0x20(%rbp),%rax
  406d33:	89 50 08             	mov    %edx,0x8(%rax)
  406d36:	48 8b 45 e0          	mov    -0x20(%rbp),%rax
  406d3a:	8b 50 08             	mov    0x8(%rax),%edx
  406d3d:	48 8b 45 e0          	mov    -0x20(%rbp),%rax
  406d41:	89 50 0c             	mov    %edx,0xc(%rax)
  406d44:	8b 55 fc             	mov    -0x4(%rbp),%edx
  406d47:	48 8b 45 e8          	mov    -0x18(%rbp),%rax
  406d4b:	48 8b 08             	mov    (%rax),%rcx
  406d4e:	8b 45 dc             	mov    -0x24(%rbp),%eax
  406d51:	48 01 c1             	add    %rax,%rcx
  406d54:	48 8b 45 e0          	mov    -0x20(%rbp),%rax
  406d58:	48 8b 00             	mov    (%rax),%rax
  406d5b:	48 89 ce             	mov    %rcx,%rsi
  406d5e:	48 89 c7             	mov    %rax,%rdi
  406d61:	e8 83 14 00 00       	callq  4081e9 <sysutil_memcpy>
  406d66:	90                   	nop
  406d67:	c9                   	leaveq 
  406d68:	c3                   	retq   

0000000000406d69 <str_get_char_at>:
  406d69:	55                   	push   %rbp
  406d6a:	48 89 e5             	mov    %rsp,%rbp
  406d6d:	48 89 7d f8          	mov    %rdi,-0x8(%rbp)
  406d71:	89 75 f4             	mov    %esi,-0xc(%rbp)
  406d74:	48 8b 45 f8          	mov    -0x8(%rbp),%rax
  406d78:	48 8b 10             	mov    (%rax),%rdx
  406d7b:	8b 45 f4             	mov    -0xc(%rbp),%eax
  406d7e:	48 01 d0             	add    %rdx,%rax
  406d81:	0f b6 00             	movzbl (%rax),%eax
  406d84:	5d                   	pop    %rbp
  406d85:	c3                   	retq   

0000000000406d86 <str_contains_space>:
  406d86:	55                   	push   %rbp
  406d87:	48 89 e5             	mov    %rsp,%rbp
  406d8a:	48 83 ec 20          	sub    $0x20,%rsp
  406d8e:	48 89 7d e8          	mov    %rdi,-0x18(%rbp)
  406d92:	c7 45 fc 00 00 00 00 	movl   $0x0,-0x4(%rbp)
  406d99:	eb 2a                	jmp    406dc5 <str_contains_space+0x3f>
  406d9b:	8b 55 fc             	mov    -0x4(%rbp),%edx
  406d9e:	48 8b 45 e8          	mov    -0x18(%rbp),%rax
  406da2:	89 d6                	mov    %edx,%esi
  406da4:	48 89 c7             	mov    %rax,%rdi
  406da7:	e8 bd ff ff ff       	callq  406d69 <str_get_char_at>
  406dac:	0f be c0             	movsbl %al,%eax
  406daf:	89 c7                	mov    %eax,%edi
  406db1:	e8 90 15 00 00       	callq  408346 <sysutil_isspace>
  406db6:	85 c0                	test   %eax,%eax
  406db8:	74 07                	je     406dc1 <str_contains_space+0x3b>
  406dba:	b8 01 00 00 00       	mov    $0x1,%eax
  406dbf:	eb 17                	jmp    406dd8 <str_contains_space+0x52>
  406dc1:	83 45 fc 01          	addl   $0x1,-0x4(%rbp)
  406dc5:	48 8b 45 e8          	mov    -0x18(%rbp),%rax
  406dc9:	8b 50 08             	mov    0x8(%rax),%edx
  406dcc:	8b 45 fc             	mov    -0x4(%rbp),%eax
  406dcf:	39 c2                	cmp    %eax,%edx
  406dd1:	77 c8                	ja     406d9b <str_contains_space+0x15>
  406dd3:	b8 00 00 00 00       	mov    $0x0,%eax
  406dd8:	c9                   	leaveq 
  406dd9:	c3                   	retq   

0000000000406dda <str_all_space>:
  406dda:	55                   	push   %rbp
  406ddb:	48 89 e5             	mov    %rsp,%rbp
  406dde:	48 83 ec 20          	sub    $0x20,%rsp
  406de2:	48 89 7d e8          	mov    %rdi,-0x18(%rbp)
  406de6:	c7 45 fc 00 00 00 00 	movl   $0x0,-0x4(%rbp)
  406ded:	eb 2a                	jmp    406e19 <str_all_space+0x3f>
  406def:	8b 55 fc             	mov    -0x4(%rbp),%edx
  406df2:	48 8b 45 e8          	mov    -0x18(%rbp),%rax
  406df6:	89 d6                	mov    %edx,%esi
  406df8:	48 89 c7             	mov    %rax,%rdi
  406dfb:	e8 69 ff ff ff       	callq  406d69 <str_get_char_at>
  406e00:	0f be c0             	movsbl %al,%eax
  406e03:	89 c7                	mov    %eax,%edi
  406e05:	e8 3c 15 00 00       	callq  408346 <sysutil_isspace>
  406e0a:	85 c0                	test   %eax,%eax
  406e0c:	75 07                	jne    406e15 <str_all_space+0x3b>
  406e0e:	b8 00 00 00 00       	mov    $0x0,%eax
  406e13:	eb 17                	jmp    406e2c <str_all_space+0x52>
  406e15:	83 45 fc 01          	addl   $0x1,-0x4(%rbp)
  406e19:	48 8b 45 e8          	mov    -0x18(%rbp),%rax
  406e1d:	8b 50 08             	mov    0x8(%rax),%edx
  406e20:	8b 45 fc             	mov    -0x4(%rbp),%eax
  406e23:	39 c2                	cmp    %eax,%edx
  406e25:	77 c8                	ja     406def <str_all_space+0x15>
  406e27:	b8 01 00 00 00       	mov    $0x1,%eax
  406e2c:	c9                   	leaveq 
  406e2d:	c3                   	retq   

0000000000406e2e <str_wipeout_blank>:
  406e2e:	55                   	push   %rbp
  406e2f:	48 89 e5             	mov    %rsp,%rbp
  406e32:	48 83 ec 40          	sub    $0x40,%rsp
  406e36:	48 89 7d c8          	mov    %rdi,-0x38(%rbp)
  406e3a:	64 48 8b 04 25 28 00 	mov    %fs:0x28,%rax
  406e41:	00 00 
  406e43:	48 89 45 f8          	mov    %rax,-0x8(%rbp)
  406e47:	31 c0                	xor    %eax,%eax
  406e49:	48 8b 45 c8          	mov    -0x38(%rbp),%rax
  406e4d:	48 89 c7             	mov    %rax,%rdi
  406e50:	e8 55 f2 ff ff       	callq  4060aa <str_getlen>
  406e55:	89 45 dc             	mov    %eax,-0x24(%rbp)
  406e58:	48 c7 45 e0 00 00 00 	movq   $0x0,-0x20(%rbp)
  406e5f:	00 
  406e60:	c7 45 e8 00 00 00 00 	movl   $0x0,-0x18(%rbp)
  406e67:	c7 45 ec 00 00 00 00 	movl   $0x0,-0x14(%rbp)
  406e6e:	c7 45 d8 00 00 00 00 	movl   $0x0,-0x28(%rbp)
  406e75:	eb 23                	jmp    406e9a <str_wipeout_blank+0x6c>
  406e77:	8b 55 d8             	mov    -0x28(%rbp),%edx
  406e7a:	48 8b 45 c8          	mov    -0x38(%rbp),%rax
  406e7e:	89 d6                	mov    %edx,%esi
  406e80:	48 89 c7             	mov    %rax,%rdi
  406e83:	e8 e1 fe ff ff       	callq  406d69 <str_get_char_at>
  406e88:	0f be c0             	movsbl %al,%eax
  406e8b:	89 c7                	mov    %eax,%edi
  406e8d:	e8 b4 14 00 00       	callq  408346 <sysutil_isspace>
  406e92:	85 c0                	test   %eax,%eax
  406e94:	74 0e                	je     406ea4 <str_wipeout_blank+0x76>
  406e96:	83 45 d8 01          	addl   $0x1,-0x28(%rbp)
  406e9a:	8b 45 d8             	mov    -0x28(%rbp),%eax
  406e9d:	3b 45 dc             	cmp    -0x24(%rbp),%eax
  406ea0:	7c d5                	jl     406e77 <str_wipeout_blank+0x49>
  406ea2:	eb 01                	jmp    406ea5 <str_wipeout_blank+0x77>
  406ea4:	90                   	nop
  406ea5:	8b 45 dc             	mov    -0x24(%rbp),%eax
  406ea8:	2b 45 d8             	sub    -0x28(%rbp),%eax
  406eab:	89 c2                	mov    %eax,%edx
  406ead:	48 8d 4d e0          	lea    -0x20(%rbp),%rcx
  406eb1:	48 8b 45 c8          	mov    -0x38(%rbp),%rax
  406eb5:	48 89 ce             	mov    %rcx,%rsi
  406eb8:	48 89 c7             	mov    %rax,%rdi
  406ebb:	e8 dd fd ff ff       	callq  406c9d <str_right>
  406ec0:	48 8b 45 c8          	mov    -0x38(%rbp),%rax
  406ec4:	48 89 c7             	mov    %rax,%rdi
  406ec7:	e8 25 f1 ff ff       	callq  405ff1 <str_free>
  406ecc:	48 8b 45 e0          	mov    -0x20(%rbp),%rax
  406ed0:	48 8b 55 e8          	mov    -0x18(%rbp),%rdx
  406ed4:	48 8b 4d f8          	mov    -0x8(%rbp),%rcx
  406ed8:	64 48 33 0c 25 28 00 	xor    %fs:0x28,%rcx
  406edf:	00 00 
  406ee1:	74 05                	je     406ee8 <str_wipeout_blank+0xba>
  406ee3:	e8 b8 b2 ff ff       	callq  4021a0 <__stack_chk_fail@plt>
  406ee8:	c9                   	leaveq 
  406ee9:	c3                   	retq   

0000000000406eea <str_contains_unprintable>:
  406eea:	55                   	push   %rbp
  406eeb:	48 89 e5             	mov    %rsp,%rbp
  406eee:	48 83 ec 20          	sub    $0x20,%rsp
  406ef2:	48 89 7d e8          	mov    %rdi,-0x18(%rbp)
  406ef6:	c7 45 fc 00 00 00 00 	movl   $0x0,-0x4(%rbp)
  406efd:	eb 2b                	jmp    406f2a <str_contains_unprintable+0x40>
  406eff:	48 8b 45 e8          	mov    -0x18(%rbp),%rax
  406f03:	48 8b 10             	mov    (%rax),%rdx
  406f06:	8b 45 fc             	mov    -0x4(%rbp),%eax
  406f09:	48 98                	cltq   
  406f0b:	48 01 d0             	add    %rdx,%rax
  406f0e:	0f b6 00             	movzbl (%rax),%eax
  406f11:	0f be c0             	movsbl %al,%eax
  406f14:	89 c7                	mov    %eax,%edi
  406f16:	e8 57 14 00 00       	callq  408372 <sysutil_isprint>
  406f1b:	85 c0                	test   %eax,%eax
  406f1d:	75 07                	jne    406f26 <str_contains_unprintable+0x3c>
  406f1f:	b8 01 00 00 00       	mov    $0x1,%eax
  406f24:	eb 17                	jmp    406f3d <str_contains_unprintable+0x53>
  406f26:	83 45 fc 01          	addl   $0x1,-0x4(%rbp)
  406f2a:	48 8b 45 e8          	mov    -0x18(%rbp),%rax
  406f2e:	8b 50 08             	mov    0x8(%rax),%edx
  406f31:	8b 45 fc             	mov    -0x4(%rbp),%eax
  406f34:	39 c2                	cmp    %eax,%edx
  406f36:	77 c7                	ja     406eff <str_contains_unprintable+0x15>
  406f38:	b8 00 00 00 00       	mov    $0x0,%eax
  406f3d:	c9                   	leaveq 
  406f3e:	c3                   	retq   

0000000000406f3f <str_replace_unprintable>:
  406f3f:	55                   	push   %rbp
  406f40:	48 89 e5             	mov    %rsp,%rbp
  406f43:	48 83 ec 20          	sub    $0x20,%rsp
  406f47:	48 89 7d e8          	mov    %rdi,-0x18(%rbp)
  406f4b:	89 f0                	mov    %esi,%eax
  406f4d:	88 45 e4             	mov    %al,-0x1c(%rbp)
  406f50:	48 8b 45 e8          	mov    -0x18(%rbp),%rax
  406f54:	8b 40 08             	mov    0x8(%rax),%eax
  406f57:	85 c0                	test   %eax,%eax
  406f59:	74 50                	je     406fab <str_replace_unprintable+0x6c>
  406f5b:	c7 45 fc 00 00 00 00 	movl   $0x0,-0x4(%rbp)
  406f62:	eb 39                	jmp    406f9d <str_replace_unprintable+0x5e>
  406f64:	48 8b 45 e8          	mov    -0x18(%rbp),%rax
  406f68:	48 8b 10             	mov    (%rax),%rdx
  406f6b:	8b 45 fc             	mov    -0x4(%rbp),%eax
  406f6e:	48 98                	cltq   
  406f70:	48 01 d0             	add    %rdx,%rax
  406f73:	0f b6 00             	movzbl (%rax),%eax
  406f76:	0f be c0             	movsbl %al,%eax
  406f79:	89 c7                	mov    %eax,%edi
  406f7b:	e8 f2 13 00 00       	callq  408372 <sysutil_isprint>
  406f80:	85 c0                	test   %eax,%eax
  406f82:	75 15                	jne    406f99 <str_replace_unprintable+0x5a>
  406f84:	48 8b 45 e8          	mov    -0x18(%rbp),%rax
  406f88:	48 8b 10             	mov    (%rax),%rdx
  406f8b:	8b 45 fc             	mov    -0x4(%rbp),%eax
  406f8e:	48 98                	cltq   
  406f90:	48 01 c2             	add    %rax,%rdx
  406f93:	0f b6 45 e4          	movzbl -0x1c(%rbp),%eax
  406f97:	88 02                	mov    %al,(%rdx)
  406f99:	83 45 fc 01          	addl   $0x1,-0x4(%rbp)
  406f9d:	48 8b 45 e8          	mov    -0x18(%rbp),%rax
  406fa1:	8b 50 08             	mov    0x8(%rax),%edx
  406fa4:	8b 45 fc             	mov    -0x4(%rbp),%eax
  406fa7:	39 c2                	cmp    %eax,%edx
  406fa9:	77 b9                	ja     406f64 <str_replace_unprintable+0x25>
  406fab:	90                   	nop
  406fac:	c9                   	leaveq 
  406fad:	c3                   	retq   

0000000000406fae <str_atoi>:
  406fae:	55                   	push   %rbp
  406faf:	48 89 e5             	mov    %rsp,%rbp
  406fb2:	48 89 7d f8          	mov    %rdi,-0x8(%rbp)
  406fb6:	90                   	nop
  406fb7:	5d                   	pop    %rbp
  406fb8:	c3                   	retq   

0000000000406fb9 <str_a_to_filesize_t>:
  406fb9:	55                   	push   %rbp
  406fba:	48 89 e5             	mov    %rsp,%rbp
  406fbd:	48 89 7d f8          	mov    %rdi,-0x8(%rbp)
  406fc1:	90                   	nop
  406fc2:	5d                   	pop    %rbp
  406fc3:	c3                   	retq   

0000000000406fc4 <str_octal_to_uint>:
  406fc4:	55                   	push   %rbp
  406fc5:	48 89 e5             	mov    %rsp,%rbp
  406fc8:	48 89 7d f8          	mov    %rdi,-0x8(%rbp)
  406fcc:	90                   	nop
  406fcd:	5d                   	pop    %rbp
  406fce:	c3                   	retq   

0000000000406fcf <str_getline>:
  406fcf:	55                   	push   %rbp
  406fd0:	48 89 e5             	mov    %rsp,%rbp
  406fd3:	48 83 ec 30          	sub    $0x30,%rsp
  406fd7:	48 89 7d e8          	mov    %rdi,-0x18(%rbp)
  406fdb:	48 89 75 e0          	mov    %rsi,-0x20(%rbp)
  406fdf:	48 89 55 d8          	mov    %rdx,-0x28(%rbp)
  406fe3:	48 8b 45 e8          	mov    -0x18(%rbp),%rax
  406fe7:	8b 40 08             	mov    0x8(%rax),%eax
  406fea:	89 45 fc             	mov    %eax,-0x4(%rbp)
  406fed:	c7 45 f8 00 00 00 00 	movl   $0x0,-0x8(%rbp)
  406ff4:	eb 1a                	jmp    407010 <str_getline+0x41>
  406ff6:	48 8b 45 e8          	mov    -0x18(%rbp),%rax
  406ffa:	48 8b 10             	mov    (%rax),%rdx
  406ffd:	8b 45 f8             	mov    -0x8(%rbp),%eax
  407000:	48 98                	cltq   
  407002:	48 01 d0             	add    %rdx,%rax
  407005:	0f b6 00             	movzbl (%rax),%eax
  407008:	3c 0a                	cmp    $0xa,%al
  40700a:	74 0e                	je     40701a <str_getline+0x4b>
  40700c:	83 45 f8 01          	addl   $0x1,-0x8(%rbp)
  407010:	8b 45 f8             	mov    -0x8(%rbp),%eax
  407013:	3b 45 fc             	cmp    -0x4(%rbp),%eax
  407016:	7c de                	jl     406ff6 <str_getline+0x27>
  407018:	eb 01                	jmp    40701b <str_getline+0x4c>
  40701a:	90                   	nop
  40701b:	8b 45 f8             	mov    -0x8(%rbp),%eax
  40701e:	3b 45 fc             	cmp    -0x4(%rbp),%eax
  407021:	7d 74                	jge    407097 <str_getline+0xc8>
  407023:	8b 45 f8             	mov    -0x8(%rbp),%eax
  407026:	83 c0 01             	add    $0x1,%eax
  407029:	89 c7                	mov    %eax,%edi
  40702b:	e8 33 0f 00 00       	callq  407f63 <sysutil_malloc>
  407030:	48 89 c2             	mov    %rax,%rdx
  407033:	48 8b 45 e0          	mov    -0x20(%rbp),%rax
  407037:	48 89 10             	mov    %rdx,(%rax)
  40703a:	8b 55 f8             	mov    -0x8(%rbp),%edx
  40703d:	48 8b 45 e0          	mov    -0x20(%rbp),%rax
  407041:	89 50 0c             	mov    %edx,0xc(%rax)
  407044:	48 8b 45 e0          	mov    -0x20(%rbp),%rax
  407048:	8b 50 0c             	mov    0xc(%rax),%edx
  40704b:	48 8b 45 e0          	mov    -0x20(%rbp),%rax
  40704f:	89 50 08             	mov    %edx,0x8(%rax)
  407052:	8b 45 f8             	mov    -0x8(%rbp),%eax
  407055:	83 c0 01             	add    $0x1,%eax
  407058:	89 c2                	mov    %eax,%edx
  40705a:	48 8b 45 e0          	mov    -0x20(%rbp),%rax
  40705e:	48 8b 00             	mov    (%rax),%rax
  407061:	89 d6                	mov    %edx,%esi
  407063:	48 89 c7             	mov    %rax,%rdi
  407066:	e8 58 11 00 00       	callq  4081c3 <sysutil_memclr>
  40706b:	8b 55 f8             	mov    -0x8(%rbp),%edx
  40706e:	48 8b 45 e8          	mov    -0x18(%rbp),%rax
  407072:	48 8b 08             	mov    (%rax),%rcx
  407075:	48 8b 45 e0          	mov    -0x20(%rbp),%rax
  407079:	48 8b 00             	mov    (%rax),%rax
  40707c:	48 89 ce             	mov    %rcx,%rsi
  40707f:	48 89 c7             	mov    %rax,%rdi
  407082:	e8 62 11 00 00       	callq  4081e9 <sysutil_memcpy>
  407087:	8b 55 f8             	mov    -0x8(%rbp),%edx
  40708a:	48 8b 45 d8          	mov    -0x28(%rbp),%rax
  40708e:	89 10                	mov    %edx,(%rax)
  407090:	b8 01 00 00 00       	mov    $0x1,%eax
  407095:	eb 05                	jmp    40709c <str_getline+0xcd>
  407097:	b8 00 00 00 00       	mov    $0x0,%eax
  40709c:	c9                   	leaveq 
  40709d:	c3                   	retq   

000000000040709e <str_contains_line>:
  40709e:	55                   	push   %rbp
  40709f:	48 89 e5             	mov    %rsp,%rbp
  4070a2:	48 89 7d f8          	mov    %rdi,-0x8(%rbp)
  4070a6:	48 89 75 f0          	mov    %rsi,-0x10(%rbp)
  4070aa:	90                   	nop
  4070ab:	5d                   	pop    %rbp
  4070ac:	c3                   	retq   

00000000004070ad <str_list_free>:
  4070ad:	55                   	push   %rbp
  4070ae:	48 89 e5             	mov    %rsp,%rbp
  4070b1:	48 83 ec 30          	sub    $0x30,%rsp
  4070b5:	48 89 7d d8          	mov    %rdi,-0x28(%rbp)
  4070b9:	48 8b 45 d8          	mov    -0x28(%rbp),%rax
  4070bd:	48 89 45 f0          	mov    %rax,-0x10(%rbp)
  4070c1:	c7 45 ec 00 00 00 00 	movl   $0x0,-0x14(%rbp)
  4070c8:	eb 38                	jmp    407102 <str_list_free+0x55>
  4070ca:	48 8b 45 f0          	mov    -0x10(%rbp),%rax
  4070ce:	48 8b 40 08          	mov    0x8(%rax),%rax
  4070d2:	8b 55 ec             	mov    -0x14(%rbp),%edx
  4070d5:	48 63 d2             	movslq %edx,%rdx
  4070d8:	48 c1 e2 04          	shl    $0x4,%rdx
  4070dc:	48 01 d0             	add    %rdx,%rax
  4070df:	48 89 45 f8          	mov    %rax,-0x8(%rbp)
  4070e3:	48 83 7d f8 00       	cmpq   $0x0,-0x8(%rbp)
  4070e8:	74 14                	je     4070fe <str_list_free+0x51>
  4070ea:	48 8b 45 f8          	mov    -0x8(%rbp),%rax
  4070ee:	48 8b 00             	mov    (%rax),%rax
  4070f1:	48 89 c7             	mov    %rax,%rdi
  4070f4:	b8 00 00 00 00       	mov    $0x0,%eax
  4070f9:	e8 c9 0e 00 00       	callq  407fc7 <sysutil_free>
  4070fe:	83 45 ec 01          	addl   $0x1,-0x14(%rbp)
  407102:	48 8b 45 d8          	mov    -0x28(%rbp),%rax
  407106:	8b 50 04             	mov    0x4(%rax),%edx
  407109:	8b 45 ec             	mov    -0x14(%rbp),%eax
  40710c:	39 c2                	cmp    %eax,%edx
  40710e:	77 ba                	ja     4070ca <str_list_free+0x1d>
  407110:	48 8b 45 d8          	mov    -0x28(%rbp),%rax
  407114:	48 8b 40 08          	mov    0x8(%rax),%rax
  407118:	48 89 c7             	mov    %rax,%rdi
  40711b:	b8 00 00 00 00       	mov    $0x0,%eax
  407120:	e8 a2 0e 00 00       	callq  407fc7 <sysutil_free>
  407125:	48 8b 45 d8          	mov    -0x28(%rbp),%rax
  407129:	48 89 c7             	mov    %rax,%rdi
  40712c:	b8 00 00 00 00       	mov    $0x0,%eax
  407131:	e8 91 0e 00 00       	callq  407fc7 <sysutil_free>
  407136:	48 8b 45 f0          	mov    -0x10(%rbp),%rax
  40713a:	c7 40 04 00 00 00 00 	movl   $0x0,0x4(%rax)
  407141:	90                   	nop
  407142:	c9                   	leaveq 
  407143:	c3                   	retq   

0000000000407144 <str_list_add>:
  407144:	55                   	push   %rbp
  407145:	48 89 e5             	mov    %rsp,%rbp
  407148:	48 83 ec 10          	sub    $0x10,%rsp
  40714c:	48 89 7d f8          	mov    %rdi,-0x8(%rbp)
  407150:	48 89 75 f0          	mov    %rsi,-0x10(%rbp)
  407154:	48 8b 45 f8          	mov    -0x8(%rbp),%rax
  407158:	8b 50 04             	mov    0x4(%rax),%edx
  40715b:	48 8b 45 f8          	mov    -0x8(%rbp),%rax
  40715f:	8b 00                	mov    (%rax),%eax
  407161:	39 c2                	cmp    %eax,%edx
  407163:	75 75                	jne    4071da <str_list_add+0x96>
  407165:	48 8b 45 f8          	mov    -0x8(%rbp),%rax
  407169:	8b 00                	mov    (%rax),%eax
  40716b:	85 c0                	test   %eax,%eax
  40716d:	75 32                	jne    4071a1 <str_list_add+0x5d>
  40716f:	48 8b 45 f8          	mov    -0x8(%rbp),%rax
  407173:	c7 00 20 00 00 00    	movl   $0x20,(%rax)
  407179:	48 8b 45 f8          	mov    -0x8(%rbp),%rax
  40717d:	8b 00                	mov    (%rax),%eax
  40717f:	89 c0                	mov    %eax,%eax
  407181:	48 c1 e0 04          	shl    $0x4,%rax
  407185:	48 89 c7             	mov    %rax,%rdi
  407188:	b8 00 00 00 00       	mov    $0x0,%eax
  40718d:	e8 d1 0d 00 00       	callq  407f63 <sysutil_malloc>
  407192:	48 98                	cltq   
  407194:	48 89 c2             	mov    %rax,%rdx
  407197:	48 8b 45 f8          	mov    -0x8(%rbp),%rax
  40719b:	48 89 50 08          	mov    %rdx,0x8(%rax)
  40719f:	eb 39                	jmp    4071da <str_list_add+0x96>
  4071a1:	48 8b 45 f8          	mov    -0x8(%rbp),%rax
  4071a5:	8b 00                	mov    (%rax),%eax
  4071a7:	8d 14 00             	lea    (%rax,%rax,1),%edx
  4071aa:	48 8b 45 f8          	mov    -0x8(%rbp),%rax
  4071ae:	89 10                	mov    %edx,(%rax)
  4071b0:	48 8b 45 f8          	mov    -0x8(%rbp),%rax
  4071b4:	8b 10                	mov    (%rax),%edx
  4071b6:	48 8b 45 f8          	mov    -0x8(%rbp),%rax
  4071ba:	48 8b 40 08          	mov    0x8(%rax),%rax
  4071be:	89 d6                	mov    %edx,%esi
  4071c0:	48 89 c7             	mov    %rax,%rdi
  4071c3:	b8 00 00 00 00       	mov    $0x0,%eax
  4071c8:	e8 cb 0d 00 00       	callq  407f98 <sysutil_realloc>
  4071cd:	48 98                	cltq   
  4071cf:	48 89 c2             	mov    %rax,%rdx
  4071d2:	48 8b 45 f8          	mov    -0x8(%rbp),%rax
  4071d6:	48 89 50 08          	mov    %rdx,0x8(%rax)
  4071da:	48 8b 45 f8          	mov    -0x8(%rbp),%rax
  4071de:	48 8b 50 08          	mov    0x8(%rax),%rdx
  4071e2:	48 8b 45 f8          	mov    -0x8(%rbp),%rax
  4071e6:	8b 40 04             	mov    0x4(%rax),%eax
  4071e9:	89 c0                	mov    %eax,%eax
  4071eb:	48 c1 e0 04          	shl    $0x4,%rax
  4071ef:	48 8d 0c 02          	lea    (%rdx,%rax,1),%rcx
  4071f3:	48 8b 45 f0          	mov    -0x10(%rbp),%rax
  4071f7:	ba 10 00 00 00       	mov    $0x10,%edx
  4071fc:	48 89 c6             	mov    %rax,%rsi
  4071ff:	48 89 cf             	mov    %rcx,%rdi
  407202:	b8 00 00 00 00       	mov    $0x0,%eax
  407207:	e8 dd 0f 00 00       	callq  4081e9 <sysutil_memcpy>
  40720c:	48 8b 45 f8          	mov    -0x8(%rbp),%rax
  407210:	8b 40 04             	mov    0x4(%rax),%eax
  407213:	8d 50 01             	lea    0x1(%rax),%edx
  407216:	48 8b 45 f8          	mov    -0x8(%rbp),%rax
  40721a:	89 50 04             	mov    %edx,0x4(%rax)
  40721d:	90                   	nop
  40721e:	c9                   	leaveq 
  40721f:	c3                   	retq   

0000000000407220 <str_list_get_length>:
  407220:	55                   	push   %rbp
  407221:	48 89 e5             	mov    %rsp,%rbp
  407224:	48 89 7d f8          	mov    %rdi,-0x8(%rbp)
  407228:	48 8b 45 f8          	mov    -0x8(%rbp),%rax
  40722c:	8b 40 04             	mov    0x4(%rax),%eax
  40722f:	5d                   	pop    %rbp
  407230:	c3                   	retq   

0000000000407231 <str_list_contains_str>:
  407231:	55                   	push   %rbp
  407232:	48 89 e5             	mov    %rsp,%rbp
  407235:	48 83 ec 30          	sub    $0x30,%rsp
  407239:	48 89 7d d8          	mov    %rdi,-0x28(%rbp)
  40723d:	48 89 75 d0          	mov    %rsi,-0x30(%rbp)
  407241:	48 8b 45 d8          	mov    -0x28(%rbp),%rax
  407245:	48 89 45 f0          	mov    %rax,-0x10(%rbp)
  407249:	c7 45 ec 00 00 00 00 	movl   $0x0,-0x14(%rbp)
  407250:	eb 39                	jmp    40728b <str_list_contains_str+0x5a>
  407252:	48 8b 45 f0          	mov    -0x10(%rbp),%rax
  407256:	48 8b 40 08          	mov    0x8(%rax),%rax
  40725a:	8b 55 ec             	mov    -0x14(%rbp),%edx
  40725d:	48 63 d2             	movslq %edx,%rdx
  407260:	48 c1 e2 04          	shl    $0x4,%rdx
  407264:	48 01 d0             	add    %rdx,%rax
  407267:	48 89 45 f8          	mov    %rax,-0x8(%rbp)
  40726b:	48 8b 55 d0          	mov    -0x30(%rbp),%rdx
  40726f:	48 8b 45 f8          	mov    -0x8(%rbp),%rax
  407273:	48 89 d6             	mov    %rdx,%rsi
  407276:	48 89 c7             	mov    %rax,%rdi
  407279:	e8 e7 ee ff ff       	callq  406165 <str_equal>
  40727e:	85 c0                	test   %eax,%eax
  407280:	74 05                	je     407287 <str_list_contains_str+0x56>
  407282:	8b 45 ec             	mov    -0x14(%rbp),%eax
  407285:	eb 17                	jmp    40729e <str_list_contains_str+0x6d>
  407287:	83 45 ec 01          	addl   $0x1,-0x14(%rbp)
  40728b:	48 8b 45 d8          	mov    -0x28(%rbp),%rax
  40728f:	8b 50 04             	mov    0x4(%rax),%edx
  407292:	8b 45 ec             	mov    -0x14(%rbp),%eax
  407295:	39 c2                	cmp    %eax,%edx
  407297:	77 b9                	ja     407252 <str_list_contains_str+0x21>
  407299:	b8 00 00 00 00       	mov    $0x0,%eax
  40729e:	c9                   	leaveq 
  40729f:	c3                   	retq   

00000000004072a0 <str_list_get_pstr>:
  4072a0:	55                   	push   %rbp
  4072a1:	48 89 e5             	mov    %rsp,%rbp
  4072a4:	48 89 7d e8          	mov    %rdi,-0x18(%rbp)
  4072a8:	89 75 e4             	mov    %esi,-0x1c(%rbp)
  4072ab:	48 8b 45 e8          	mov    -0x18(%rbp),%rax
  4072af:	48 89 45 f8          	mov    %rax,-0x8(%rbp)
  4072b3:	48 8b 45 f8          	mov    -0x8(%rbp),%rax
  4072b7:	8b 40 04             	mov    0x4(%rax),%eax
  4072ba:	3b 45 e4             	cmp    -0x1c(%rbp),%eax
  4072bd:	77 07                	ja     4072c6 <str_list_get_pstr+0x26>
  4072bf:	b8 00 00 00 00       	mov    $0x0,%eax
  4072c4:	eb 12                	jmp    4072d8 <str_list_get_pstr+0x38>
  4072c6:	48 8b 45 f8          	mov    -0x8(%rbp),%rax
  4072ca:	48 8b 40 08          	mov    0x8(%rax),%rax
  4072ce:	8b 55 e4             	mov    -0x1c(%rbp),%edx
  4072d1:	48 c1 e2 04          	shl    $0x4,%rdx
  4072d5:	48 01 d0             	add    %rdx,%rax
  4072d8:	5d                   	pop    %rbp
  4072d9:	c3                   	retq   

00000000004072da <die>:
  4072da:	55                   	push   %rbp
  4072db:	48 89 e5             	mov    %rsp,%rbp
  4072de:	48 83 ec 10          	sub    $0x10,%rsp
  4072e2:	48 89 7d f8          	mov    %rdi,-0x8(%rbp)
  4072e6:	48 8b 45 f8          	mov    -0x8(%rbp),%rax
  4072ea:	be 0e 00 00 00       	mov    $0xe,%esi
  4072ef:	48 89 c7             	mov    %rax,%rdi
  4072f2:	e8 46 23 00 00       	callq  40963d <sysutil_syslog>
  4072f7:	bf 01 00 00 00       	mov    $0x1,%edi
  4072fc:	e8 3f 0d 00 00       	callq  408040 <sysutil_exit>
  407301:	90                   	nop
  407302:	c9                   	leaveq 
  407303:	c3                   	retq   

0000000000407304 <sysutil_retval_is_error>:
  407304:	55                   	push   %rbp
  407305:	48 89 e5             	mov    %rsp,%rbp
  407308:	89 7d fc             	mov    %edi,-0x4(%rbp)
  40730b:	83 7d fc 00          	cmpl   $0x0,-0x4(%rbp)
  40730f:	79 07                	jns    407318 <sysutil_retval_is_error+0x14>
  407311:	b8 01 00 00 00       	mov    $0x1,%eax
  407316:	eb 05                	jmp    40731d <sysutil_retval_is_error+0x19>
  407318:	b8 00 00 00 00       	mov    $0x0,%eax
  40731d:	5d                   	pop    %rbp
  40731e:	c3                   	retq   

000000000040731f <sysutil_install_null_sighandler>:
  40731f:	55                   	push   %rbp
  407320:	48 89 e5             	mov    %rsp,%rbp
  407323:	48 81 ec b0 00 00 00 	sub    $0xb0,%rsp
  40732a:	89 bd 5c ff ff ff    	mov    %edi,-0xa4(%rbp)
  407330:	64 48 8b 04 25 28 00 	mov    %fs:0x28,%rax
  407337:	00 00 
  407339:	48 89 45 f8          	mov    %rax,-0x8(%rbp)
  40733d:	31 c0                	xor    %eax,%eax
  40733f:	48 8d 85 60 ff ff ff 	lea    -0xa0(%rbp),%rax
  407346:	48 83 c0 08          	add    $0x8,%rax
  40734a:	48 89 c7             	mov    %rax,%rdi
  40734d:	e8 1e b0 ff ff       	callq  402370 <sigemptyset@plt>
  407352:	c7 45 e8 00 00 00 00 	movl   $0x0,-0x18(%rbp)
  407359:	48 c7 85 60 ff ff ff 	movq   $0x1,-0xa0(%rbp)
  407360:	01 00 00 00 
  407364:	83 bd 5c ff ff ff 06 	cmpl   $0x6,-0xa4(%rbp)
  40736b:	0f 87 b5 00 00 00    	ja     407426 <sysutil_install_null_sighandler+0x107>
  407371:	8b 85 5c ff ff ff    	mov    -0xa4(%rbp),%eax
  407377:	48 8b 04 c5 c0 ac 40 	mov    0x40acc0(,%rax,8),%rax
  40737e:	00 
  40737f:	ff e0                	jmpq   *%rax
  407381:	48 8d 85 60 ff ff ff 	lea    -0xa0(%rbp),%rax
  407388:	ba 00 00 00 00       	mov    $0x0,%edx
  40738d:	48 89 c6             	mov    %rax,%rsi
  407390:	bf 0e 00 00 00       	mov    $0xe,%edi
  407395:	e8 f6 ac ff ff       	callq  402090 <sigaction@plt>
  40739a:	e9 87 00 00 00       	jmpq   407426 <sysutil_install_null_sighandler+0x107>
  40739f:	48 8d 85 60 ff ff ff 	lea    -0xa0(%rbp),%rax
  4073a6:	ba 00 00 00 00       	mov    $0x0,%edx
  4073ab:	48 89 c6             	mov    %rax,%rsi
  4073ae:	bf 0f 00 00 00       	mov    $0xf,%edi
  4073b3:	e8 d8 ac ff ff       	callq  402090 <sigaction@plt>
  4073b8:	eb 6c                	jmp    407426 <sysutil_install_null_sighandler+0x107>
  4073ba:	48 8d 85 60 ff ff ff 	lea    -0xa0(%rbp),%rax
  4073c1:	ba 00 00 00 00       	mov    $0x0,%edx
  4073c6:	48 89 c6             	mov    %rax,%rsi
  4073c9:	bf 11 00 00 00       	mov    $0x11,%edi
  4073ce:	e8 bd ac ff ff       	callq  402090 <sigaction@plt>
  4073d3:	eb 51                	jmp    407426 <sysutil_install_null_sighandler+0x107>
  4073d5:	48 8d 85 60 ff ff ff 	lea    -0xa0(%rbp),%rax
  4073dc:	ba 00 00 00 00       	mov    $0x0,%edx
  4073e1:	48 89 c6             	mov    %rax,%rsi
  4073e4:	bf 0d 00 00 00       	mov    $0xd,%edi
  4073e9:	e8 a2 ac ff ff       	callq  402090 <sigaction@plt>
  4073ee:	eb 36                	jmp    407426 <sysutil_install_null_sighandler+0x107>
  4073f0:	48 8d 85 60 ff ff ff 	lea    -0xa0(%rbp),%rax
  4073f7:	ba 00 00 00 00       	mov    $0x0,%edx
  4073fc:	48 89 c6             	mov    %rax,%rsi
  4073ff:	bf 17 00 00 00       	mov    $0x17,%edi
  407404:	e8 87 ac ff ff       	callq  402090 <sigaction@plt>
  407409:	eb 1b                	jmp    407426 <sysutil_install_null_sighandler+0x107>
  40740b:	48 8d 85 60 ff ff ff 	lea    -0xa0(%rbp),%rax
  407412:	ba 00 00 00 00       	mov    $0x0,%edx
  407417:	48 89 c6             	mov    %rax,%rsi
  40741a:	bf 01 00 00 00       	mov    $0x1,%edi
  40741f:	e8 6c ac ff ff       	callq  402090 <sigaction@plt>
  407424:	eb 00                	jmp    407426 <sysutil_install_null_sighandler+0x107>
  407426:	90                   	nop
  407427:	48 8b 45 f8          	mov    -0x8(%rbp),%rax
  40742b:	64 48 33 04 25 28 00 	xor    %fs:0x28,%rax
  407432:	00 00 
  407434:	74 05                	je     40743b <sysutil_install_null_sighandler+0x11c>
  407436:	e8 65 ad ff ff       	callq  4021a0 <__stack_chk_fail@plt>
  40743b:	c9                   	leaveq 
  40743c:	c3                   	retq   

000000000040743d <sysutil_install_sighandler>:
  40743d:	55                   	push   %rbp
  40743e:	48 89 e5             	mov    %rsp,%rbp
  407441:	48 81 ec c0 00 00 00 	sub    $0xc0,%rsp
  407448:	89 bd 5c ff ff ff    	mov    %edi,-0xa4(%rbp)
  40744e:	48 89 b5 50 ff ff ff 	mov    %rsi,-0xb0(%rbp)
  407455:	48 89 95 48 ff ff ff 	mov    %rdx,-0xb8(%rbp)
  40745c:	89 8d 58 ff ff ff    	mov    %ecx,-0xa8(%rbp)
  407462:	64 48 8b 04 25 28 00 	mov    %fs:0x28,%rax
  407469:	00 00 
  40746b:	48 89 45 f8          	mov    %rax,-0x8(%rbp)
  40746f:	31 c0                	xor    %eax,%eax
  407471:	48 8d 85 60 ff ff ff 	lea    -0xa0(%rbp),%rax
  407478:	48 83 c0 08          	add    $0x8,%rax
  40747c:	48 89 c7             	mov    %rax,%rdi
  40747f:	e8 ec ae ff ff       	callq  402370 <sigemptyset@plt>
  407484:	c7 45 e8 00 00 00 00 	movl   $0x0,-0x18(%rbp)
  40748b:	48 8b 85 50 ff ff ff 	mov    -0xb0(%rbp),%rax
  407492:	48 89 85 60 ff ff ff 	mov    %rax,-0xa0(%rbp)
  407499:	83 bd 5c ff ff ff 06 	cmpl   $0x6,-0xa4(%rbp)
  4074a0:	0f 87 b5 00 00 00    	ja     40755b <sysutil_install_sighandler+0x11e>
  4074a6:	8b 85 5c ff ff ff    	mov    -0xa4(%rbp),%eax
  4074ac:	48 8b 04 c5 f8 ac 40 	mov    0x40acf8(,%rax,8),%rax
  4074b3:	00 
  4074b4:	ff e0                	jmpq   *%rax
  4074b6:	48 8d 85 60 ff ff ff 	lea    -0xa0(%rbp),%rax
  4074bd:	ba 00 00 00 00       	mov    $0x0,%edx
  4074c2:	48 89 c6             	mov    %rax,%rsi
  4074c5:	bf 0e 00 00 00       	mov    $0xe,%edi
  4074ca:	e8 c1 ab ff ff       	callq  402090 <sigaction@plt>
  4074cf:	e9 87 00 00 00       	jmpq   40755b <sysutil_install_sighandler+0x11e>
  4074d4:	48 8d 85 60 ff ff ff 	lea    -0xa0(%rbp),%rax
  4074db:	ba 00 00 00 00       	mov    $0x0,%edx
  4074e0:	48 89 c6             	mov    %rax,%rsi
  4074e3:	bf 0f 00 00 00       	mov    $0xf,%edi
  4074e8:	e8 a3 ab ff ff       	callq  402090 <sigaction@plt>
  4074ed:	eb 6c                	jmp    40755b <sysutil_install_sighandler+0x11e>
  4074ef:	48 8d 85 60 ff ff ff 	lea    -0xa0(%rbp),%rax
  4074f6:	ba 00 00 00 00       	mov    $0x0,%edx
  4074fb:	48 89 c6             	mov    %rax,%rsi
  4074fe:	bf 11 00 00 00       	mov    $0x11,%edi
  407503:	e8 88 ab ff ff       	callq  402090 <sigaction@plt>
  407508:	eb 51                	jmp    40755b <sysutil_install_sighandler+0x11e>
  40750a:	48 8d 85 60 ff ff ff 	lea    -0xa0(%rbp),%rax
  407511:	ba 00 00 00 00       	mov    $0x0,%edx
  407516:	48 89 c6             	mov    %rax,%rsi
  407519:	bf 0d 00 00 00       	mov    $0xd,%edi
  40751e:	e8 6d ab ff ff       	callq  402090 <sigaction@plt>
  407523:	eb 36                	jmp    40755b <sysutil_install_sighandler+0x11e>
  407525:	48 8d 85 60 ff ff ff 	lea    -0xa0(%rbp),%rax
  40752c:	ba 00 00 00 00       	mov    $0x0,%edx
  407531:	48 89 c6             	mov    %rax,%rsi
  407534:	bf 17 00 00 00       	mov    $0x17,%edi
  407539:	e8 52 ab ff ff       	callq  402090 <sigaction@plt>
  40753e:	eb 1b                	jmp    40755b <sysutil_install_sighandler+0x11e>
  407540:	48 8d 85 60 ff ff ff 	lea    -0xa0(%rbp),%rax
  407547:	ba 00 00 00 00       	mov    $0x0,%edx
  40754c:	48 89 c6             	mov    %rax,%rsi
  40754f:	bf 01 00 00 00       	mov    $0x1,%edi
  407554:	e8 37 ab ff ff       	callq  402090 <sigaction@plt>
  407559:	eb 00                	jmp    40755b <sysutil_install_sighandler+0x11e>
  40755b:	90                   	nop
  40755c:	48 8b 45 f8          	mov    -0x8(%rbp),%rax
  407560:	64 48 33 04 25 28 00 	xor    %fs:0x28,%rax
  407567:	00 00 
  407569:	74 05                	je     407570 <sysutil_install_sighandler+0x133>
  40756b:	e8 30 ac ff ff       	callq  4021a0 <__stack_chk_fail@plt>
  407570:	c9                   	leaveq 
  407571:	c3                   	retq   

0000000000407572 <sysutil_install_async_sighandler>:
  407572:	55                   	push   %rbp
  407573:	48 89 e5             	mov    %rsp,%rbp
  407576:	89 7d fc             	mov    %edi,-0x4(%rbp)
  407579:	48 89 75 f0          	mov    %rsi,-0x10(%rbp)
  40757d:	90                   	nop
  40757e:	5d                   	pop    %rbp
  40757f:	c3                   	retq   

0000000000407580 <sysutil_default_sig>:
  407580:	55                   	push   %rbp
  407581:	48 89 e5             	mov    %rsp,%rbp
  407584:	89 7d fc             	mov    %edi,-0x4(%rbp)
  407587:	90                   	nop
  407588:	5d                   	pop    %rbp
  407589:	c3                   	retq   

000000000040758a <sysutil_install_io_handler>:
  40758a:	55                   	push   %rbp
  40758b:	48 89 e5             	mov    %rsp,%rbp
  40758e:	48 89 7d f8          	mov    %rdi,-0x8(%rbp)
  407592:	48 89 75 f0          	mov    %rsi,-0x10(%rbp)
  407596:	90                   	nop
  407597:	5d                   	pop    %rbp
  407598:	c3                   	retq   

0000000000407599 <sysutil_uninstall_io_handler>:
  407599:	55                   	push   %rbp
  40759a:	48 89 e5             	mov    %rsp,%rbp
  40759d:	90                   	nop
  40759e:	5d                   	pop    %rbp
  40759f:	c3                   	retq   

00000000004075a0 <sysutil_check_pending_actions>:
  4075a0:	55                   	push   %rbp
  4075a1:	48 89 e5             	mov    %rsp,%rbp
  4075a4:	89 7d fc             	mov    %edi,-0x4(%rbp)
  4075a7:	89 75 f8             	mov    %esi,-0x8(%rbp)
  4075aa:	89 55 f4             	mov    %edx,-0xc(%rbp)
  4075ad:	90                   	nop
  4075ae:	5d                   	pop    %rbp
  4075af:	c3                   	retq   

00000000004075b0 <sysutil_block_sig>:
  4075b0:	55                   	push   %rbp
  4075b1:	48 89 e5             	mov    %rsp,%rbp
  4075b4:	89 7d fc             	mov    %edi,-0x4(%rbp)
  4075b7:	90                   	nop
  4075b8:	5d                   	pop    %rbp
  4075b9:	c3                   	retq   

00000000004075ba <sysutil_unblock_sig>:
  4075ba:	55                   	push   %rbp
  4075bb:	48 89 e5             	mov    %rsp,%rbp
  4075be:	89 7d fc             	mov    %edi,-0x4(%rbp)
  4075c1:	90                   	nop
  4075c2:	5d                   	pop    %rbp
  4075c3:	c3                   	retq   

00000000004075c4 <sysutil_set_alarm>:
  4075c4:	55                   	push   %rbp
  4075c5:	48 89 e5             	mov    %rsp,%rbp
  4075c8:	48 83 ec 10          	sub    $0x10,%rsp
  4075cc:	89 7d fc             	mov    %edi,-0x4(%rbp)
  4075cf:	8b 45 fc             	mov    -0x4(%rbp),%eax
  4075d2:	89 c7                	mov    %eax,%edi
  4075d4:	e8 a7 ac ff ff       	callq  402280 <alarm@plt>
  4075d9:	90                   	nop
  4075da:	c9                   	leaveq 
  4075db:	c3                   	retq   

00000000004075dc <sysutil_clear_alarm>:
  4075dc:	55                   	push   %rbp
  4075dd:	48 89 e5             	mov    %rsp,%rbp
  4075e0:	bf 00 00 00 00       	mov    $0x0,%edi
  4075e5:	e8 da ff ff ff       	callq  4075c4 <sysutil_set_alarm>
  4075ea:	90                   	nop
  4075eb:	5d                   	pop    %rbp
  4075ec:	c3                   	retq   

00000000004075ed <sysutil_getcwd>:
  4075ed:	55                   	push   %rbp
  4075ee:	48 89 e5             	mov    %rsp,%rbp
  4075f1:	48 83 ec 20          	sub    $0x20,%rsp
  4075f5:	48 89 7d e8          	mov    %rdi,-0x18(%rbp)
  4075f9:	89 75 e4             	mov    %esi,-0x1c(%rbp)
  4075fc:	8b 55 e4             	mov    -0x1c(%rbp),%edx
  4075ff:	48 8b 45 e8          	mov    -0x18(%rbp),%rax
  407603:	48 89 d6             	mov    %rdx,%rsi
  407606:	48 89 c7             	mov    %rax,%rdi
  407609:	e8 62 ac ff ff       	callq  402270 <getcwd@plt>
  40760e:	48 89 45 f8          	mov    %rax,-0x8(%rbp)
  407612:	48 8b 45 f8          	mov    -0x8(%rbp),%rax
  407616:	c9                   	leaveq 
  407617:	c3                   	retq   

0000000000407618 <sysutil_mkdir>:
  407618:	55                   	push   %rbp
  407619:	48 89 e5             	mov    %rsp,%rbp
  40761c:	48 83 ec 20          	sub    $0x20,%rsp
  407620:	48 89 7d e8          	mov    %rdi,-0x18(%rbp)
  407624:	89 75 e4             	mov    %esi,-0x1c(%rbp)
  407627:	8b 55 e4             	mov    -0x1c(%rbp),%edx
  40762a:	48 8b 45 e8          	mov    -0x18(%rbp),%rax
  40762e:	89 d6                	mov    %edx,%esi
  407630:	48 89 c7             	mov    %rax,%rdi
  407633:	e8 28 aa ff ff       	callq  402060 <mkdir@plt>
  407638:	89 45 fc             	mov    %eax,-0x4(%rbp)
  40763b:	83 7d fc 00          	cmpl   $0x0,-0x4(%rbp)
  40763f:	79 0a                	jns    40764b <sysutil_mkdir+0x33>
  407641:	bf 30 ad 40 00       	mov    $0x40ad30,%edi
  407646:	e8 8f fc ff ff       	callq  4072da <die>
  40764b:	8b 45 fc             	mov    -0x4(%rbp),%eax
  40764e:	c9                   	leaveq 
  40764f:	c3                   	retq   

0000000000407650 <sysutil_rmdir>:
  407650:	55                   	push   %rbp
  407651:	48 89 e5             	mov    %rsp,%rbp
  407654:	48 83 ec 20          	sub    $0x20,%rsp
  407658:	48 89 7d e8          	mov    %rdi,-0x18(%rbp)
  40765c:	48 8b 45 e8          	mov    -0x18(%rbp),%rax
  407660:	48 89 c7             	mov    %rax,%rdi
  407663:	e8 f8 aa ff ff       	callq  402160 <rmdir@plt>
  407668:	89 45 fc             	mov    %eax,-0x4(%rbp)
  40766b:	83 7d fc 00          	cmpl   $0x0,-0x4(%rbp)
  40766f:	79 0a                	jns    40767b <sysutil_rmdir+0x2b>
  407671:	bf 36 ad 40 00       	mov    $0x40ad36,%edi
  407676:	e8 5f fc ff ff       	callq  4072da <die>
  40767b:	8b 45 fc             	mov    -0x4(%rbp),%eax
  40767e:	c9                   	leaveq 
  40767f:	c3                   	retq   

0000000000407680 <sysutil_chdir>:
  407680:	55                   	push   %rbp
  407681:	48 89 e5             	mov    %rsp,%rbp
  407684:	48 83 ec 10          	sub    $0x10,%rsp
  407688:	48 89 7d f8          	mov    %rdi,-0x8(%rbp)
  40768c:	48 8b 45 f8          	mov    -0x8(%rbp),%rax
  407690:	48 89 c7             	mov    %rax,%rdi
  407693:	e8 f8 aa ff ff       	callq  402190 <chdir@plt>
  407698:	c9                   	leaveq 
  407699:	c3                   	retq   

000000000040769a <sysutil_rename>:
  40769a:	55                   	push   %rbp
  40769b:	48 89 e5             	mov    %rsp,%rbp
  40769e:	48 83 ec 20          	sub    $0x20,%rsp
  4076a2:	48 89 7d e8          	mov    %rdi,-0x18(%rbp)
  4076a6:	48 89 75 e0          	mov    %rsi,-0x20(%rbp)
  4076aa:	48 8b 55 e0          	mov    -0x20(%rbp),%rdx
  4076ae:	48 8b 45 e8          	mov    -0x18(%rbp),%rax
  4076b2:	48 89 d6             	mov    %rdx,%rsi
  4076b5:	48 89 c7             	mov    %rax,%rdi
  4076b8:	e8 d3 ae ff ff       	callq  402590 <rename@plt>
  4076bd:	89 45 fc             	mov    %eax,-0x4(%rbp)
  4076c0:	83 7d fc 00          	cmpl   $0x0,-0x4(%rbp)
  4076c4:	79 0a                	jns    4076d0 <sysutil_rename+0x36>
  4076c6:	bf 3c ad 40 00       	mov    $0x40ad3c,%edi
  4076cb:	e8 0a fc ff ff       	callq  4072da <die>
  4076d0:	8b 45 fc             	mov    -0x4(%rbp),%eax
  4076d3:	c9                   	leaveq 
  4076d4:	c3                   	retq   

00000000004076d5 <sysutil_opendir>:
  4076d5:	55                   	push   %rbp
  4076d6:	48 89 e5             	mov    %rsp,%rbp
  4076d9:	48 83 ec 10          	sub    $0x10,%rsp
  4076dd:	48 89 7d f8          	mov    %rdi,-0x8(%rbp)
  4076e1:	48 8b 45 f8          	mov    -0x8(%rbp),%rax
  4076e5:	48 89 c7             	mov    %rax,%rdi
  4076e8:	e8 33 aa ff ff       	callq  402120 <opendir@plt>
  4076ed:	c9                   	leaveq 
  4076ee:	c3                   	retq   

00000000004076ef <sysutil_closedir>:
  4076ef:	55                   	push   %rbp
  4076f0:	48 89 e5             	mov    %rsp,%rbp
  4076f3:	48 83 ec 20          	sub    $0x20,%rsp
  4076f7:	48 89 7d e8          	mov    %rdi,-0x18(%rbp)
  4076fb:	48 8b 45 e8          	mov    -0x18(%rbp),%rax
  4076ff:	48 89 c7             	mov    %rax,%rdi
  407702:	e8 c9 ab ff ff       	callq  4022d0 <closedir@plt>
  407707:	89 45 fc             	mov    %eax,-0x4(%rbp)
  40770a:	83 7d fc 00          	cmpl   $0x0,-0x4(%rbp)
  40770e:	79 0a                	jns    40771a <sysutil_closedir+0x2b>
  407710:	bf 43 ad 40 00       	mov    $0x40ad43,%edi
  407715:	e8 c0 fb ff ff       	callq  4072da <die>
  40771a:	90                   	nop
  40771b:	c9                   	leaveq 
  40771c:	c3                   	retq   

000000000040771d <sysutil_rewinddir>:
  40771d:	55                   	push   %rbp
  40771e:	48 89 e5             	mov    %rsp,%rbp
  407721:	48 83 ec 10          	sub    $0x10,%rsp
  407725:	48 89 7d f8          	mov    %rdi,-0x8(%rbp)
  407729:	48 8b 45 f8          	mov    -0x8(%rbp),%rax
  40772d:	48 89 c7             	mov    %rax,%rdi
  407730:	e8 6b ab ff ff       	callq  4022a0 <rewinddir@plt>
  407735:	90                   	nop
  407736:	c9                   	leaveq 
  407737:	c3                   	retq   

0000000000407738 <sysutil_next_dirent>:
  407738:	55                   	push   %rbp
  407739:	48 89 e5             	mov    %rsp,%rbp
  40773c:	48 83 ec 20          	sub    $0x20,%rsp
  407740:	48 89 7d e8          	mov    %rdi,-0x18(%rbp)
  407744:	48 8b 45 e8          	mov    -0x18(%rbp),%rax
  407748:	48 89 c7             	mov    %rax,%rdi
  40774b:	e8 e0 ac ff ff       	callq  402430 <readdir@plt>
  407750:	48 89 45 f8          	mov    %rax,-0x8(%rbp)
  407754:	48 83 7d f8 00       	cmpq   $0x0,-0x8(%rbp)
  407759:	75 07                	jne    407762 <sysutil_next_dirent+0x2a>
  40775b:	b8 00 00 00 00       	mov    $0x0,%eax
  407760:	eb 08                	jmp    40776a <sysutil_next_dirent+0x32>
  407762:	48 8b 45 f8          	mov    -0x8(%rbp),%rax
  407766:	48 83 c0 13          	add    $0x13,%rax
  40776a:	c9                   	leaveq 
  40776b:	c3                   	retq   

000000000040776c <sysutil_open_file>:
  40776c:	55                   	push   %rbp
  40776d:	48 89 e5             	mov    %rsp,%rbp
  407770:	48 83 ec 20          	sub    $0x20,%rsp
  407774:	48 89 7d e8          	mov    %rdi,-0x18(%rbp)
  407778:	89 75 e4             	mov    %esi,-0x1c(%rbp)
  40777b:	c7 45 fc 00 00 00 00 	movl   $0x0,-0x4(%rbp)
  407782:	8b 45 e4             	mov    -0x1c(%rbp),%eax
  407785:	83 f8 02             	cmp    $0x2,%eax
  407788:	74 25                	je     4077af <sysutil_open_file+0x43>
  40778a:	83 f8 03             	cmp    $0x3,%eax
  40778d:	74 3b                	je     4077ca <sysutil_open_file+0x5e>
  40778f:	83 f8 01             	cmp    $0x1,%eax
  407792:	75 50                	jne    4077e4 <sysutil_open_file+0x78>
  407794:	48 8b 45 e8          	mov    -0x18(%rbp),%rax
  407798:	be 00 08 00 00       	mov    $0x800,%esi
  40779d:	48 89 c7             	mov    %rax,%rdi
  4077a0:	b8 00 00 00 00       	mov    $0x0,%eax
  4077a5:	e8 b6 ad ff ff       	callq  402560 <open@plt>
  4077aa:	89 45 fc             	mov    %eax,-0x4(%rbp)
  4077ad:	eb 35                	jmp    4077e4 <sysutil_open_file+0x78>
  4077af:	48 8b 45 e8          	mov    -0x18(%rbp),%rax
  4077b3:	be 01 08 00 00       	mov    $0x801,%esi
  4077b8:	48 89 c7             	mov    %rax,%rdi
  4077bb:	b8 00 00 00 00       	mov    $0x0,%eax
  4077c0:	e8 9b ad ff ff       	callq  402560 <open@plt>
  4077c5:	89 45 fc             	mov    %eax,-0x4(%rbp)
  4077c8:	eb 1a                	jmp    4077e4 <sysutil_open_file+0x78>
  4077ca:	48 8b 45 e8          	mov    -0x18(%rbp),%rax
  4077ce:	be 02 08 00 00       	mov    $0x802,%esi
  4077d3:	48 89 c7             	mov    %rax,%rdi
  4077d6:	b8 00 00 00 00       	mov    $0x0,%eax
  4077db:	e8 80 ad ff ff       	callq  402560 <open@plt>
  4077e0:	89 45 fc             	mov    %eax,-0x4(%rbp)
  4077e3:	90                   	nop
  4077e4:	8b 45 fc             	mov    -0x4(%rbp),%eax
  4077e7:	c9                   	leaveq 
  4077e8:	c3                   	retq   

00000000004077e9 <sysutil_create_file_exclusive>:
  4077e9:	55                   	push   %rbp
  4077ea:	48 89 e5             	mov    %rsp,%rbp
  4077ed:	48 83 ec 10          	sub    $0x10,%rsp
  4077f1:	48 89 7d f8          	mov    %rdi,-0x8(%rbp)
  4077f5:	48 8b 45 f8          	mov    -0x8(%rbp),%rax
  4077f9:	ba b6 01 00 00       	mov    $0x1b6,%edx
  4077fe:	be c1 04 00 00       	mov    $0x4c1,%esi
  407803:	48 89 c7             	mov    %rax,%rdi
  407806:	b8 00 00 00 00       	mov    $0x0,%eax
  40780b:	e8 50 ad ff ff       	callq  402560 <open@plt>
  407810:	c9                   	leaveq 
  407811:	c3                   	retq   

0000000000407812 <sysutil_create_or_open_file_append>:
  407812:	55                   	push   %rbp
  407813:	48 89 e5             	mov    %rsp,%rbp
  407816:	48 83 ec 10          	sub    $0x10,%rsp
  40781a:	48 89 7d f8          	mov    %rdi,-0x8(%rbp)
  40781e:	89 75 f4             	mov    %esi,-0xc(%rbp)
  407821:	8b 55 f4             	mov    -0xc(%rbp),%edx
  407824:	48 8b 45 f8          	mov    -0x8(%rbp),%rax
  407828:	be 41 0c 00 00       	mov    $0xc41,%esi
  40782d:	48 89 c7             	mov    %rax,%rdi
  407830:	b8 00 00 00 00       	mov    $0x0,%eax
  407835:	e8 26 ad ff ff       	callq  402560 <open@plt>
  40783a:	c9                   	leaveq 
  40783b:	c3                   	retq   

000000000040783c <sysutil_create_or_open_file>:
  40783c:	55                   	push   %rbp
  40783d:	48 89 e5             	mov    %rsp,%rbp
  407840:	48 83 ec 10          	sub    $0x10,%rsp
  407844:	48 89 7d f8          	mov    %rdi,-0x8(%rbp)
  407848:	89 75 f4             	mov    %esi,-0xc(%rbp)
  40784b:	8b 55 f4             	mov    -0xc(%rbp),%edx
  40784e:	48 8b 45 f8          	mov    -0x8(%rbp),%rax
  407852:	be 42 08 00 00       	mov    $0x842,%esi
  407857:	48 89 c7             	mov    %rax,%rdi
  40785a:	b8 00 00 00 00       	mov    $0x0,%eax
  40785f:	e8 fc ac ff ff       	callq  402560 <open@plt>
  407864:	c9                   	leaveq 
  407865:	c3                   	retq   

0000000000407866 <sysutil_dupfd2>:
  407866:	55                   	push   %rbp
  407867:	48 89 e5             	mov    %rsp,%rbp
  40786a:	48 83 ec 20          	sub    $0x20,%rsp
  40786e:	89 7d ec             	mov    %edi,-0x14(%rbp)
  407871:	89 75 e8             	mov    %esi,-0x18(%rbp)
  407874:	8b 55 e8             	mov    -0x18(%rbp),%edx
  407877:	8b 45 ec             	mov    -0x14(%rbp),%eax
  40787a:	89 d6                	mov    %edx,%esi
  40787c:	89 c7                	mov    %eax,%edi
  40787e:	e8 4d a9 ff ff       	callq  4021d0 <dup2@plt>
  407883:	89 45 fc             	mov    %eax,-0x4(%rbp)
  407886:	83 7d fc 00          	cmpl   $0x0,-0x4(%rbp)
  40788a:	79 0a                	jns    407896 <sysutil_dupfd2+0x30>
  40788c:	bf 4c ad 40 00       	mov    $0x40ad4c,%edi
  407891:	e8 44 fa ff ff       	callq  4072da <die>
  407896:	90                   	nop
  407897:	c9                   	leaveq 
  407898:	c3                   	retq   

0000000000407899 <sysutil_close>:
  407899:	55                   	push   %rbp
  40789a:	48 89 e5             	mov    %rsp,%rbp
  40789d:	48 83 ec 20          	sub    $0x20,%rsp
  4078a1:	89 7d ec             	mov    %edi,-0x14(%rbp)
  4078a4:	8b 45 ec             	mov    -0x14(%rbp),%eax
  4078a7:	89 c7                	mov    %eax,%edi
  4078a9:	e8 16 00 00 00       	callq  4078c4 <sysutil_close_failok>
  4078ae:	89 45 fc             	mov    %eax,-0x4(%rbp)
  4078b1:	83 7d fc 00          	cmpl   $0x0,-0x4(%rbp)
  4078b5:	79 0a                	jns    4078c1 <sysutil_close+0x28>
  4078b7:	bf 51 ad 40 00       	mov    $0x40ad51,%edi
  4078bc:	e8 19 fa ff ff       	callq  4072da <die>
  4078c1:	90                   	nop
  4078c2:	c9                   	leaveq 
  4078c3:	c3                   	retq   

00000000004078c4 <sysutil_close_failok>:
  4078c4:	55                   	push   %rbp
  4078c5:	48 89 e5             	mov    %rsp,%rbp
  4078c8:	48 83 ec 20          	sub    $0x20,%rsp
  4078cc:	89 7d ec             	mov    %edi,-0x14(%rbp)
  4078cf:	eb 0d                	jmp    4078de <sysutil_close_failok+0x1a>
  4078d1:	e8 4a a7 ff ff       	callq  402020 <__errno_location@plt>
  4078d6:	8b 00                	mov    (%rax),%eax
  4078d8:	83 f8 04             	cmp    $0x4,%eax
  4078db:	75 01                	jne    4078de <sysutil_close_failok+0x1a>
  4078dd:	90                   	nop
  4078de:	8b 45 ec             	mov    -0x14(%rbp),%eax
  4078e1:	89 c7                	mov    %eax,%edi
  4078e3:	e8 a8 a9 ff ff       	callq  402290 <close@plt>
  4078e8:	89 45 fc             	mov    %eax,-0x4(%rbp)
  4078eb:	83 7d fc 00          	cmpl   $0x0,-0x4(%rbp)
  4078ef:	78 e0                	js     4078d1 <sysutil_close_failok+0xd>
  4078f1:	8b 45 fc             	mov    -0x4(%rbp),%eax
  4078f4:	c9                   	leaveq 
  4078f5:	c3                   	retq   

00000000004078f6 <sysutil_unlink>:
  4078f6:	55                   	push   %rbp
  4078f7:	48 89 e5             	mov    %rsp,%rbp
  4078fa:	48 83 ec 10          	sub    $0x10,%rsp
  4078fe:	48 89 7d f8          	mov    %rdi,-0x8(%rbp)
  407902:	48 8b 45 f8          	mov    -0x8(%rbp),%rax
  407906:	48 89 c7             	mov    %rax,%rdi
  407909:	e8 22 a7 ff ff       	callq  402030 <unlink@plt>
  40790e:	c9                   	leaveq 
  40790f:	c3                   	retq   

0000000000407910 <sysutil_write_access>:
  407910:	55                   	push   %rbp
  407911:	48 89 e5             	mov    %rsp,%rbp
  407914:	48 83 ec 10          	sub    $0x10,%rsp
  407918:	48 89 7d f8          	mov    %rdi,-0x8(%rbp)
  40791c:	48 8b 45 f8          	mov    -0x8(%rbp),%rax
  407920:	be 02 00 00 00       	mov    $0x2,%esi
  407925:	48 89 c7             	mov    %rax,%rdi
  407928:	e8 43 ac ff ff       	callq  402570 <access@plt>
  40792d:	c9                   	leaveq 
  40792e:	c3                   	retq   

000000000040792f <sysutil_ftruncate>:
  40792f:	55                   	push   %rbp
  407930:	48 89 e5             	mov    %rsp,%rbp
  407933:	89 7d fc             	mov    %edi,-0x4(%rbp)
  407936:	90                   	nop
  407937:	5d                   	pop    %rbp
  407938:	c3                   	retq   

0000000000407939 <sysutil_lseek_to>:
  407939:	55                   	push   %rbp
  40793a:	48 89 e5             	mov    %rsp,%rbp
  40793d:	48 83 ec 20          	sub    $0x20,%rsp
  407941:	89 7d ec             	mov    %edi,-0x14(%rbp)
  407944:	48 89 75 e0          	mov    %rsi,-0x20(%rbp)
  407948:	48 8b 45 e0          	mov    -0x20(%rbp),%rax
  40794c:	89 c2                	mov    %eax,%edx
  40794e:	8b 45 ec             	mov    -0x14(%rbp),%eax
  407951:	be 00 00 00 00       	mov    $0x0,%esi
  407956:	89 c7                	mov    %eax,%edi
  407958:	e8 b3 a8 ff ff       	callq  402210 <lseek@plt>
  40795d:	89 45 fc             	mov    %eax,-0x4(%rbp)
  407960:	83 7d fc 00          	cmpl   $0x0,-0x4(%rbp)
  407964:	79 0a                	jns    407970 <sysutil_lseek_to+0x37>
  407966:	bf 57 ad 40 00       	mov    $0x40ad57,%edi
  40796b:	e8 6a f9 ff ff       	callq  4072da <die>
  407970:	90                   	nop
  407971:	c9                   	leaveq 
  407972:	c3                   	retq   

0000000000407973 <sysutil_lseek_end>:
  407973:	55                   	push   %rbp
  407974:	48 89 e5             	mov    %rsp,%rbp
  407977:	48 83 ec 20          	sub    $0x20,%rsp
  40797b:	89 7d ec             	mov    %edi,-0x14(%rbp)
  40797e:	8b 45 ec             	mov    -0x14(%rbp),%eax
  407981:	ba 00 00 00 00       	mov    $0x0,%edx
  407986:	be 02 00 00 00       	mov    $0x2,%esi
  40798b:	89 c7                	mov    %eax,%edi
  40798d:	e8 7e a8 ff ff       	callq  402210 <lseek@plt>
  407992:	89 45 fc             	mov    %eax,-0x4(%rbp)
  407995:	83 7d fc 00          	cmpl   $0x0,-0x4(%rbp)
  407999:	79 0a                	jns    4079a5 <sysutil_lseek_end+0x32>
  40799b:	bf 57 ad 40 00       	mov    $0x40ad57,%edi
  4079a0:	e8 35 f9 ff ff       	callq  4072da <die>
  4079a5:	90                   	nop
  4079a6:	c9                   	leaveq 
  4079a7:	c3                   	retq   

00000000004079a8 <sysutil_get_file_offset>:
  4079a8:	55                   	push   %rbp
  4079a9:	48 89 e5             	mov    %rsp,%rbp
  4079ac:	48 83 ec 10          	sub    $0x10,%rsp
  4079b0:	89 7d fc             	mov    %edi,-0x4(%rbp)
  4079b3:	8b 45 fc             	mov    -0x4(%rbp),%eax
  4079b6:	ba 00 00 00 00       	mov    $0x0,%edx
  4079bb:	be 01 00 00 00       	mov    $0x1,%esi
  4079c0:	89 c7                	mov    %eax,%edi
  4079c2:	e8 49 a8 ff ff       	callq  402210 <lseek@plt>
  4079c7:	c9                   	leaveq 
  4079c8:	c3                   	retq   

00000000004079c9 <sysutil_read>:
  4079c9:	55                   	push   %rbp
  4079ca:	48 89 e5             	mov    %rsp,%rbp
  4079cd:	48 83 ec 20          	sub    $0x20,%rsp
  4079d1:	89 7d ec             	mov    %edi,-0x14(%rbp)
  4079d4:	48 89 75 e0          	mov    %rsi,-0x20(%rbp)
  4079d8:	89 55 e8             	mov    %edx,-0x18(%rbp)
  4079db:	eb 24                	jmp    407a01 <sysutil_read+0x38>
  4079dd:	e8 3e a6 ff ff       	callq  402020 <__errno_location@plt>
  4079e2:	8b 00                	mov    (%rax),%eax
  4079e4:	83 f8 04             	cmp    $0x4,%eax
  4079e7:	74 18                	je     407a01 <sysutil_read+0x38>
  4079e9:	e8 32 a6 ff ff       	callq  402020 <__errno_location@plt>
  4079ee:	8b 00                	mov    (%rax),%eax
  4079f0:	83 f8 0b             	cmp    $0xb,%eax
  4079f3:	75 02                	jne    4079f7 <sysutil_read+0x2e>
  4079f5:	eb 0a                	jmp    407a01 <sysutil_read+0x38>
  4079f7:	bf 5d ad 40 00       	mov    $0x40ad5d,%edi
  4079fc:	e8 d9 f8 ff ff       	callq  4072da <die>
  407a01:	8b 55 e8             	mov    -0x18(%rbp),%edx
  407a04:	48 8b 4d e0          	mov    -0x20(%rbp),%rcx
  407a08:	8b 45 ec             	mov    -0x14(%rbp),%eax
  407a0b:	48 89 ce             	mov    %rcx,%rsi
  407a0e:	89 c7                	mov    %eax,%edi
  407a10:	e8 cb a8 ff ff       	callq  4022e0 <read@plt>
  407a15:	48 89 45 f8          	mov    %rax,-0x8(%rbp)
  407a19:	48 83 7d f8 00       	cmpq   $0x0,-0x8(%rbp)
  407a1e:	78 bd                	js     4079dd <sysutil_read+0x14>
  407a20:	48 8b 45 f8          	mov    -0x8(%rbp),%rax
  407a24:	c9                   	leaveq 
  407a25:	c3                   	retq   

0000000000407a26 <sysutil_write>:
  407a26:	55                   	push   %rbp
  407a27:	48 89 e5             	mov    %rsp,%rbp
  407a2a:	48 83 ec 20          	sub    $0x20,%rsp
  407a2e:	89 7d ec             	mov    %edi,-0x14(%rbp)
  407a31:	48 89 75 e0          	mov    %rsi,-0x20(%rbp)
  407a35:	89 55 e8             	mov    %edx,-0x18(%rbp)
  407a38:	8b 55 e8             	mov    -0x18(%rbp),%edx
  407a3b:	48 8b 4d e0          	mov    -0x20(%rbp),%rcx
  407a3f:	8b 45 ec             	mov    -0x14(%rbp),%eax
  407a42:	48 89 ce             	mov    %rcx,%rsi
  407a45:	89 c7                	mov    %eax,%edi
  407a47:	e8 84 a6 ff ff       	callq  4020d0 <write@plt>
  407a4c:	48 89 45 f8          	mov    %rax,-0x8(%rbp)
  407a50:	48 83 7d f8 00       	cmpq   $0x0,-0x8(%rbp)
  407a55:	7f 26                	jg     407a7d <sysutil_write+0x57>
  407a57:	e8 c4 a5 ff ff       	callq  402020 <__errno_location@plt>
  407a5c:	8b 00                	mov    (%rax),%eax
  407a5e:	83 f8 04             	cmp    $0x4,%eax
  407a61:	74 0c                	je     407a6f <sysutil_write+0x49>
  407a63:	e8 b8 a5 ff ff       	callq  402020 <__errno_location@plt>
  407a68:	8b 00                	mov    (%rax),%eax
  407a6a:	83 f8 0b             	cmp    $0xb,%eax
  407a6d:	75 07                	jne    407a76 <sysutil_write+0x50>
  407a6f:	b8 00 00 00 00       	mov    $0x0,%eax
  407a74:	eb 0b                	jmp    407a81 <sysutil_write+0x5b>
  407a76:	b8 ff ff ff ff       	mov    $0xffffffff,%eax
  407a7b:	eb 04                	jmp    407a81 <sysutil_write+0x5b>
  407a7d:	48 8b 45 f8          	mov    -0x8(%rbp),%rax
  407a81:	c9                   	leaveq 
  407a82:	c3                   	retq   

0000000000407a83 <sysutil_read_loop>:
  407a83:	55                   	push   %rbp
  407a84:	48 89 e5             	mov    %rsp,%rbp
  407a87:	48 83 ec 20          	sub    $0x20,%rsp
  407a8b:	89 7d ec             	mov    %edi,-0x14(%rbp)
  407a8e:	48 89 75 e0          	mov    %rsi,-0x20(%rbp)
  407a92:	89 55 e8             	mov    %edx,-0x18(%rbp)
  407a95:	8b 45 e8             	mov    -0x18(%rbp),%eax
  407a98:	89 45 f4             	mov    %eax,-0xc(%rbp)
  407a9b:	c7 45 f8 00 00 00 00 	movl   $0x0,-0x8(%rbp)
  407aa2:	eb 39                	jmp    407add <sysutil_read_loop+0x5a>
  407aa4:	8b 55 f4             	mov    -0xc(%rbp),%edx
  407aa7:	8b 45 f8             	mov    -0x8(%rbp),%eax
  407aaa:	48 63 c8             	movslq %eax,%rcx
  407aad:	48 8b 45 e0          	mov    -0x20(%rbp),%rax
  407ab1:	48 01 c1             	add    %rax,%rcx
  407ab4:	8b 45 ec             	mov    -0x14(%rbp),%eax
  407ab7:	48 89 ce             	mov    %rcx,%rsi
  407aba:	89 c7                	mov    %eax,%edi
  407abc:	e8 08 ff ff ff       	callq  4079c9 <sysutil_read>
  407ac1:	89 45 fc             	mov    %eax,-0x4(%rbp)
  407ac4:	83 7d fc 00          	cmpl   $0x0,-0x4(%rbp)
  407ac8:	75 07                	jne    407ad1 <sysutil_read_loop+0x4e>
  407aca:	b8 00 00 00 00       	mov    $0x0,%eax
  407acf:	eb 17                	jmp    407ae8 <sysutil_read_loop+0x65>
  407ad1:	8b 45 fc             	mov    -0x4(%rbp),%eax
  407ad4:	01 45 f8             	add    %eax,-0x8(%rbp)
  407ad7:	8b 45 fc             	mov    -0x4(%rbp),%eax
  407ada:	29 45 f4             	sub    %eax,-0xc(%rbp)
  407add:	8b 45 f8             	mov    -0x8(%rbp),%eax
  407ae0:	3b 45 e8             	cmp    -0x18(%rbp),%eax
  407ae3:	72 bf                	jb     407aa4 <sysutil_read_loop+0x21>
  407ae5:	8b 45 f8             	mov    -0x8(%rbp),%eax
  407ae8:	c9                   	leaveq 
  407ae9:	c3                   	retq   

0000000000407aea <sysutil_write_loop>:
  407aea:	55                   	push   %rbp
  407aeb:	48 89 e5             	mov    %rsp,%rbp
  407aee:	48 83 ec 20          	sub    $0x20,%rsp
  407af2:	89 7d ec             	mov    %edi,-0x14(%rbp)
  407af5:	48 89 75 e0          	mov    %rsi,-0x20(%rbp)
  407af9:	89 55 e8             	mov    %edx,-0x18(%rbp)
  407afc:	8b 45 e8             	mov    -0x18(%rbp),%eax
  407aff:	89 45 f4             	mov    %eax,-0xc(%rbp)
  407b02:	c7 45 f8 00 00 00 00 	movl   $0x0,-0x8(%rbp)
  407b09:	eb 41                	jmp    407b4c <sysutil_write_loop+0x62>
  407b0b:	8b 55 f4             	mov    -0xc(%rbp),%edx
  407b0e:	8b 45 f8             	mov    -0x8(%rbp),%eax
  407b11:	48 63 c8             	movslq %eax,%rcx
  407b14:	48 8b 45 e0          	mov    -0x20(%rbp),%rax
  407b18:	48 01 c1             	add    %rax,%rcx
  407b1b:	8b 45 ec             	mov    -0x14(%rbp),%eax
  407b1e:	48 89 ce             	mov    %rcx,%rsi
  407b21:	89 c7                	mov    %eax,%edi
  407b23:	e8 fe fe ff ff       	callq  407a26 <sysutil_write>
  407b28:	89 45 fc             	mov    %eax,-0x4(%rbp)
  407b2b:	83 7d fc 00          	cmpl   $0x0,-0x4(%rbp)
  407b2f:	75 02                	jne    407b33 <sysutil_write_loop+0x49>
  407b31:	eb 19                	jmp    407b4c <sysutil_write_loop+0x62>
  407b33:	83 7d fc 00          	cmpl   $0x0,-0x4(%rbp)
  407b37:	79 07                	jns    407b40 <sysutil_write_loop+0x56>
  407b39:	b8 ff ff ff ff       	mov    $0xffffffff,%eax
  407b3e:	eb 19                	jmp    407b59 <sysutil_write_loop+0x6f>
  407b40:	8b 45 fc             	mov    -0x4(%rbp),%eax
  407b43:	01 45 f8             	add    %eax,-0x8(%rbp)
  407b46:	8b 45 fc             	mov    -0x4(%rbp),%eax
  407b49:	29 45 f4             	sub    %eax,-0xc(%rbp)
  407b4c:	8b 45 f8             	mov    -0x8(%rbp),%eax
  407b4f:	3b 45 e8             	cmp    -0x18(%rbp),%eax
  407b52:	72 b7                	jb     407b0b <sysutil_write_loop+0x21>
  407b54:	b8 00 00 00 00       	mov    $0x0,%eax
  407b59:	c9                   	leaveq 
  407b5a:	c3                   	retq   

0000000000407b5b <sysutil_stat>:
  407b5b:	55                   	push   %rbp
  407b5c:	48 89 e5             	mov    %rsp,%rbp
  407b5f:	48 83 ec 10          	sub    $0x10,%rsp
  407b63:	48 89 7d f8          	mov    %rdi,-0x8(%rbp)
  407b67:	48 89 75 f0          	mov    %rsi,-0x10(%rbp)
  407b6b:	bf 90 00 00 00       	mov    $0x90,%edi
  407b70:	e8 ee 03 00 00       	callq  407f63 <sysutil_malloc>
  407b75:	48 89 c2             	mov    %rax,%rdx
  407b78:	48 8b 45 f0          	mov    -0x10(%rbp),%rax
  407b7c:	48 89 10             	mov    %rdx,(%rax)
  407b7f:	48 8b 45 f0          	mov    -0x10(%rbp),%rax
  407b83:	48 8b 10             	mov    (%rax),%rdx
  407b86:	48 8b 45 f8          	mov    -0x8(%rbp),%rax
  407b8a:	48 89 d6             	mov    %rdx,%rsi
  407b8d:	48 89 c7             	mov    %rax,%rdi
  407b90:	e8 2b 2b 00 00       	callq  40a6c0 <__stat>
  407b95:	85 c0                	test   %eax,%eax
  407b97:	79 16                	jns    407baf <sysutil_stat+0x54>
  407b99:	48 8b 45 f0          	mov    -0x10(%rbp),%rax
  407b9d:	48 8b 00             	mov    (%rax),%rax
  407ba0:	48 89 c7             	mov    %rax,%rdi
  407ba3:	e8 1f 04 00 00       	callq  407fc7 <sysutil_free>
  407ba8:	b8 ff ff ff ff       	mov    $0xffffffff,%eax
  407bad:	eb 05                	jmp    407bb4 <sysutil_stat+0x59>
  407baf:	b8 00 00 00 00       	mov    $0x0,%eax
  407bb4:	c9                   	leaveq 
  407bb5:	c3                   	retq   

0000000000407bb6 <sysutil_lstat>:
  407bb6:	55                   	push   %rbp
  407bb7:	48 89 e5             	mov    %rsp,%rbp
  407bba:	48 83 ec 10          	sub    $0x10,%rsp
  407bbe:	48 89 7d f8          	mov    %rdi,-0x8(%rbp)
  407bc2:	48 89 75 f0          	mov    %rsi,-0x10(%rbp)
  407bc6:	bf 90 00 00 00       	mov    $0x90,%edi
  407bcb:	e8 93 03 00 00       	callq  407f63 <sysutil_malloc>
  407bd0:	48 89 c2             	mov    %rax,%rdx
  407bd3:	48 8b 45 f0          	mov    -0x10(%rbp),%rax
  407bd7:	48 89 10             	mov    %rdx,(%rax)
  407bda:	48 8b 45 f0          	mov    -0x10(%rbp),%rax
  407bde:	48 8b 10             	mov    (%rax),%rdx
  407be1:	48 8b 45 f8          	mov    -0x8(%rbp),%rax
  407be5:	48 89 d6             	mov    %rdx,%rsi
  407be8:	48 89 c7             	mov    %rax,%rdi
  407beb:	e8 f0 2a 00 00       	callq  40a6e0 <__lstat>
  407bf0:	85 c0                	test   %eax,%eax
  407bf2:	79 07                	jns    407bfb <sysutil_lstat+0x45>
  407bf4:	b8 ff ff ff ff       	mov    $0xffffffff,%eax
  407bf9:	eb 05                	jmp    407c00 <sysutil_lstat+0x4a>
  407bfb:	b8 00 00 00 00       	mov    $0x0,%eax
  407c00:	c9                   	leaveq 
  407c01:	c3                   	retq   

0000000000407c02 <sysutil_fstat>:
  407c02:	55                   	push   %rbp
  407c03:	48 89 e5             	mov    %rsp,%rbp
  407c06:	48 83 ec 10          	sub    $0x10,%rsp
  407c0a:	89 7d fc             	mov    %edi,-0x4(%rbp)
  407c0d:	48 89 75 f0          	mov    %rsi,-0x10(%rbp)
  407c11:	bf 90 00 00 00       	mov    $0x90,%edi
  407c16:	e8 48 03 00 00       	callq  407f63 <sysutil_malloc>
  407c1b:	48 89 c2             	mov    %rax,%rdx
  407c1e:	48 8b 45 f0          	mov    -0x10(%rbp),%rax
  407c22:	48 89 10             	mov    %rdx,(%rax)
  407c25:	48 8b 45 f0          	mov    -0x10(%rbp),%rax
  407c29:	48 8b 10             	mov    (%rax),%rdx
  407c2c:	8b 45 fc             	mov    -0x4(%rbp),%eax
  407c2f:	48 89 d6             	mov    %rdx,%rsi
  407c32:	89 c7                	mov    %eax,%edi
  407c34:	e8 97 2a 00 00       	callq  40a6d0 <__fstat>
  407c39:	85 c0                	test   %eax,%eax
  407c3b:	90                   	nop
  407c3c:	c9                   	leaveq 
  407c3d:	c3                   	retq   

0000000000407c3e <sysutil_dir_stat>:
  407c3e:	55                   	push   %rbp
  407c3f:	48 89 e5             	mov    %rsp,%rbp
  407c42:	48 81 ec b0 00 00 00 	sub    $0xb0,%rsp
  407c49:	48 89 bd 58 ff ff ff 	mov    %rdi,-0xa8(%rbp)
  407c50:	48 89 b5 50 ff ff ff 	mov    %rsi,-0xb0(%rbp)
  407c57:	64 48 8b 04 25 28 00 	mov    %fs:0x28,%rax
  407c5e:	00 00 
  407c60:	48 89 45 f8          	mov    %rax,-0x8(%rbp)
  407c64:	31 c0                	xor    %eax,%eax
  407c66:	90                   	nop
  407c67:	48 8b 45 f8          	mov    -0x8(%rbp),%rax
  407c6b:	64 48 33 04 25 28 00 	xor    %fs:0x28,%rax
  407c72:	00 00 
  407c74:	74 05                	je     407c7b <sysutil_dir_stat+0x3d>
  407c76:	e8 25 a5 ff ff       	callq  4021a0 <__stack_chk_fail@plt>
  407c7b:	c9                   	leaveq 
  407c7c:	c3                   	retq   

0000000000407c7d <sysutil_statbuf_is_regfile>:
  407c7d:	55                   	push   %rbp
  407c7e:	48 89 e5             	mov    %rsp,%rbp
  407c81:	48 89 7d f8          	mov    %rdi,-0x8(%rbp)
  407c85:	48 8b 45 f8          	mov    -0x8(%rbp),%rax
  407c89:	8b 40 18             	mov    0x18(%rax),%eax
  407c8c:	25 00 f0 00 00       	and    $0xf000,%eax
  407c91:	3d 00 80 00 00       	cmp    $0x8000,%eax
  407c96:	0f 94 c0             	sete   %al
  407c99:	0f b6 c0             	movzbl %al,%eax
  407c9c:	5d                   	pop    %rbp
  407c9d:	c3                   	retq   

0000000000407c9e <sysutil_statbuf_is_symlink>:
  407c9e:	55                   	push   %rbp
  407c9f:	48 89 e5             	mov    %rsp,%rbp
  407ca2:	48 89 7d f8          	mov    %rdi,-0x8(%rbp)
  407ca6:	48 8b 45 f8          	mov    -0x8(%rbp),%rax
  407caa:	8b 40 18             	mov    0x18(%rax),%eax
  407cad:	25 00 f0 00 00       	and    $0xf000,%eax
  407cb2:	3d 00 a0 00 00       	cmp    $0xa000,%eax
  407cb7:	0f 94 c0             	sete   %al
  407cba:	0f b6 c0             	movzbl %al,%eax
  407cbd:	5d                   	pop    %rbp
  407cbe:	c3                   	retq   

0000000000407cbf <sysutil_statbuf_is_socket>:
  407cbf:	55                   	push   %rbp
  407cc0:	48 89 e5             	mov    %rsp,%rbp
  407cc3:	48 89 7d f8          	mov    %rdi,-0x8(%rbp)
  407cc7:	48 8b 45 f8          	mov    -0x8(%rbp),%rax
  407ccb:	8b 40 18             	mov    0x18(%rax),%eax
  407cce:	25 00 f0 00 00       	and    $0xf000,%eax
  407cd3:	3d 00 c0 00 00       	cmp    $0xc000,%eax
  407cd8:	0f 94 c0             	sete   %al
  407cdb:	0f b6 c0             	movzbl %al,%eax
  407cde:	5d                   	pop    %rbp
  407cdf:	c3                   	retq   

0000000000407ce0 <sysutil_statbuf_is_dir>:
  407ce0:	55                   	push   %rbp
  407ce1:	48 89 e5             	mov    %rsp,%rbp
  407ce4:	48 89 7d f8          	mov    %rdi,-0x8(%rbp)
  407ce8:	48 8b 45 f8          	mov    -0x8(%rbp),%rax
  407cec:	8b 40 18             	mov    0x18(%rax),%eax
  407cef:	25 00 f0 00 00       	and    $0xf000,%eax
  407cf4:	3d 00 40 00 00       	cmp    $0x4000,%eax
  407cf9:	0f 94 c0             	sete   %al
  407cfc:	0f b6 c0             	movzbl %al,%eax
  407cff:	5d                   	pop    %rbp
  407d00:	c3                   	retq   

0000000000407d01 <sysutil_statbuf_get_size>:
  407d01:	55                   	push   %rbp
  407d02:	48 89 e5             	mov    %rsp,%rbp
  407d05:	48 89 7d f8          	mov    %rdi,-0x8(%rbp)
  407d09:	48 8b 45 f8          	mov    -0x8(%rbp),%rax
  407d0d:	48 8b 40 30          	mov    0x30(%rax),%rax
  407d11:	5d                   	pop    %rbp
  407d12:	c3                   	retq   

0000000000407d13 <sysutil_statbuf_get_perms>:
  407d13:	55                   	push   %rbp
  407d14:	48 89 e5             	mov    %rsp,%rbp
  407d17:	48 89 7d f8          	mov    %rdi,-0x8(%rbp)
  407d1b:	b8 00 00 00 00       	mov    $0x0,%eax
  407d20:	5d                   	pop    %rbp
  407d21:	c3                   	retq   

0000000000407d22 <sysutil_statbuf_get_date>:
  407d22:	55                   	push   %rbp
  407d23:	48 89 e5             	mov    %rsp,%rbp
  407d26:	48 89 7d f8          	mov    %rdi,-0x8(%rbp)
  407d2a:	89 75 f4             	mov    %esi,-0xc(%rbp)
  407d2d:	48 89 55 e8          	mov    %rdx,-0x18(%rbp)
  407d31:	b8 00 00 00 00       	mov    $0x0,%eax
  407d36:	5d                   	pop    %rbp
  407d37:	c3                   	retq   

0000000000407d38 <sysutil_statbuf_get_numeric_date>:
  407d38:	55                   	push   %rbp
  407d39:	48 89 e5             	mov    %rsp,%rbp
  407d3c:	48 89 7d f8          	mov    %rdi,-0x8(%rbp)
  407d40:	89 75 f4             	mov    %esi,-0xc(%rbp)
  407d43:	b8 00 00 00 00       	mov    $0x0,%eax
  407d48:	5d                   	pop    %rbp
  407d49:	c3                   	retq   

0000000000407d4a <sysutil_statbuf_get_links>:
  407d4a:	55                   	push   %rbp
  407d4b:	48 89 e5             	mov    %rsp,%rbp
  407d4e:	48 89 7d f8          	mov    %rdi,-0x8(%rbp)
  407d52:	48 8b 45 f8          	mov    -0x8(%rbp),%rax
  407d56:	48 8b 40 10          	mov    0x10(%rax),%rax
  407d5a:	5d                   	pop    %rbp
  407d5b:	c3                   	retq   

0000000000407d5c <sysutil_statbuf_get_uid>:
  407d5c:	55                   	push   %rbp
  407d5d:	48 89 e5             	mov    %rsp,%rbp
  407d60:	48 89 7d f8          	mov    %rdi,-0x8(%rbp)
  407d64:	48 8b 45 f8          	mov    -0x8(%rbp),%rax
  407d68:	8b 40 1c             	mov    0x1c(%rax),%eax
  407d6b:	5d                   	pop    %rbp
  407d6c:	c3                   	retq   

0000000000407d6d <sysutil_statbuf_get_gid>:
  407d6d:	55                   	push   %rbp
  407d6e:	48 89 e5             	mov    %rsp,%rbp
  407d71:	48 89 7d f8          	mov    %rdi,-0x8(%rbp)
  407d75:	48 8b 45 f8          	mov    -0x8(%rbp),%rax
  407d79:	8b 40 20             	mov    0x20(%rax),%eax
  407d7c:	5d                   	pop    %rbp
  407d7d:	c3                   	retq   

0000000000407d7e <sysutil_statbuf_is_readable_other>:
  407d7e:	55                   	push   %rbp
  407d7f:	48 89 e5             	mov    %rsp,%rbp
  407d82:	48 89 7d f8          	mov    %rdi,-0x8(%rbp)
  407d86:	b8 00 00 00 00       	mov    $0x0,%eax
  407d8b:	5d                   	pop    %rbp
  407d8c:	c3                   	retq   

0000000000407d8d <sysutil_statbuf_get_sortkey_mtime>:
  407d8d:	55                   	push   %rbp
  407d8e:	48 89 e5             	mov    %rsp,%rbp
  407d91:	48 89 7d f8          	mov    %rdi,-0x8(%rbp)
  407d95:	b8 00 00 00 00       	mov    $0x0,%eax
  407d9a:	5d                   	pop    %rbp
  407d9b:	c3                   	retq   

0000000000407d9c <sysutil_chmod>:
  407d9c:	55                   	push   %rbp
  407d9d:	48 89 e5             	mov    %rsp,%rbp
  407da0:	48 83 ec 10          	sub    $0x10,%rsp
  407da4:	48 89 7d f8          	mov    %rdi,-0x8(%rbp)
  407da8:	89 75 f4             	mov    %esi,-0xc(%rbp)
  407dab:	8b 55 f4             	mov    -0xc(%rbp),%edx
  407dae:	48 8b 45 f8          	mov    -0x8(%rbp),%rax
  407db2:	89 d6                	mov    %edx,%esi
  407db4:	48 89 c7             	mov    %rax,%rdi
  407db7:	e8 44 a7 ff ff       	callq  402500 <chmod@plt>
  407dbc:	c9                   	leaveq 
  407dbd:	c3                   	retq   

0000000000407dbe <sysutil_fchown>:
  407dbe:	55                   	push   %rbp
  407dbf:	48 89 e5             	mov    %rsp,%rbp
  407dc2:	48 83 ec 10          	sub    $0x10,%rsp
  407dc6:	89 7d fc             	mov    %edi,-0x4(%rbp)
  407dc9:	89 75 f8             	mov    %esi,-0x8(%rbp)
  407dcc:	89 55 f4             	mov    %edx,-0xc(%rbp)
  407dcf:	8b 55 f4             	mov    -0xc(%rbp),%edx
  407dd2:	8b 4d f8             	mov    -0x8(%rbp),%ecx
  407dd5:	8b 45 fc             	mov    -0x4(%rbp),%eax
  407dd8:	89 ce                	mov    %ecx,%esi
  407dda:	89 c7                	mov    %eax,%edi
  407ddc:	e8 9f a7 ff ff       	callq  402580 <fchown@plt>
  407de1:	90                   	nop
  407de2:	c9                   	leaveq 
  407de3:	c3                   	retq   

0000000000407de4 <sysutil_fchmod>:
  407de4:	55                   	push   %rbp
  407de5:	48 89 e5             	mov    %rsp,%rbp
  407de8:	48 83 ec 10          	sub    $0x10,%rsp
  407dec:	89 7d fc             	mov    %edi,-0x4(%rbp)
  407def:	89 75 f8             	mov    %esi,-0x8(%rbp)
  407df2:	8b 55 f8             	mov    -0x8(%rbp),%edx
  407df5:	8b 45 fc             	mov    -0x4(%rbp),%eax
  407df8:	89 d6                	mov    %edx,%esi
  407dfa:	89 c7                	mov    %eax,%edi
  407dfc:	e8 ef a6 ff ff       	callq  4024f0 <fchmod@plt>
  407e01:	90                   	nop
  407e02:	c9                   	leaveq 
  407e03:	c3                   	retq   

0000000000407e04 <sysutil_readlink>:
  407e04:	55                   	push   %rbp
  407e05:	48 89 e5             	mov    %rsp,%rbp
  407e08:	48 83 ec 20          	sub    $0x20,%rsp
  407e0c:	48 89 7d f8          	mov    %rdi,-0x8(%rbp)
  407e10:	48 89 75 f0          	mov    %rsi,-0x10(%rbp)
  407e14:	89 55 ec             	mov    %edx,-0x14(%rbp)
  407e17:	8b 55 ec             	mov    -0x14(%rbp),%edx
  407e1a:	48 8b 4d f0          	mov    -0x10(%rbp),%rcx
  407e1e:	48 8b 45 f8          	mov    -0x8(%rbp),%rax
  407e22:	48 89 ce             	mov    %rcx,%rsi
  407e25:	48 89 c7             	mov    %rax,%rdi
  407e28:	e8 83 a2 ff ff       	callq  4020b0 <readlink@plt>
  407e2d:	c9                   	leaveq 
  407e2e:	c3                   	retq   

0000000000407e2f <sysutil_lock_file_write>:
  407e2f:	55                   	push   %rbp
  407e30:	48 89 e5             	mov    %rsp,%rbp
  407e33:	48 83 ec 30          	sub    $0x30,%rsp
  407e37:	89 7d dc             	mov    %edi,-0x24(%rbp)
  407e3a:	e8 aa 01 00 00       	callq  407fe9 <sysutil_getpid>
  407e3f:	89 45 f8             	mov    %eax,-0x8(%rbp)
  407e42:	48 c7 45 e8 00 00 00 	movq   $0x0,-0x18(%rbp)
  407e49:	00 
  407e4a:	48 c7 45 f0 00 00 00 	movq   $0x0,-0x10(%rbp)
  407e51:	00 
  407e52:	66 c7 45 e0 01 00    	movw   $0x1,-0x20(%rbp)
  407e58:	66 c7 45 e2 00 00    	movw   $0x0,-0x1e(%rbp)
  407e5e:	8b 45 dc             	mov    -0x24(%rbp),%eax
  407e61:	ff 75 f8             	pushq  -0x8(%rbp)
  407e64:	ff 75 f0             	pushq  -0x10(%rbp)
  407e67:	ff 75 e8             	pushq  -0x18(%rbp)
  407e6a:	ff 75 e0             	pushq  -0x20(%rbp)
  407e6d:	be 06 00 00 00       	mov    $0x6,%esi
  407e72:	89 c7                	mov    %eax,%edi
  407e74:	b8 00 00 00 00       	mov    $0x0,%eax
  407e79:	e8 42 a2 ff ff       	callq  4020c0 <fcntl@plt>
  407e7e:	48 83 c4 20          	add    $0x20,%rsp
  407e82:	85 c0                	test   %eax,%eax
  407e84:	79 07                	jns    407e8d <sysutil_lock_file_write+0x5e>
  407e86:	b8 ff ff ff ff       	mov    $0xffffffff,%eax
  407e8b:	eb 05                	jmp    407e92 <sysutil_lock_file_write+0x63>
  407e8d:	b8 00 00 00 00       	mov    $0x0,%eax
  407e92:	c9                   	leaveq 
  407e93:	c3                   	retq   

0000000000407e94 <sysutil_lock_file_read>:
  407e94:	55                   	push   %rbp
  407e95:	48 89 e5             	mov    %rsp,%rbp
  407e98:	48 83 ec 30          	sub    $0x30,%rsp
  407e9c:	89 7d dc             	mov    %edi,-0x24(%rbp)
  407e9f:	e8 45 01 00 00       	callq  407fe9 <sysutil_getpid>
  407ea4:	89 45 f8             	mov    %eax,-0x8(%rbp)
  407ea7:	48 c7 45 e8 00 00 00 	movq   $0x0,-0x18(%rbp)
  407eae:	00 
  407eaf:	48 c7 45 f0 00 00 00 	movq   $0x0,-0x10(%rbp)
  407eb6:	00 
  407eb7:	66 c7 45 e0 00 00    	movw   $0x0,-0x20(%rbp)
  407ebd:	66 c7 45 e2 00 00    	movw   $0x0,-0x1e(%rbp)
  407ec3:	8b 45 dc             	mov    -0x24(%rbp),%eax
  407ec6:	ff 75 f8             	pushq  -0x8(%rbp)
  407ec9:	ff 75 f0             	pushq  -0x10(%rbp)
  407ecc:	ff 75 e8             	pushq  -0x18(%rbp)
  407ecf:	ff 75 e0             	pushq  -0x20(%rbp)
  407ed2:	be 06 00 00 00       	mov    $0x6,%esi
  407ed7:	89 c7                	mov    %eax,%edi
  407ed9:	b8 00 00 00 00       	mov    $0x0,%eax
  407ede:	e8 dd a1 ff ff       	callq  4020c0 <fcntl@plt>
  407ee3:	48 83 c4 20          	add    $0x20,%rsp
  407ee7:	b8 00 00 00 00       	mov    $0x0,%eax
  407eec:	c9                   	leaveq 
  407eed:	c3                   	retq   

0000000000407eee <sysutil_unlock_file>:
  407eee:	55                   	push   %rbp
  407eef:	48 89 e5             	mov    %rsp,%rbp
  407ef2:	48 83 ec 30          	sub    $0x30,%rsp
  407ef6:	89 7d dc             	mov    %edi,-0x24(%rbp)
  407ef9:	e8 eb 00 00 00       	callq  407fe9 <sysutil_getpid>
  407efe:	89 45 f8             	mov    %eax,-0x8(%rbp)
  407f01:	48 c7 45 e8 00 00 00 	movq   $0x0,-0x18(%rbp)
  407f08:	00 
  407f09:	48 c7 45 f0 00 00 00 	movq   $0x0,-0x10(%rbp)
  407f10:	00 
  407f11:	66 c7 45 e0 02 00    	movw   $0x2,-0x20(%rbp)
  407f17:	66 c7 45 e2 00 00    	movw   $0x0,-0x1e(%rbp)
  407f1d:	8b 45 dc             	mov    -0x24(%rbp),%eax
  407f20:	ff 75 f8             	pushq  -0x8(%rbp)
  407f23:	ff 75 f0             	pushq  -0x10(%rbp)
  407f26:	ff 75 e8             	pushq  -0x18(%rbp)
  407f29:	ff 75 e0             	pushq  -0x20(%rbp)
  407f2c:	be 06 00 00 00       	mov    $0x6,%esi
  407f31:	89 c7                	mov    %eax,%edi
  407f33:	b8 00 00 00 00       	mov    $0x0,%eax
  407f38:	e8 83 a1 ff ff       	callq  4020c0 <fcntl@plt>
  407f3d:	48 83 c4 20          	add    $0x20,%rsp
  407f41:	90                   	nop
  407f42:	c9                   	leaveq 
  407f43:	c3                   	retq   

0000000000407f44 <sysutil_memprotect>:
  407f44:	55                   	push   %rbp
  407f45:	48 89 e5             	mov    %rsp,%rbp
  407f48:	48 89 7d f8          	mov    %rdi,-0x8(%rbp)
  407f4c:	89 75 f4             	mov    %esi,-0xc(%rbp)
  407f4f:	89 55 f0             	mov    %edx,-0x10(%rbp)
  407f52:	90                   	nop
  407f53:	5d                   	pop    %rbp
  407f54:	c3                   	retq   

0000000000407f55 <sysutil_memunmap>:
  407f55:	55                   	push   %rbp
  407f56:	48 89 e5             	mov    %rsp,%rbp
  407f59:	48 89 7d f8          	mov    %rdi,-0x8(%rbp)
  407f5d:	89 75 f4             	mov    %esi,-0xc(%rbp)
  407f60:	90                   	nop
  407f61:	5d                   	pop    %rbp
  407f62:	c3                   	retq   

0000000000407f63 <sysutil_malloc>:
  407f63:	55                   	push   %rbp
  407f64:	48 89 e5             	mov    %rsp,%rbp
  407f67:	48 83 ec 20          	sub    $0x20,%rsp
  407f6b:	89 7d ec             	mov    %edi,-0x14(%rbp)
  407f6e:	83 7d ec 00          	cmpl   $0x0,-0x14(%rbp)
  407f72:	8b 45 ec             	mov    -0x14(%rbp),%eax
  407f75:	48 89 c7             	mov    %rax,%rdi
  407f78:	e8 c3 a4 ff ff       	callq  402440 <malloc@plt>
  407f7d:	48 89 45 f8          	mov    %rax,-0x8(%rbp)
  407f81:	48 83 7d f8 00       	cmpq   $0x0,-0x8(%rbp)
  407f86:	75 0a                	jne    407f92 <sysutil_malloc+0x2f>
  407f88:	bf 62 ad 40 00       	mov    $0x40ad62,%edi
  407f8d:	e8 48 f3 ff ff       	callq  4072da <die>
  407f92:	48 8b 45 f8          	mov    -0x8(%rbp),%rax
  407f96:	c9                   	leaveq 
  407f97:	c3                   	retq   

0000000000407f98 <sysutil_realloc>:
  407f98:	55                   	push   %rbp
  407f99:	48 89 e5             	mov    %rsp,%rbp
  407f9c:	48 83 ec 20          	sub    $0x20,%rsp
  407fa0:	48 89 7d e8          	mov    %rdi,-0x18(%rbp)
  407fa4:	89 75 e4             	mov    %esi,-0x1c(%rbp)
  407fa7:	83 7d e4 00          	cmpl   $0x0,-0x1c(%rbp)
  407fab:	8b 55 e4             	mov    -0x1c(%rbp),%edx
  407fae:	48 8b 45 e8          	mov    -0x18(%rbp),%rax
  407fb2:	48 89 d6             	mov    %rdx,%rsi
  407fb5:	48 89 c7             	mov    %rax,%rdi
  407fb8:	e8 03 a5 ff ff       	callq  4024c0 <realloc@plt>
  407fbd:	48 89 45 f8          	mov    %rax,-0x8(%rbp)
  407fc1:	48 8b 45 f8          	mov    -0x8(%rbp),%rax
  407fc5:	c9                   	leaveq 
  407fc6:	c3                   	retq   

0000000000407fc7 <sysutil_free>:
  407fc7:	55                   	push   %rbp
  407fc8:	48 89 e5             	mov    %rsp,%rbp
  407fcb:	48 83 ec 10          	sub    $0x10,%rsp
  407fcf:	48 89 7d f8          	mov    %rdi,-0x8(%rbp)
  407fd3:	48 83 7d f8 00       	cmpq   $0x0,-0x8(%rbp)
  407fd8:	74 0c                	je     407fe6 <sysutil_free+0x1f>
  407fda:	48 8b 45 f8          	mov    -0x8(%rbp),%rax
  407fde:	48 89 c7             	mov    %rax,%rdi
  407fe1:	e8 fa 9f ff ff       	callq  401fe0 <free@plt>
  407fe6:	90                   	nop
  407fe7:	c9                   	leaveq 
  407fe8:	c3                   	retq   

0000000000407fe9 <sysutil_getpid>:
  407fe9:	55                   	push   %rbp
  407fea:	48 89 e5             	mov    %rsp,%rbp
  407fed:	e8 ee a0 ff ff       	callq  4020e0 <getpid@plt>
  407ff2:	5d                   	pop    %rbp
  407ff3:	c3                   	retq   

0000000000407ff4 <sysutil_post_fork>:
  407ff4:	55                   	push   %rbp
  407ff5:	48 89 e5             	mov    %rsp,%rbp
  407ff8:	90                   	nop
  407ff9:	5d                   	pop    %rbp
  407ffa:	c3                   	retq   

0000000000407ffb <sysutil_fork>:
  407ffb:	55                   	push   %rbp
  407ffc:	48 89 e5             	mov    %rsp,%rbp
  407fff:	48 83 ec 10          	sub    $0x10,%rsp
  408003:	e8 98 a6 ff ff       	callq  4026a0 <fork@plt>
  408008:	89 45 fc             	mov    %eax,-0x4(%rbp)
  40800b:	83 7d fc 00          	cmpl   $0x0,-0x4(%rbp)
  40800f:	79 0a                	jns    40801b <sysutil_fork+0x20>
  408011:	bf 6f ad 40 00       	mov    $0x40ad6f,%edi
  408016:	e8 bf f2 ff ff       	callq  4072da <die>
  40801b:	8b 45 fc             	mov    -0x4(%rbp),%eax
  40801e:	c9                   	leaveq 
  40801f:	c3                   	retq   

0000000000408020 <sysutil_fork_failok>:
  408020:	55                   	push   %rbp
  408021:	48 89 e5             	mov    %rsp,%rbp
  408024:	48 83 ec 10          	sub    $0x10,%rsp
  408028:	e8 ce ff ff ff       	callq  407ffb <sysutil_fork>
  40802d:	89 45 fc             	mov    %eax,-0x4(%rbp)
  408030:	83 7d fc 00          	cmpl   $0x0,-0x4(%rbp)
  408034:	75 05                	jne    40803b <sysutil_fork_failok+0x1b>
  408036:	e8 b9 ff ff ff       	callq  407ff4 <sysutil_post_fork>
  40803b:	8b 45 fc             	mov    -0x4(%rbp),%eax
  40803e:	c9                   	leaveq 
  40803f:	c3                   	retq   

0000000000408040 <sysutil_exit>:
  408040:	55                   	push   %rbp
  408041:	48 89 e5             	mov    %rsp,%rbp
  408044:	48 83 ec 10          	sub    $0x10,%rsp
  408048:	89 7d fc             	mov    %edi,-0x4(%rbp)
  40804b:	8b 45 fc             	mov    -0x4(%rbp),%eax
  40804e:	89 c7                	mov    %eax,%edi
  408050:	e8 eb 9f ff ff       	callq  402040 <_exit@plt>

0000000000408055 <sysutil_wait>:
  408055:	55                   	push   %rbp
  408056:	48 89 e5             	mov    %rsp,%rbp
  408059:	48 83 ec 20          	sub    $0x20,%rsp
  40805d:	64 48 8b 04 25 28 00 	mov    %fs:0x28,%rax
  408064:	00 00 
  408066:	48 89 45 f8          	mov    %rax,-0x8(%rbp)
  40806a:	31 c0                	xor    %eax,%eax
  40806c:	48 8d 45 e8          	lea    -0x18(%rbp),%rax
  408070:	ba 01 00 00 00       	mov    $0x1,%edx
  408075:	48 89 c6             	mov    %rax,%rsi
  408078:	bf ff ff ff ff       	mov    $0xffffffff,%edi
  40807d:	e8 be a4 ff ff       	callq  402540 <waitpid@plt>
  408082:	89 45 ec             	mov    %eax,-0x14(%rbp)
  408085:	83 7d ec 00          	cmpl   $0x0,-0x14(%rbp)
  408089:	79 0a                	jns    408095 <sysutil_wait+0x40>
  40808b:	bf 74 ad 40 00       	mov    $0x40ad74,%edi
  408090:	e8 45 f2 ff ff       	callq  4072da <die>
  408095:	8b 45 e8             	mov    -0x18(%rbp),%eax
  408098:	89 45 f4             	mov    %eax,-0xc(%rbp)
  40809b:	8b 45 ec             	mov    -0x14(%rbp),%eax
  40809e:	89 45 f0             	mov    %eax,-0x10(%rbp)
  4080a1:	48 8b 45 f0          	mov    -0x10(%rbp),%rax
  4080a5:	48 8b 4d f8          	mov    -0x8(%rbp),%rcx
  4080a9:	64 48 33 0c 25 28 00 	xor    %fs:0x28,%rcx
  4080b0:	00 00 
  4080b2:	74 05                	je     4080b9 <sysutil_wait+0x64>
  4080b4:	e8 e7 a0 ff ff       	callq  4021a0 <__stack_chk_fail@plt>
  4080b9:	c9                   	leaveq 
  4080ba:	c3                   	retq   

00000000004080bb <sysutil_wait_reap_one>:
  4080bb:	55                   	push   %rbp
  4080bc:	48 89 e5             	mov    %rsp,%rbp
  4080bf:	48 83 ec 20          	sub    $0x20,%rsp
  4080c3:	64 48 8b 04 25 28 00 	mov    %fs:0x28,%rax
  4080ca:	00 00 
  4080cc:	48 89 45 f8          	mov    %rax,-0x8(%rbp)
  4080d0:	31 c0                	xor    %eax,%eax
  4080d2:	c7 45 ec 00 00 00 00 	movl   $0x0,-0x14(%rbp)
  4080d9:	e8 77 ff ff ff       	callq  408055 <sysutil_wait>
  4080de:	48 89 45 f0          	mov    %rax,-0x10(%rbp)
  4080e2:	48 8d 45 f0          	lea    -0x10(%rbp),%rax
  4080e6:	48 89 c7             	mov    %rax,%rdi
  4080e9:	e8 3c 00 00 00       	callq  40812a <sysutil_wait_get_retval>
  4080ee:	89 45 ec             	mov    %eax,-0x14(%rbp)
  4080f1:	83 7d ec 00          	cmpl   $0x0,-0x14(%rbp)
  4080f5:	74 1a                	je     408111 <sysutil_wait_reap_one+0x56>
  4080f7:	48 8d 45 f0          	lea    -0x10(%rbp),%rax
  4080fb:	48 89 c7             	mov    %rax,%rdi
  4080fe:	e8 37 00 00 00       	callq  40813a <sysutil_wait_exited_normally>
  408103:	85 c0                	test   %eax,%eax
  408105:	75 0a                	jne    408111 <sysutil_wait_reap_one+0x56>
  408107:	bf ff ff ff ff       	mov    $0xffffffff,%edi
  40810c:	e8 2f ff ff ff       	callq  408040 <sysutil_exit>
  408111:	8b 45 ec             	mov    -0x14(%rbp),%eax
  408114:	48 8b 55 f8          	mov    -0x8(%rbp),%rdx
  408118:	64 48 33 14 25 28 00 	xor    %fs:0x28,%rdx
  40811f:	00 00 
  408121:	74 05                	je     408128 <sysutil_wait_reap_one+0x6d>
  408123:	e8 78 a0 ff ff       	callq  4021a0 <__stack_chk_fail@plt>
  408128:	c9                   	leaveq 
  408129:	c3                   	retq   

000000000040812a <sysutil_wait_get_retval>:
  40812a:	55                   	push   %rbp
  40812b:	48 89 e5             	mov    %rsp,%rbp
  40812e:	48 89 7d f8          	mov    %rdi,-0x8(%rbp)
  408132:	48 8b 45 f8          	mov    -0x8(%rbp),%rax
  408136:	8b 00                	mov    (%rax),%eax
  408138:	5d                   	pop    %rbp
  408139:	c3                   	retq   

000000000040813a <sysutil_wait_exited_normally>:
  40813a:	55                   	push   %rbp
  40813b:	48 89 e5             	mov    %rsp,%rbp
  40813e:	48 83 ec 20          	sub    $0x20,%rsp
  408142:	48 89 7d e8          	mov    %rdi,-0x18(%rbp)
  408146:	48 8b 45 e8          	mov    -0x18(%rbp),%rax
  40814a:	48 89 c7             	mov    %rax,%rdi
  40814d:	e8 13 00 00 00       	callq  408165 <sysutil_wait_get_exitcode>
  408152:	89 45 f0             	mov    %eax,-0x10(%rbp)
  408155:	8b 45 f0             	mov    -0x10(%rbp),%eax
  408158:	83 e0 7f             	and    $0x7f,%eax
  40815b:	85 c0                	test   %eax,%eax
  40815d:	0f 94 c0             	sete   %al
  408160:	0f b6 c0             	movzbl %al,%eax
  408163:	c9                   	leaveq 
  408164:	c3                   	retq   

0000000000408165 <sysutil_wait_get_exitcode>:
  408165:	55                   	push   %rbp
  408166:	48 89 e5             	mov    %rsp,%rbp
  408169:	48 89 7d f8          	mov    %rdi,-0x8(%rbp)
  40816d:	48 8b 45 f8          	mov    -0x8(%rbp),%rax
  408171:	8b 40 04             	mov    0x4(%rax),%eax
  408174:	5d                   	pop    %rbp
  408175:	c3                   	retq   

0000000000408176 <sysutil_strlen>:
  408176:	55                   	push   %rbp
  408177:	48 89 e5             	mov    %rsp,%rbp
  40817a:	48 83 ec 20          	sub    $0x20,%rsp
  40817e:	48 89 7d e8          	mov    %rdi,-0x18(%rbp)
  408182:	48 8b 45 e8          	mov    -0x18(%rbp),%rax
  408186:	48 89 c7             	mov    %rax,%rdi
  408189:	e8 e2 9f ff ff       	callq  402170 <strlen@plt>
  40818e:	89 45 fc             	mov    %eax,-0x4(%rbp)
  408191:	81 7d fc ff ff ff 0f 	cmpl   $0xfffffff,-0x4(%rbp)
  408198:	76 0a                	jbe    4081a4 <sysutil_strlen+0x2e>
  40819a:	bf 7c ad 40 00       	mov    $0x40ad7c,%edi
  40819f:	e8 36 f1 ff ff       	callq  4072da <die>
  4081a4:	8b 45 fc             	mov    -0x4(%rbp),%eax
  4081a7:	c9                   	leaveq 
  4081a8:	c3                   	retq   

00000000004081a9 <sysutil_strdup>:
  4081a9:	55                   	push   %rbp
  4081aa:	48 89 e5             	mov    %rsp,%rbp
  4081ad:	48 83 ec 10          	sub    $0x10,%rsp
  4081b1:	48 89 7d f8          	mov    %rdi,-0x8(%rbp)
  4081b5:	48 8b 45 f8          	mov    -0x8(%rbp),%rax
  4081b9:	48 89 c7             	mov    %rax,%rdi
  4081bc:	e8 9f a4 ff ff       	callq  402660 <strdup@plt>
  4081c1:	c9                   	leaveq 
  4081c2:	c3                   	retq   

00000000004081c3 <sysutil_memclr>:
  4081c3:	55                   	push   %rbp
  4081c4:	48 89 e5             	mov    %rsp,%rbp
  4081c7:	48 83 ec 10          	sub    $0x10,%rsp
  4081cb:	48 89 7d f8          	mov    %rdi,-0x8(%rbp)
  4081cf:	89 75 f4             	mov    %esi,-0xc(%rbp)
  4081d2:	8b 55 f4             	mov    -0xc(%rbp),%edx
  4081d5:	48 8b 45 f8          	mov    -0x8(%rbp),%rax
  4081d9:	be 00 00 00 00       	mov    $0x0,%esi
  4081de:	48 89 c7             	mov    %rax,%rdi
  4081e1:	e8 5a a0 ff ff       	callq  402240 <memset@plt>
  4081e6:	90                   	nop
  4081e7:	c9                   	leaveq 
  4081e8:	c3                   	retq   

00000000004081e9 <sysutil_memcpy>:
  4081e9:	55                   	push   %rbp
  4081ea:	48 89 e5             	mov    %rsp,%rbp
  4081ed:	48 83 ec 20          	sub    $0x20,%rsp
  4081f1:	48 89 7d f8          	mov    %rdi,-0x8(%rbp)
  4081f5:	48 89 75 f0          	mov    %rsi,-0x10(%rbp)
  4081f9:	89 55 ec             	mov    %edx,-0x14(%rbp)
  4081fc:	48 8b 45 f8          	mov    -0x8(%rbp),%rax
  408200:	48 3b 45 f0          	cmp    -0x10(%rbp),%rax
  408204:	74 1e                	je     408224 <sysutil_memcpy+0x3b>
  408206:	83 7d ec 00          	cmpl   $0x0,-0x14(%rbp)
  40820a:	74 18                	je     408224 <sysutil_memcpy+0x3b>
  40820c:	8b 55 ec             	mov    -0x14(%rbp),%edx
  40820f:	48 8b 4d f0          	mov    -0x10(%rbp),%rcx
  408213:	48 8b 45 f8          	mov    -0x8(%rbp),%rax
  408217:	48 89 ce             	mov    %rcx,%rsi
  40821a:	48 89 c7             	mov    %rax,%rdi
  40821d:	e8 6e a1 ff ff       	callq  402390 <memcpy@plt>
  408222:	eb 01                	jmp    408225 <sysutil_memcpy+0x3c>
  408224:	90                   	nop
  408225:	c9                   	leaveq 
  408226:	c3                   	retq   

0000000000408227 <sysutil_strcpy>:
  408227:	55                   	push   %rbp
  408228:	48 89 e5             	mov    %rsp,%rbp
  40822b:	48 83 ec 20          	sub    $0x20,%rsp
  40822f:	48 89 7d f8          	mov    %rdi,-0x8(%rbp)
  408233:	48 89 75 f0          	mov    %rsi,-0x10(%rbp)
  408237:	89 55 ec             	mov    %edx,-0x14(%rbp)
  40823a:	8b 55 ec             	mov    -0x14(%rbp),%edx
  40823d:	48 8b 4d f0          	mov    -0x10(%rbp),%rcx
  408241:	48 8b 45 f8          	mov    -0x8(%rbp),%rax
  408245:	48 89 ce             	mov    %rcx,%rsi
  408248:	48 89 c7             	mov    %rax,%rdi
  40824b:	e8 99 ff ff ff       	callq  4081e9 <sysutil_memcpy>
  408250:	90                   	nop
  408251:	c9                   	leaveq 
  408252:	c3                   	retq   

0000000000408253 <sysutil_memcmp>:
  408253:	55                   	push   %rbp
  408254:	48 89 e5             	mov    %rsp,%rbp
  408257:	48 83 ec 20          	sub    $0x20,%rsp
  40825b:	48 89 7d f8          	mov    %rdi,-0x8(%rbp)
  40825f:	48 89 75 f0          	mov    %rsi,-0x10(%rbp)
  408263:	89 55 ec             	mov    %edx,-0x14(%rbp)
  408266:	83 7d ec 00          	cmpl   $0x0,-0x14(%rbp)
  40826a:	75 07                	jne    408273 <sysutil_memcmp+0x20>
  40826c:	b8 00 00 00 00       	mov    $0x0,%eax
  408271:	eb 16                	jmp    408289 <sysutil_memcmp+0x36>
  408273:	8b 55 ec             	mov    -0x14(%rbp),%edx
  408276:	48 8b 4d f0          	mov    -0x10(%rbp),%rcx
  40827a:	48 8b 45 f8          	mov    -0x8(%rbp),%rax
  40827e:	48 89 ce             	mov    %rcx,%rsi
  408281:	48 89 c7             	mov    %rax,%rdi
  408284:	e8 87 a0 ff ff       	callq  402310 <memcmp@plt>
  408289:	c9                   	leaveq 
  40828a:	c3                   	retq   

000000000040828b <sysutil_strcmp>:
  40828b:	55                   	push   %rbp
  40828c:	48 89 e5             	mov    %rsp,%rbp
  40828f:	48 83 ec 10          	sub    $0x10,%rsp
  408293:	48 89 7d f8          	mov    %rdi,-0x8(%rbp)
  408297:	48 89 75 f0          	mov    %rsi,-0x10(%rbp)
  40829b:	48 8b 55 f0          	mov    -0x10(%rbp),%rdx
  40829f:	48 8b 45 f8          	mov    -0x8(%rbp),%rax
  4082a3:	48 89 d6             	mov    %rdx,%rsi
  4082a6:	48 89 c7             	mov    %rax,%rdi
  4082a9:	e8 92 a0 ff ff       	callq  402340 <strcmp@plt>
  4082ae:	c9                   	leaveq 
  4082af:	c3                   	retq   

00000000004082b0 <sysutil_atoi>:
  4082b0:	55                   	push   %rbp
  4082b1:	48 89 e5             	mov    %rsp,%rbp
  4082b4:	48 83 ec 10          	sub    $0x10,%rsp
  4082b8:	48 89 7d f8          	mov    %rdi,-0x8(%rbp)
  4082bc:	48 8b 45 f8          	mov    -0x8(%rbp),%rax
  4082c0:	48 89 c7             	mov    %rax,%rdi
  4082c3:	e8 18 a3 ff ff       	callq  4025e0 <atoi@plt>
  4082c8:	c9                   	leaveq 
  4082c9:	c3                   	retq   

00000000004082ca <sysutil_a_to_filesize_t>:
  4082ca:	55                   	push   %rbp
  4082cb:	48 89 e5             	mov    %rsp,%rbp
  4082ce:	48 83 ec 10          	sub    $0x10,%rsp
  4082d2:	48 89 7d f8          	mov    %rdi,-0x8(%rbp)
  4082d6:	48 8b 45 f8          	mov    -0x8(%rbp),%rax
  4082da:	48 89 c7             	mov    %rax,%rdi
  4082dd:	e8 3e a0 ff ff       	callq  402320 <atoll@plt>
  4082e2:	c9                   	leaveq 
  4082e3:	c3                   	retq   

00000000004082e4 <sysutil_ulong_to_str>:
  4082e4:	55                   	push   %rbp
  4082e5:	48 89 e5             	mov    %rsp,%rbp
  4082e8:	48 89 7d f8          	mov    %rdi,-0x8(%rbp)
  4082ec:	b8 00 00 00 00       	mov    $0x0,%eax
  4082f1:	5d                   	pop    %rbp
  4082f2:	c3                   	retq   

00000000004082f3 <sysutil_filesize_t_to_str>:
  4082f3:	55                   	push   %rbp
  4082f4:	48 89 e5             	mov    %rsp,%rbp
  4082f7:	48 89 7d f8          	mov    %rdi,-0x8(%rbp)
  4082fb:	b8 00 00 00 00       	mov    $0x0,%eax
  408300:	5d                   	pop    %rbp
  408301:	c3                   	retq   

0000000000408302 <sysutil_double_to_str>:
  408302:	55                   	push   %rbp
  408303:	48 89 e5             	mov    %rsp,%rbp
  408306:	f2 0f 11 45 f8       	movsd  %xmm0,-0x8(%rbp)
  40830b:	b8 00 00 00 00       	mov    $0x0,%eax
  408310:	5d                   	pop    %rbp
  408311:	c3                   	retq   

0000000000408312 <sysutil_uint_to_octal>:
  408312:	55                   	push   %rbp
  408313:	48 89 e5             	mov    %rsp,%rbp
  408316:	89 7d fc             	mov    %edi,-0x4(%rbp)
  408319:	b8 00 00 00 00       	mov    $0x0,%eax
  40831e:	5d                   	pop    %rbp
  40831f:	c3                   	retq   

0000000000408320 <sysutil_octal_to_uint>:
  408320:	55                   	push   %rbp
  408321:	48 89 e5             	mov    %rsp,%rbp
  408324:	48 89 7d f8          	mov    %rdi,-0x8(%rbp)
  408328:	b8 00 00 00 00       	mov    $0x0,%eax
  40832d:	5d                   	pop    %rbp
  40832e:	c3                   	retq   

000000000040832f <sysutil_toupper>:
  40832f:	55                   	push   %rbp
  408330:	48 89 e5             	mov    %rsp,%rbp
  408333:	48 83 ec 10          	sub    $0x10,%rsp
  408337:	89 7d fc             	mov    %edi,-0x4(%rbp)
  40833a:	8b 45 fc             	mov    -0x4(%rbp),%eax
  40833d:	89 c7                	mov    %eax,%edi
  40833f:	e8 3c 9d ff ff       	callq  402080 <toupper@plt>
  408344:	c9                   	leaveq 
  408345:	c3                   	retq   

0000000000408346 <sysutil_isspace>:
  408346:	55                   	push   %rbp
  408347:	48 89 e5             	mov    %rsp,%rbp
  40834a:	48 83 ec 10          	sub    $0x10,%rsp
  40834e:	89 7d fc             	mov    %edi,-0x4(%rbp)
  408351:	e8 6a a3 ff ff       	callq  4026c0 <__ctype_b_loc@plt>
  408356:	48 8b 00             	mov    (%rax),%rax
  408359:	8b 55 fc             	mov    -0x4(%rbp),%edx
  40835c:	48 63 d2             	movslq %edx,%rdx
  40835f:	48 01 d2             	add    %rdx,%rdx
  408362:	48 01 d0             	add    %rdx,%rax
  408365:	0f b7 00             	movzwl (%rax),%eax
  408368:	0f b7 c0             	movzwl %ax,%eax
  40836b:	25 00 20 00 00       	and    $0x2000,%eax
  408370:	c9                   	leaveq 
  408371:	c3                   	retq   

0000000000408372 <sysutil_isprint>:
  408372:	55                   	push   %rbp
  408373:	48 89 e5             	mov    %rsp,%rbp
  408376:	48 83 ec 10          	sub    $0x10,%rsp
  40837a:	89 7d fc             	mov    %edi,-0x4(%rbp)
  40837d:	e8 3e a3 ff ff       	callq  4026c0 <__ctype_b_loc@plt>
  408382:	48 8b 00             	mov    (%rax),%rax
  408385:	8b 55 fc             	mov    -0x4(%rbp),%edx
  408388:	48 63 d2             	movslq %edx,%rdx
  40838b:	48 01 d2             	add    %rdx,%rdx
  40838e:	48 01 d0             	add    %rdx,%rax
  408391:	0f b7 00             	movzwl (%rax),%eax
  408394:	0f b7 c0             	movzwl %ax,%eax
  408397:	25 00 40 00 00       	and    $0x4000,%eax
  40839c:	c9                   	leaveq 
  40839d:	c3                   	retq   

000000000040839e <sysutil_isalnum>:
  40839e:	55                   	push   %rbp
  40839f:	48 89 e5             	mov    %rsp,%rbp
  4083a2:	48 83 ec 10          	sub    $0x10,%rsp
  4083a6:	89 7d fc             	mov    %edi,-0x4(%rbp)
  4083a9:	e8 12 a3 ff ff       	callq  4026c0 <__ctype_b_loc@plt>
  4083ae:	48 8b 00             	mov    (%rax),%rax
  4083b1:	8b 55 fc             	mov    -0x4(%rbp),%edx
  4083b4:	48 63 d2             	movslq %edx,%rdx
  4083b7:	48 01 d2             	add    %rdx,%rdx
  4083ba:	48 01 d0             	add    %rdx,%rax
  4083bd:	0f b7 00             	movzwl (%rax),%eax
  4083c0:	0f b7 c0             	movzwl %ax,%eax
  4083c3:	83 e0 08             	and    $0x8,%eax
  4083c6:	c9                   	leaveq 
  4083c7:	c3                   	retq   

00000000004083c8 <sysutil_isdigit>:
  4083c8:	55                   	push   %rbp
  4083c9:	48 89 e5             	mov    %rsp,%rbp
  4083cc:	48 83 ec 10          	sub    $0x10,%rsp
  4083d0:	89 7d fc             	mov    %edi,-0x4(%rbp)
  4083d3:	e8 e8 a2 ff ff       	callq  4026c0 <__ctype_b_loc@plt>
  4083d8:	48 8b 00             	mov    (%rax),%rax
  4083db:	8b 55 fc             	mov    -0x4(%rbp),%edx
  4083de:	48 63 d2             	movslq %edx,%rdx
  4083e1:	48 01 d2             	add    %rdx,%rdx
  4083e4:	48 01 d0             	add    %rdx,%rax
  4083e7:	0f b7 00             	movzwl (%rax),%eax
  4083ea:	0f b7 c0             	movzwl %ax,%eax
  4083ed:	25 00 08 00 00       	and    $0x800,%eax
  4083f2:	c9                   	leaveq 
  4083f3:	c3                   	retq   

00000000004083f4 <sysutil_sockaddr_alloc>:
  4083f4:	55                   	push   %rbp
  4083f5:	48 89 e5             	mov    %rsp,%rbp
  4083f8:	48 83 ec 10          	sub    $0x10,%rsp
  4083fc:	48 89 7d f8          	mov    %rdi,-0x8(%rbp)
  408400:	48 8b 45 f8          	mov    -0x8(%rbp),%rax
  408404:	48 89 c7             	mov    %rax,%rdi
  408407:	e8 2b 00 00 00       	callq  408437 <sysutil_sockaddr_clear>
  40840c:	bf 1c 00 00 00       	mov    $0x1c,%edi
  408411:	e8 4d fb ff ff       	callq  407f63 <sysutil_malloc>
  408416:	48 89 c2             	mov    %rax,%rdx
  408419:	48 8b 45 f8          	mov    -0x8(%rbp),%rax
  40841d:	48 89 10             	mov    %rdx,(%rax)
  408420:	48 8b 45 f8          	mov    -0x8(%rbp),%rax
  408424:	48 8b 00             	mov    (%rax),%rax
  408427:	be 1c 00 00 00       	mov    $0x1c,%esi
  40842c:	48 89 c7             	mov    %rax,%rdi
  40842f:	e8 8f fd ff ff       	callq  4081c3 <sysutil_memclr>
  408434:	90                   	nop
  408435:	c9                   	leaveq 
  408436:	c3                   	retq   

0000000000408437 <sysutil_sockaddr_clear>:
  408437:	55                   	push   %rbp
  408438:	48 89 e5             	mov    %rsp,%rbp
  40843b:	48 83 ec 10          	sub    $0x10,%rsp
  40843f:	48 89 7d f8          	mov    %rdi,-0x8(%rbp)
  408443:	48 8b 45 f8          	mov    -0x8(%rbp),%rax
  408447:	48 8b 00             	mov    (%rax),%rax
  40844a:	48 85 c0             	test   %rax,%rax
  40844d:	74 1a                	je     408469 <sysutil_sockaddr_clear+0x32>
  40844f:	48 8b 45 f8          	mov    -0x8(%rbp),%rax
  408453:	48 8b 00             	mov    (%rax),%rax
  408456:	48 89 c7             	mov    %rax,%rdi
  408459:	e8 69 fb ff ff       	callq  407fc7 <sysutil_free>
  40845e:	48 8b 45 f8          	mov    -0x8(%rbp),%rax
  408462:	48 c7 00 00 00 00 00 	movq   $0x0,(%rax)
  408469:	90                   	nop
  40846a:	c9                   	leaveq 
  40846b:	c3                   	retq   

000000000040846c <sysutil_sockaddr_alloc_ipv4>:
  40846c:	55                   	push   %rbp
  40846d:	48 89 e5             	mov    %rsp,%rbp
  408470:	48 83 ec 10          	sub    $0x10,%rsp
  408474:	48 89 7d f8          	mov    %rdi,-0x8(%rbp)
  408478:	48 8b 45 f8          	mov    -0x8(%rbp),%rax
  40847c:	48 89 c7             	mov    %rax,%rdi
  40847f:	e8 70 ff ff ff       	callq  4083f4 <sysutil_sockaddr_alloc>
  408484:	48 8b 45 f8          	mov    -0x8(%rbp),%rax
  408488:	48 8b 00             	mov    (%rax),%rax
  40848b:	66 c7 00 02 00       	movw   $0x2,(%rax)
  408490:	90                   	nop
  408491:	c9                   	leaveq 
  408492:	c3                   	retq   

0000000000408493 <sysutil_sockaddr_alloc_ipv6>:
  408493:	55                   	push   %rbp
  408494:	48 89 e5             	mov    %rsp,%rbp
  408497:	48 83 ec 10          	sub    $0x10,%rsp
  40849b:	48 89 7d f8          	mov    %rdi,-0x8(%rbp)
  40849f:	48 8b 45 f8          	mov    -0x8(%rbp),%rax
  4084a3:	48 89 c7             	mov    %rax,%rdi
  4084a6:	e8 49 ff ff ff       	callq  4083f4 <sysutil_sockaddr_alloc>
  4084ab:	48 8b 45 f8          	mov    -0x8(%rbp),%rax
  4084af:	48 8b 00             	mov    (%rax),%rax
  4084b2:	66 c7 00 0a 00       	movw   $0xa,(%rax)
  4084b7:	90                   	nop
  4084b8:	c9                   	leaveq 
  4084b9:	c3                   	retq   

00000000004084ba <sysutil_sockaddr_clone>:
  4084ba:	55                   	push   %rbp
  4084bb:	48 89 e5             	mov    %rsp,%rbp
  4084be:	48 83 ec 10          	sub    $0x10,%rsp
  4084c2:	48 89 7d f8          	mov    %rdi,-0x8(%rbp)
  4084c6:	48 89 75 f0          	mov    %rsi,-0x10(%rbp)
  4084ca:	48 8b 45 f8          	mov    -0x8(%rbp),%rax
  4084ce:	48 8b 00             	mov    (%rax),%rax
  4084d1:	48 8b 4d f0          	mov    -0x10(%rbp),%rcx
  4084d5:	ba 1c 00 00 00       	mov    $0x1c,%edx
  4084da:	48 89 ce             	mov    %rcx,%rsi
  4084dd:	48 89 c7             	mov    %rax,%rdi
  4084e0:	e8 04 fd ff ff       	callq  4081e9 <sysutil_memcpy>
  4084e5:	90                   	nop
  4084e6:	c9                   	leaveq 
  4084e7:	c3                   	retq   

00000000004084e8 <sysutil_sockaddr_addr_equal>:
  4084e8:	55                   	push   %rbp
  4084e9:	48 89 e5             	mov    %rsp,%rbp
  4084ec:	48 83 ec 10          	sub    $0x10,%rsp
  4084f0:	48 89 7d f8          	mov    %rdi,-0x8(%rbp)
  4084f4:	48 89 75 f0          	mov    %rsi,-0x10(%rbp)
  4084f8:	48 8b 4d f0          	mov    -0x10(%rbp),%rcx
  4084fc:	48 8b 45 f8          	mov    -0x8(%rbp),%rax
  408500:	ba 1c 00 00 00       	mov    $0x1c,%edx
  408505:	48 89 ce             	mov    %rcx,%rsi
  408508:	48 89 c7             	mov    %rax,%rdi
  40850b:	e8 43 fd ff ff       	callq  408253 <sysutil_memcmp>
  408510:	c9                   	leaveq 
  408511:	c3                   	retq   

0000000000408512 <sysutil_sockaddr_is_ipv6>:
  408512:	55                   	push   %rbp
  408513:	48 89 e5             	mov    %rsp,%rbp
  408516:	48 89 7d f8          	mov    %rdi,-0x8(%rbp)
  40851a:	48 8b 45 f8          	mov    -0x8(%rbp),%rax
  40851e:	0f b7 00             	movzwl (%rax),%eax
  408521:	66 83 f8 0a          	cmp    $0xa,%ax
  408525:	0f 94 c0             	sete   %al
  408528:	0f b6 c0             	movzbl %al,%eax
  40852b:	5d                   	pop    %rbp
  40852c:	c3                   	retq   

000000000040852d <sysutil_sockaddr_set_ipv4addr>:
  40852d:	55                   	push   %rbp
  40852e:	48 89 e5             	mov    %rsp,%rbp
  408531:	48 83 ec 10          	sub    $0x10,%rsp
  408535:	48 89 7d f8          	mov    %rdi,-0x8(%rbp)
  408539:	48 89 75 f0          	mov    %rsi,-0x10(%rbp)
  40853d:	48 8b 55 f8          	mov    -0x8(%rbp),%rdx
  408541:	48 8b 45 f0          	mov    -0x10(%rbp),%rax
  408545:	48 89 d6             	mov    %rdx,%rsi
  408548:	48 89 c7             	mov    %rax,%rdi
  40854b:	e8 e9 0e 00 00       	callq  409439 <sysutil_inet_aton>
  408550:	90                   	nop
  408551:	c9                   	leaveq 
  408552:	c3                   	retq   

0000000000408553 <sysutil_sockaddr_set_ipv6addr>:
  408553:	55                   	push   %rbp
  408554:	48 89 e5             	mov    %rsp,%rbp
  408557:	48 83 ec 10          	sub    $0x10,%rsp
  40855b:	48 89 7d f8          	mov    %rdi,-0x8(%rbp)
  40855f:	48 89 75 f0          	mov    %rsi,-0x10(%rbp)
  408563:	48 8b 55 f8          	mov    -0x8(%rbp),%rdx
  408567:	48 8b 45 f0          	mov    -0x10(%rbp),%rax
  40856b:	48 89 d6             	mov    %rdx,%rsi
  40856e:	48 89 c7             	mov    %rax,%rdi
  408571:	e8 c3 0e 00 00       	callq  409439 <sysutil_inet_aton>
  408576:	90                   	nop
  408577:	c9                   	leaveq 
  408578:	c3                   	retq   

0000000000408579 <sysutil_sockaddr_set_any>:
  408579:	55                   	push   %rbp
  40857a:	48 89 e5             	mov    %rsp,%rbp
  40857d:	48 83 ec 10          	sub    $0x10,%rsp
  408581:	48 89 7d f8          	mov    %rdi,-0x8(%rbp)
  408585:	48 8b 45 f8          	mov    -0x8(%rbp),%rax
  408589:	0f b7 00             	movzwl (%rax),%eax
  40858c:	66 83 f8 02          	cmp    $0x2,%ax
  408590:	75 15                	jne    4085a7 <sysutil_sockaddr_set_any+0x2e>
  408592:	bf 00 00 00 00       	mov    $0x0,%edi
  408597:	e8 94 9c ff ff       	callq  402230 <htonl@plt>
  40859c:	89 c2                	mov    %eax,%edx
  40859e:	48 8b 45 f8          	mov    -0x8(%rbp),%rax
  4085a2:	89 50 04             	mov    %edx,0x4(%rax)
  4085a5:	eb 31                	jmp    4085d8 <sysutil_sockaddr_set_any+0x5f>
  4085a7:	48 8b 45 f8          	mov    -0x8(%rbp),%rax
  4085ab:	0f b7 00             	movzwl (%rax),%eax
  4085ae:	66 83 f8 0a          	cmp    $0xa,%ax
  4085b2:	75 24                	jne    4085d8 <sysutil_sockaddr_set_any+0x5f>
  4085b4:	bf 00 00 00 00       	mov    $0x0,%edi
  4085b9:	e8 72 9c ff ff       	callq  402230 <htonl@plt>
  4085be:	89 c0                	mov    %eax,%eax
  4085c0:	48 89 c2             	mov    %rax,%rdx
  4085c3:	48 8b 45 f8          	mov    -0x8(%rbp),%rax
  4085c7:	48 83 c0 08          	add    $0x8,%rax
  4085cb:	48 89 c6             	mov    %rax,%rsi
  4085ce:	bf 0a 00 00 00       	mov    $0xa,%edi
  4085d3:	e8 e8 9d ff ff       	callq  4023c0 <inet_pton@plt>
  4085d8:	90                   	nop
  4085d9:	c9                   	leaveq 
  4085da:	c3                   	retq   

00000000004085db <sysutil_sockaddr_get_port>:
  4085db:	55                   	push   %rbp
  4085dc:	48 89 e5             	mov    %rsp,%rbp
  4085df:	48 83 ec 20          	sub    $0x20,%rsp
  4085e3:	48 89 7d e8          	mov    %rdi,-0x18(%rbp)
  4085e7:	48 8b 45 e8          	mov    -0x18(%rbp),%rax
  4085eb:	0f b7 00             	movzwl (%rax),%eax
  4085ee:	66 83 f8 02          	cmp    $0x2,%ax
  4085f2:	75 18                	jne    40860c <sysutil_sockaddr_get_port+0x31>
  4085f4:	48 8b 45 e8          	mov    -0x18(%rbp),%rax
  4085f8:	0f b7 40 02          	movzwl 0x2(%rax),%eax
  4085fc:	0f b7 c0             	movzwl %ax,%eax
  4085ff:	89 c7                	mov    %eax,%edi
  408601:	e8 da 9e ff ff       	callq  4024e0 <ntohs@plt>
  408606:	66 89 45 fe          	mov    %ax,-0x2(%rbp)
  40860a:	eb 23                	jmp    40862f <sysutil_sockaddr_get_port+0x54>
  40860c:	48 8b 45 e8          	mov    -0x18(%rbp),%rax
  408610:	0f b7 00             	movzwl (%rax),%eax
  408613:	66 83 f8 0a          	cmp    $0xa,%ax
  408617:	75 16                	jne    40862f <sysutil_sockaddr_get_port+0x54>
  408619:	48 8b 45 e8          	mov    -0x18(%rbp),%rax
  40861d:	0f b7 40 02          	movzwl 0x2(%rax),%eax
  408621:	0f b7 c0             	movzwl %ax,%eax
  408624:	89 c7                	mov    %eax,%edi
  408626:	e8 b5 9e ff ff       	callq  4024e0 <ntohs@plt>
  40862b:	66 89 45 fe          	mov    %ax,-0x2(%rbp)
  40862f:	0f b7 45 fe          	movzwl -0x2(%rbp),%eax
  408633:	c9                   	leaveq 
  408634:	c3                   	retq   

0000000000408635 <sysutil_sockaddr_set_port>:
  408635:	55                   	push   %rbp
  408636:	48 89 e5             	mov    %rsp,%rbp
  408639:	48 83 ec 10          	sub    $0x10,%rsp
  40863d:	48 89 7d f8          	mov    %rdi,-0x8(%rbp)
  408641:	89 f0                	mov    %esi,%eax
  408643:	66 89 45 f4          	mov    %ax,-0xc(%rbp)
  408647:	48 8b 45 f8          	mov    -0x8(%rbp),%rax
  40864b:	0f b7 00             	movzwl (%rax),%eax
  40864e:	66 83 f8 02          	cmp    $0x2,%ax
  408652:	75 17                	jne    40866b <sysutil_sockaddr_set_port+0x36>
  408654:	0f b7 45 f4          	movzwl -0xc(%rbp),%eax
  408658:	89 c7                	mov    %eax,%edi
  40865a:	e8 61 9b ff ff       	callq  4021c0 <htons@plt>
  40865f:	89 c2                	mov    %eax,%edx
  408661:	48 8b 45 f8          	mov    -0x8(%rbp),%rax
  408665:	66 89 50 02          	mov    %dx,0x2(%rax)
  408669:	eb 22                	jmp    40868d <sysutil_sockaddr_set_port+0x58>
  40866b:	48 8b 45 f8          	mov    -0x8(%rbp),%rax
  40866f:	0f b7 00             	movzwl (%rax),%eax
  408672:	66 83 f8 0a          	cmp    $0xa,%ax
  408676:	75 15                	jne    40868d <sysutil_sockaddr_set_port+0x58>
  408678:	0f b7 45 f4          	movzwl -0xc(%rbp),%eax
  40867c:	89 c7                	mov    %eax,%edi
  40867e:	e8 3d 9b ff ff       	callq  4021c0 <htons@plt>
  408683:	89 c2                	mov    %eax,%edx
  408685:	48 8b 45 f8          	mov    -0x8(%rbp),%rax
  408689:	66 89 50 02          	mov    %dx,0x2(%rax)
  40868d:	90                   	nop
  40868e:	c9                   	leaveq 
  40868f:	c3                   	retq   

0000000000408690 <sysutil_is_port_reserved>:
  408690:	55                   	push   %rbp
  408691:	48 89 e5             	mov    %rsp,%rbp
  408694:	48 83 ec 30          	sub    $0x30,%rsp
  408698:	89 f8                	mov    %edi,%eax
  40869a:	66 89 45 dc          	mov    %ax,-0x24(%rbp)
  40869e:	64 48 8b 04 25 28 00 	mov    %fs:0x28,%rax
  4086a5:	00 00 
  4086a7:	48 89 45 f8          	mov    %rax,-0x8(%rbp)
  4086ab:	31 c0                	xor    %eax,%eax
  4086ad:	c7 45 e8 00 00 00 00 	movl   $0x0,-0x18(%rbp)
  4086b4:	48 c7 45 f0 00 00 00 	movq   $0x0,-0x10(%rbp)
  4086bb:	00 
  4086bc:	e8 ca 00 00 00       	callq  40878b <sysutil_get_ipv4_sock>
  4086c1:	89 45 ec             	mov    %eax,-0x14(%rbp)
  4086c4:	48 8d 45 f0          	lea    -0x10(%rbp),%rax
  4086c8:	48 89 c7             	mov    %rax,%rdi
  4086cb:	e8 9c fd ff ff       	callq  40846c <sysutil_sockaddr_alloc_ipv4>
  4086d0:	48 8b 45 f0          	mov    -0x10(%rbp),%rax
  4086d4:	48 89 c7             	mov    %rax,%rdi
  4086d7:	e8 9d fe ff ff       	callq  408579 <sysutil_sockaddr_set_any>
  4086dc:	0f b7 55 dc          	movzwl -0x24(%rbp),%edx
  4086e0:	48 8b 45 f0          	mov    -0x10(%rbp),%rax
  4086e4:	89 d6                	mov    %edx,%esi
  4086e6:	48 89 c7             	mov    %rax,%rdi
  4086e9:	e8 47 ff ff ff       	callq  408635 <sysutil_sockaddr_set_port>
  4086ee:	48 8b 55 f0          	mov    -0x10(%rbp),%rdx
  4086f2:	8b 45 ec             	mov    -0x14(%rbp),%eax
  4086f5:	48 89 d6             	mov    %rdx,%rsi
  4086f8:	89 c7                	mov    %eax,%edi
  4086fa:	e8 31 01 00 00       	callq  408830 <sysutil_bind>
  4086ff:	85 c0                	test   %eax,%eax
  408701:	74 07                	je     40870a <sysutil_is_port_reserved+0x7a>
  408703:	c7 45 e8 01 00 00 00 	movl   $0x1,-0x18(%rbp)
  40870a:	48 8d 45 f0          	lea    -0x10(%rbp),%rax
  40870e:	48 89 c7             	mov    %rax,%rdi
  408711:	e8 21 fd ff ff       	callq  408437 <sysutil_sockaddr_clear>
  408716:	8b 45 ec             	mov    -0x14(%rbp),%eax
  408719:	89 c7                	mov    %eax,%edi
  40871b:	e8 79 f1 ff ff       	callq  407899 <sysutil_close>
  408720:	8b 45 e8             	mov    -0x18(%rbp),%eax
  408723:	48 8b 4d f8          	mov    -0x8(%rbp),%rcx
  408727:	64 48 33 0c 25 28 00 	xor    %fs:0x28,%rcx
  40872e:	00 00 
  408730:	74 05                	je     408737 <sysutil_is_port_reserved+0xa7>
  408732:	e8 69 9a ff ff       	callq  4021a0 <__stack_chk_fail@plt>
  408737:	c9                   	leaveq 
  408738:	c3                   	retq   

0000000000408739 <sysutil_get_ipsock>:
  408739:	55                   	push   %rbp
  40873a:	48 89 e5             	mov    %rsp,%rbp
  40873d:	48 89 7d f8          	mov    %rdi,-0x8(%rbp)
  408741:	b8 00 00 00 00       	mov    $0x0,%eax
  408746:	5d                   	pop    %rbp
  408747:	c3                   	retq   

0000000000408748 <sysutil_get_ipaddr_size>:
  408748:	55                   	push   %rbp
  408749:	48 89 e5             	mov    %rsp,%rbp
  40874c:	b8 10 00 00 00       	mov    $0x10,%eax
  408751:	5d                   	pop    %rbp
  408752:	c3                   	retq   

0000000000408753 <sysutil_sockaddr_get_raw_addr>:
  408753:	55                   	push   %rbp
  408754:	48 89 e5             	mov    %rsp,%rbp
  408757:	48 83 ec 10          	sub    $0x10,%rsp
  40875b:	48 89 7d f8          	mov    %rdi,-0x8(%rbp)
  40875f:	48 8b 45 f8          	mov    -0x8(%rbp),%rax
  408763:	48 89 c7             	mov    %rax,%rdi
  408766:	e8 27 0c 00 00       	callq  409392 <sysutil_inet_ntop>
  40876b:	c9                   	leaveq 
  40876c:	c3                   	retq   

000000000040876d <sysutil_sockaddr_ipv6_v4>:
  40876d:	55                   	push   %rbp
  40876e:	48 89 e5             	mov    %rsp,%rbp
  408771:	48 89 7d f8          	mov    %rdi,-0x8(%rbp)
  408775:	b8 00 00 00 00       	mov    $0x0,%eax
  40877a:	5d                   	pop    %rbp
  40877b:	c3                   	retq   

000000000040877c <sysutil_sockaddr_ipv4_v6>:
  40877c:	55                   	push   %rbp
  40877d:	48 89 e5             	mov    %rsp,%rbp
  408780:	48 89 7d f8          	mov    %rdi,-0x8(%rbp)
  408784:	b8 00 00 00 00       	mov    $0x0,%eax
  408789:	5d                   	pop    %rbp
  40878a:	c3                   	retq   

000000000040878b <sysutil_get_ipv4_sock>:
  40878b:	55                   	push   %rbp
  40878c:	48 89 e5             	mov    %rsp,%rbp
  40878f:	48 83 ec 10          	sub    $0x10,%rsp
  408793:	ba 06 00 00 00       	mov    $0x6,%edx
  408798:	be 01 00 00 00       	mov    $0x1,%esi
  40879d:	bf 02 00 00 00       	mov    $0x2,%edi
  4087a2:	e8 29 9f ff ff       	callq  4026d0 <socket@plt>
  4087a7:	89 45 fc             	mov    %eax,-0x4(%rbp)
  4087aa:	83 7d fc 00          	cmpl   $0x0,-0x4(%rbp)
  4087ae:	79 19                	jns    4087c9 <sysutil_get_ipv4_sock+0x3e>
  4087b0:	be 03 00 00 00       	mov    $0x3,%esi
  4087b5:	bf 91 ad 40 00       	mov    $0x40ad91,%edi
  4087ba:	e8 7e 0e 00 00       	callq  40963d <sysutil_syslog>
  4087bf:	bf 01 00 00 00       	mov    $0x1,%edi
  4087c4:	e8 77 f8 ff ff       	callq  408040 <sysutil_exit>
  4087c9:	8b 45 fc             	mov    -0x4(%rbp),%eax
  4087cc:	c9                   	leaveq 
  4087cd:	c3                   	retq   

00000000004087ce <sysutil_get_ipv6_sock>:
  4087ce:	55                   	push   %rbp
  4087cf:	48 89 e5             	mov    %rsp,%rbp
  4087d2:	90                   	nop
  4087d3:	5d                   	pop    %rbp
  4087d4:	c3                   	retq   

00000000004087d5 <sysutil_unix_stream_socketpair>:
  4087d5:	55                   	push   %rbp
  4087d6:	48 89 e5             	mov    %rsp,%rbp
  4087d9:	48 83 ec 30          	sub    $0x30,%rsp
  4087dd:	64 48 8b 04 25 28 00 	mov    %fs:0x28,%rax
  4087e4:	00 00 
  4087e6:	48 89 45 f8          	mov    %rax,-0x8(%rbp)
  4087ea:	31 c0                	xor    %eax,%eax
  4087ec:	48 8d 45 f0          	lea    -0x10(%rbp),%rax
  4087f0:	48 89 c1             	mov    %rax,%rcx
  4087f3:	ba 00 00 00 00       	mov    $0x0,%edx
  4087f8:	be 01 00 00 00       	mov    $0x1,%esi
  4087fd:	bf 01 00 00 00       	mov    $0x1,%edi
  408802:	e8 99 9b ff ff       	callq  4023a0 <socketpair@plt>
  408807:	89 45 dc             	mov    %eax,-0x24(%rbp)
  40880a:	8b 45 f0             	mov    -0x10(%rbp),%eax
  40880d:	89 45 e0             	mov    %eax,-0x20(%rbp)
  408810:	8b 45 f4             	mov    -0xc(%rbp),%eax
  408813:	89 45 e4             	mov    %eax,-0x1c(%rbp)
  408816:	48 8b 45 e0          	mov    -0x20(%rbp),%rax
  40881a:	48 8b 55 f8          	mov    -0x8(%rbp),%rdx
  40881e:	64 48 33 14 25 28 00 	xor    %fs:0x28,%rdx
  408825:	00 00 
  408827:	74 05                	je     40882e <sysutil_unix_stream_socketpair+0x59>
  408829:	e8 72 99 ff ff       	callq  4021a0 <__stack_chk_fail@plt>
  40882e:	c9                   	leaveq 
  40882f:	c3                   	retq   

0000000000408830 <sysutil_bind>:
  408830:	55                   	push   %rbp
  408831:	48 89 e5             	mov    %rsp,%rbp
  408834:	48 83 ec 20          	sub    $0x20,%rsp
  408838:	89 7d ec             	mov    %edi,-0x14(%rbp)
  40883b:	48 89 75 e0          	mov    %rsi,-0x20(%rbp)
  40883f:	c7 45 fc 00 00 00 00 	movl   $0x0,-0x4(%rbp)
  408846:	48 8b 45 e0          	mov    -0x20(%rbp),%rax
  40884a:	0f b7 00             	movzwl (%rax),%eax
  40884d:	66 83 f8 02          	cmp    $0x2,%ax
  408851:	75 3b                	jne    40888e <sysutil_bind+0x5e>
  408853:	48 8b 4d e0          	mov    -0x20(%rbp),%rcx
  408857:	8b 45 ec             	mov    -0x14(%rbp),%eax
  40885a:	ba 1c 00 00 00       	mov    $0x1c,%edx
  40885f:	48 89 ce             	mov    %rcx,%rsi
  408862:	89 c7                	mov    %eax,%edi
  408864:	e8 a7 9c ff ff       	callq  402510 <bind@plt>
  408869:	85 c0                	test   %eax,%eax
  40886b:	79 67                	jns    4088d4 <sysutil_bind+0xa4>
  40886d:	e8 ae 97 ff ff       	callq  402020 <__errno_location@plt>
  408872:	8b 00                	mov    (%rax),%eax
  408874:	83 f8 62             	cmp    $0x62,%eax
  408877:	75 09                	jne    408882 <sysutil_bind+0x52>
  408879:	c7 45 fc 01 00 00 00 	movl   $0x1,-0x4(%rbp)
  408880:	eb 52                	jmp    4088d4 <sysutil_bind+0xa4>
  408882:	bf 9c ad 40 00       	mov    $0x40ad9c,%edi
  408887:	e8 4e ea ff ff       	callq  4072da <die>
  40888c:	eb 46                	jmp    4088d4 <sysutil_bind+0xa4>
  40888e:	48 8b 45 e0          	mov    -0x20(%rbp),%rax
  408892:	0f b7 00             	movzwl (%rax),%eax
  408895:	66 83 f8 0a          	cmp    $0xa,%ax
  408899:	75 39                	jne    4088d4 <sysutil_bind+0xa4>
  40889b:	48 8b 4d e0          	mov    -0x20(%rbp),%rcx
  40889f:	8b 45 ec             	mov    -0x14(%rbp),%eax
  4088a2:	ba 1c 00 00 00       	mov    $0x1c,%edx
  4088a7:	48 89 ce             	mov    %rcx,%rsi
  4088aa:	89 c7                	mov    %eax,%edi
  4088ac:	e8 5f 9c ff ff       	callq  402510 <bind@plt>
  4088b1:	85 c0                	test   %eax,%eax
  4088b3:	79 1f                	jns    4088d4 <sysutil_bind+0xa4>
  4088b5:	e8 66 97 ff ff       	callq  402020 <__errno_location@plt>
  4088ba:	8b 00                	mov    (%rax),%eax
  4088bc:	83 f8 62             	cmp    $0x62,%eax
  4088bf:	75 09                	jne    4088ca <sysutil_bind+0x9a>
  4088c1:	c7 45 fc 01 00 00 00 	movl   $0x1,-0x4(%rbp)
  4088c8:	eb 0a                	jmp    4088d4 <sysutil_bind+0xa4>
  4088ca:	bf 9c ad 40 00       	mov    $0x40ad9c,%edi
  4088cf:	e8 06 ea ff ff       	callq  4072da <die>
  4088d4:	8b 45 fc             	mov    -0x4(%rbp),%eax
  4088d7:	c9                   	leaveq 
  4088d8:	c3                   	retq   

00000000004088d9 <sysutil_listen>:
  4088d9:	55                   	push   %rbp
  4088da:	48 89 e5             	mov    %rsp,%rbp
  4088dd:	48 83 ec 20          	sub    $0x20,%rsp
  4088e1:	89 7d ec             	mov    %edi,-0x14(%rbp)
  4088e4:	89 75 e8             	mov    %esi,-0x18(%rbp)
  4088e7:	c7 45 fc 00 00 00 00 	movl   $0x0,-0x4(%rbp)
  4088ee:	8b 55 e8             	mov    -0x18(%rbp),%edx
  4088f1:	8b 45 ec             	mov    -0x14(%rbp),%eax
  4088f4:	89 d6                	mov    %edx,%esi
  4088f6:	89 c7                	mov    %eax,%edi
  4088f8:	e8 83 9b ff ff       	callq  402480 <listen@plt>
  4088fd:	85 c0                	test   %eax,%eax
  4088ff:	79 07                	jns    408908 <sysutil_listen+0x2f>
  408901:	c7 45 fc ff ff ff ff 	movl   $0xffffffff,-0x4(%rbp)
  408908:	8b 45 fc             	mov    -0x4(%rbp),%eax
  40890b:	c9                   	leaveq 
  40890c:	c3                   	retq   

000000000040890d <sysutil_getsockname>:
  40890d:	55                   	push   %rbp
  40890e:	48 89 e5             	mov    %rsp,%rbp
  408911:	48 83 ec 20          	sub    $0x20,%rsp
  408915:	89 7d ec             	mov    %edi,-0x14(%rbp)
  408918:	48 89 75 e0          	mov    %rsi,-0x20(%rbp)
  40891c:	64 48 8b 04 25 28 00 	mov    %fs:0x28,%rax
  408923:	00 00 
  408925:	48 89 45 f8          	mov    %rax,-0x8(%rbp)
  408929:	31 c0                	xor    %eax,%eax
  40892b:	c7 45 f4 1c 00 00 00 	movl   $0x1c,-0xc(%rbp)
  408932:	48 8b 45 e0          	mov    -0x20(%rbp),%rax
  408936:	48 8b 00             	mov    (%rax),%rax
  408939:	48 89 c1             	mov    %rax,%rcx
  40893c:	48 8d 55 f4          	lea    -0xc(%rbp),%rdx
  408940:	8b 45 ec             	mov    -0x14(%rbp),%eax
  408943:	48 89 ce             	mov    %rcx,%rsi
  408946:	89 c7                	mov    %eax,%edi
  408948:	e8 73 9c ff ff       	callq  4025c0 <getsockname@plt>
  40894d:	85 c0                	test   %eax,%eax
  40894f:	79 0a                	jns    40895b <sysutil_getsockname+0x4e>
  408951:	bf a1 ad 40 00       	mov    $0x40ada1,%edi
  408956:	e8 7f e9 ff ff       	callq  4072da <die>
  40895b:	90                   	nop
  40895c:	48 8b 45 f8          	mov    -0x8(%rbp),%rax
  408960:	64 48 33 04 25 28 00 	xor    %fs:0x28,%rax
  408967:	00 00 
  408969:	74 05                	je     408970 <sysutil_getsockname+0x63>
  40896b:	e8 30 98 ff ff       	callq  4021a0 <__stack_chk_fail@plt>
  408970:	c9                   	leaveq 
  408971:	c3                   	retq   

0000000000408972 <sysutil_getpeername>:
  408972:	55                   	push   %rbp
  408973:	48 89 e5             	mov    %rsp,%rbp
  408976:	48 83 ec 20          	sub    $0x20,%rsp
  40897a:	89 7d ec             	mov    %edi,-0x14(%rbp)
  40897d:	48 89 75 e0          	mov    %rsi,-0x20(%rbp)
  408981:	48 8b 45 e0          	mov    -0x20(%rbp),%rax
  408985:	48 8b 00             	mov    (%rax),%rax
  408988:	48 89 45 f8          	mov    %rax,-0x8(%rbp)
  40898c:	48 8b 45 f8          	mov    -0x8(%rbp),%rax
  408990:	0f b7 00             	movzwl (%rax),%eax
  408993:	66 83 f8 02          	cmp    $0x2,%ax
  408997:	75 18                	jne    4089b1 <sysutil_getpeername+0x3f>
  408999:	48 8b 4d f8          	mov    -0x8(%rbp),%rcx
  40899d:	8b 45 ec             	mov    -0x14(%rbp),%eax
  4089a0:	ba 10 00 00 00       	mov    $0x10,%edx
  4089a5:	48 89 ce             	mov    %rcx,%rsi
  4089a8:	89 c7                	mov    %eax,%edi
  4089aa:	e8 51 97 ff ff       	callq  402100 <getpeername@plt>
  4089af:	eb 23                	jmp    4089d4 <sysutil_getpeername+0x62>
  4089b1:	48 8b 45 f8          	mov    -0x8(%rbp),%rax
  4089b5:	0f b7 00             	movzwl (%rax),%eax
  4089b8:	66 83 f8 0a          	cmp    $0xa,%ax
  4089bc:	75 16                	jne    4089d4 <sysutil_getpeername+0x62>
  4089be:	48 8b 4d f8          	mov    -0x8(%rbp),%rcx
  4089c2:	8b 45 ec             	mov    -0x14(%rbp),%eax
  4089c5:	ba 1c 00 00 00       	mov    $0x1c,%edx
  4089ca:	48 89 ce             	mov    %rcx,%rsi
  4089cd:	89 c7                	mov    %eax,%edi
  4089cf:	e8 2c 97 ff ff       	callq  402100 <getpeername@plt>
  4089d4:	90                   	nop
  4089d5:	c9                   	leaveq 
  4089d6:	c3                   	retq   

00000000004089d7 <sysutil_accept_timeout>:
  4089d7:	55                   	push   %rbp
  4089d8:	48 89 e5             	mov    %rsp,%rbp
  4089db:	48 81 ec 50 01 00 00 	sub    $0x150,%rsp
  4089e2:	89 bd bc fe ff ff    	mov    %edi,-0x144(%rbp)
  4089e8:	48 89 b5 b0 fe ff ff 	mov    %rsi,-0x150(%rbp)
  4089ef:	89 95 b8 fe ff ff    	mov    %edx,-0x148(%rbp)
  4089f5:	64 48 8b 04 25 28 00 	mov    %fs:0x28,%rax
  4089fc:	00 00 
  4089fe:	48 89 45 f8          	mov    %rax,-0x8(%rbp)
  408a02:	31 c0                	xor    %eax,%eax
  408a04:	c7 85 c4 fe ff ff 1c 	movl   $0x1c,-0x13c(%rbp)
  408a0b:	00 00 00 
  408a0e:	83 bd b8 fe ff ff 00 	cmpl   $0x0,-0x148(%rbp)
  408a15:	0f 84 7c 01 00 00    	je     408b97 <sysutil_accept_timeout+0x1c0>
  408a1b:	8b 85 b8 fe ff ff    	mov    -0x148(%rbp),%eax
  408a21:	48 89 85 e0 fe ff ff 	mov    %rax,-0x120(%rbp)
  408a28:	48 c7 85 e8 fe ff ff 	movq   $0x0,-0x118(%rbp)
  408a2f:	00 00 00 00 
  408a33:	b8 00 00 00 00       	mov    $0x0,%eax
  408a38:	b9 10 00 00 00       	mov    $0x10,%ecx
  408a3d:	48 8d 95 f0 fe ff ff 	lea    -0x110(%rbp),%rdx
  408a44:	48 89 d7             	mov    %rdx,%rdi
  408a47:	fc                   	cld    
  408a48:	f3 48 ab             	rep stos %rax,%es:(%rdi)
  408a4b:	89 f8                	mov    %edi,%eax
  408a4d:	89 ca                	mov    %ecx,%edx
  408a4f:	89 95 c8 fe ff ff    	mov    %edx,-0x138(%rbp)
  408a55:	89 85 cc fe ff ff    	mov    %eax,-0x134(%rbp)
  408a5b:	b8 00 00 00 00       	mov    $0x0,%eax
  408a60:	b9 10 00 00 00       	mov    $0x10,%ecx
  408a65:	48 8d 95 70 ff ff ff 	lea    -0x90(%rbp),%rdx
  408a6c:	48 89 d7             	mov    %rdx,%rdi
  408a6f:	fc                   	cld    
  408a70:	f3 48 ab             	rep stos %rax,%es:(%rdi)
  408a73:	89 f8                	mov    %edi,%eax
  408a75:	89 ca                	mov    %ecx,%edx
  408a77:	89 95 d0 fe ff ff    	mov    %edx,-0x130(%rbp)
  408a7d:	89 85 d4 fe ff ff    	mov    %eax,-0x12c(%rbp)
  408a83:	8b 85 bc fe ff ff    	mov    -0x144(%rbp),%eax
  408a89:	8d 50 3f             	lea    0x3f(%rax),%edx
  408a8c:	85 c0                	test   %eax,%eax
  408a8e:	0f 48 c2             	cmovs  %edx,%eax
  408a91:	c1 f8 06             	sar    $0x6,%eax
  408a94:	89 c6                	mov    %eax,%esi
  408a96:	48 63 c6             	movslq %esi,%rax
  408a99:	48 8b bc c5 f0 fe ff 	mov    -0x110(%rbp,%rax,8),%rdi
  408aa0:	ff 
  408aa1:	8b 85 bc fe ff ff    	mov    -0x144(%rbp),%eax
  408aa7:	99                   	cltd   
  408aa8:	c1 ea 1a             	shr    $0x1a,%edx
  408aab:	01 d0                	add    %edx,%eax
  408aad:	83 e0 3f             	and    $0x3f,%eax
  408ab0:	29 d0                	sub    %edx,%eax
  408ab2:	ba 01 00 00 00       	mov    $0x1,%edx
  408ab7:	89 c1                	mov    %eax,%ecx
  408ab9:	48 d3 e2             	shl    %cl,%rdx
  408abc:	48 89 d0             	mov    %rdx,%rax
  408abf:	48 09 c7             	or     %rax,%rdi
  408ac2:	48 89 fa             	mov    %rdi,%rdx
  408ac5:	48 63 c6             	movslq %esi,%rax
  408ac8:	48 89 94 c5 f0 fe ff 	mov    %rdx,-0x110(%rbp,%rax,8)
  408acf:	ff 
  408ad0:	8b 85 bc fe ff ff    	mov    -0x144(%rbp),%eax
  408ad6:	8d 50 3f             	lea    0x3f(%rax),%edx
  408ad9:	85 c0                	test   %eax,%eax
  408adb:	0f 48 c2             	cmovs  %edx,%eax
  408ade:	c1 f8 06             	sar    $0x6,%eax
  408ae1:	89 c6                	mov    %eax,%esi
  408ae3:	48 63 c6             	movslq %esi,%rax
  408ae6:	48 8b bc c5 70 ff ff 	mov    -0x90(%rbp,%rax,8),%rdi
  408aed:	ff 
  408aee:	8b 85 bc fe ff ff    	mov    -0x144(%rbp),%eax
  408af4:	99                   	cltd   
  408af5:	c1 ea 1a             	shr    $0x1a,%edx
  408af8:	01 d0                	add    %edx,%eax
  408afa:	83 e0 3f             	and    $0x3f,%eax
  408afd:	29 d0                	sub    %edx,%eax
  408aff:	ba 01 00 00 00       	mov    $0x1,%edx
  408b04:	89 c1                	mov    %eax,%ecx
  408b06:	48 d3 e2             	shl    %cl,%rdx
  408b09:	48 89 d0             	mov    %rdx,%rax
  408b0c:	48 09 c7             	or     %rax,%rdi
  408b0f:	48 89 fa             	mov    %rdi,%rdx
  408b12:	48 63 c6             	movslq %esi,%rax
  408b15:	48 89 94 c5 70 ff ff 	mov    %rdx,-0x90(%rbp,%rax,8)
  408b1c:	ff 
  408b1d:	8b 85 bc fe ff ff    	mov    -0x144(%rbp),%eax
  408b23:	8d 78 01             	lea    0x1(%rax),%edi
  408b26:	48 8d 8d e0 fe ff ff 	lea    -0x120(%rbp),%rcx
  408b2d:	48 8d 95 70 ff ff ff 	lea    -0x90(%rbp),%rdx
  408b34:	48 8d 85 f0 fe ff ff 	lea    -0x110(%rbp),%rax
  408b3b:	49 89 c8             	mov    %rcx,%r8
  408b3e:	b9 00 00 00 00       	mov    $0x0,%ecx
  408b43:	48 89 c6             	mov    %rax,%rsi
  408b46:	e8 b5 98 ff ff       	callq  402400 <select@plt>
  408b4b:	89 85 d8 fe ff ff    	mov    %eax,-0x128(%rbp)
  408b51:	e8 ca 94 ff ff       	callq  402020 <__errno_location@plt>
  408b56:	8b 00                	mov    (%rax),%eax
  408b58:	89 85 dc fe ff ff    	mov    %eax,-0x124(%rbp)
  408b5e:	83 bd d8 fe ff ff 00 	cmpl   $0x0,-0x128(%rbp)
  408b65:	79 09                	jns    408b70 <sysutil_accept_timeout+0x199>
  408b67:	83 bd dc fe ff ff 04 	cmpl   $0x4,-0x124(%rbp)
  408b6e:	74 ad                	je     408b1d <sysutil_accept_timeout+0x146>
  408b70:	83 bd d8 fe ff ff 00 	cmpl   $0x0,-0x128(%rbp)
  408b77:	7f 1e                	jg     408b97 <sysutil_accept_timeout+0x1c0>
  408b79:	83 bd d8 fe ff ff 00 	cmpl   $0x0,-0x128(%rbp)
  408b80:	75 0b                	jne    408b8d <sysutil_accept_timeout+0x1b6>
  408b82:	e8 99 94 ff ff       	callq  402020 <__errno_location@plt>
  408b87:	c7 00 0b 00 00 00    	movl   $0xb,(%rax)
  408b8d:	b8 ff ff ff ff       	mov    $0xffffffff,%eax
  408b92:	e9 cf 00 00 00       	jmpq   408c66 <sysutil_accept_timeout+0x28f>
  408b97:	48 8d 95 c4 fe ff ff 	lea    -0x13c(%rbp),%rdx
  408b9e:	48 8d 8d 70 ff ff ff 	lea    -0x90(%rbp),%rcx
  408ba5:	8b 85 bc fe ff ff    	mov    -0x144(%rbp),%eax
  408bab:	48 89 ce             	mov    %rcx,%rsi
  408bae:	89 c7                	mov    %eax,%edi
  408bb0:	e8 fb 99 ff ff       	callq  4025b0 <accept@plt>
  408bb5:	89 85 d8 fe ff ff    	mov    %eax,-0x128(%rbp)
  408bbb:	83 bd d8 fe ff ff 00 	cmpl   $0x0,-0x128(%rbp)
  408bc2:	79 0b                	jns    408bcf <sysutil_accept_timeout+0x1f8>
  408bc4:	8b 85 d8 fe ff ff    	mov    -0x128(%rbp),%eax
  408bca:	e9 97 00 00 00       	jmpq   408c66 <sysutil_accept_timeout+0x28f>
  408bcf:	0f b7 85 70 ff ff ff 	movzwl -0x90(%rbp),%eax
  408bd6:	66 83 f8 02          	cmp    $0x2,%ax
  408bda:	74 17                	je     408bf3 <sysutil_accept_timeout+0x21c>
  408bdc:	0f b7 85 70 ff ff ff 	movzwl -0x90(%rbp),%eax
  408be3:	66 83 f8 0a          	cmp    $0xa,%ax
  408be7:	74 0a                	je     408bf3 <sysutil_accept_timeout+0x21c>
  408be9:	bf b0 ad 40 00       	mov    $0x40adb0,%edi
  408bee:	e8 e7 e6 ff ff       	callq  4072da <die>
  408bf3:	48 83 bd b0 fe ff ff 	cmpq   $0x0,-0x150(%rbp)
  408bfa:	00 
  408bfb:	74 63                	je     408c60 <sysutil_accept_timeout+0x289>
  408bfd:	0f b7 85 70 ff ff ff 	movzwl -0x90(%rbp),%eax
  408c04:	66 83 f8 02          	cmp    $0x2,%ax
  408c08:	75 38                	jne    408c42 <sysutil_accept_timeout+0x26b>
  408c0a:	48 8d 85 70 ff ff ff 	lea    -0x90(%rbp),%rax
  408c11:	48 83 c0 08          	add    $0x8,%rax
  408c15:	be 08 00 00 00       	mov    $0x8,%esi
  408c1a:	48 89 c7             	mov    %rax,%rdi
  408c1d:	e8 a1 f5 ff ff       	callq  4081c3 <sysutil_memclr>
  408c22:	48 8d 8d 70 ff ff ff 	lea    -0x90(%rbp),%rcx
  408c29:	48 8b 85 b0 fe ff ff 	mov    -0x150(%rbp),%rax
  408c30:	ba 10 00 00 00       	mov    $0x10,%edx
  408c35:	48 89 ce             	mov    %rcx,%rsi
  408c38:	48 89 c7             	mov    %rax,%rdi
  408c3b:	e8 a9 f5 ff ff       	callq  4081e9 <sysutil_memcpy>
  408c40:	eb 1e                	jmp    408c60 <sysutil_accept_timeout+0x289>
  408c42:	48 8d 8d 70 ff ff ff 	lea    -0x90(%rbp),%rcx
  408c49:	48 8b 85 b0 fe ff ff 	mov    -0x150(%rbp),%rax
  408c50:	ba 1c 00 00 00       	mov    $0x1c,%edx
  408c55:	48 89 ce             	mov    %rcx,%rsi
  408c58:	48 89 c7             	mov    %rax,%rdi
  408c5b:	e8 89 f5 ff ff       	callq  4081e9 <sysutil_memcpy>
  408c60:	8b 85 d8 fe ff ff    	mov    -0x128(%rbp),%eax
  408c66:	48 8b 75 f8          	mov    -0x8(%rbp),%rsi
  408c6a:	64 48 33 34 25 28 00 	xor    %fs:0x28,%rsi
  408c71:	00 00 
  408c73:	74 05                	je     408c7a <sysutil_accept_timeout+0x2a3>
  408c75:	e8 26 95 ff ff       	callq  4021a0 <__stack_chk_fail@plt>
  408c7a:	c9                   	leaveq 
  408c7b:	c3                   	retq   

0000000000408c7c <sysutil_connect_timeout>:
  408c7c:	55                   	push   %rbp
  408c7d:	48 89 e5             	mov    %rsp,%rbp
  408c80:	48 81 ec 50 01 00 00 	sub    $0x150,%rsp
  408c87:	89 bd bc fe ff ff    	mov    %edi,-0x144(%rbp)
  408c8d:	48 89 b5 b0 fe ff ff 	mov    %rsi,-0x150(%rbp)
  408c94:	89 95 b8 fe ff ff    	mov    %edx,-0x148(%rbp)
  408c9a:	64 48 8b 04 25 28 00 	mov    %fs:0x28,%rax
  408ca1:	00 00 
  408ca3:	48 89 45 f8          	mov    %rax,-0x8(%rbp)
  408ca7:	31 c0                	xor    %eax,%eax
  408ca9:	48 8b 8d b0 fe ff ff 	mov    -0x150(%rbp),%rcx
  408cb0:	8b 85 bc fe ff ff    	mov    -0x144(%rbp),%eax
  408cb6:	ba 1c 00 00 00       	mov    $0x1c,%edx
  408cbb:	48 89 ce             	mov    %rcx,%rsi
  408cbe:	89 c7                	mov    %eax,%edi
  408cc0:	e8 6b 99 ff ff       	callq  402630 <connect@plt>
  408cc5:	89 85 c8 fe ff ff    	mov    %eax,-0x138(%rbp)
  408ccb:	83 bd c8 fe ff ff 00 	cmpl   $0x0,-0x138(%rbp)
  408cd2:	75 0a                	jne    408cde <sysutil_connect_timeout+0x62>
  408cd4:	b8 00 00 00 00       	mov    $0x0,%eax
  408cd9:	e9 0f 02 00 00       	jmpq   408eed <sysutil_connect_timeout+0x271>
  408cde:	e8 3d 93 ff ff       	callq  402020 <__errno_location@plt>
  408ce3:	8b 00                	mov    (%rax),%eax
  408ce5:	83 f8 73             	cmp    $0x73,%eax
  408ce8:	0f 85 fa 01 00 00    	jne    408ee8 <sysutil_connect_timeout+0x26c>
  408cee:	83 bd b8 fe ff ff 00 	cmpl   $0x0,-0x148(%rbp)
  408cf5:	0f 84 ed 01 00 00    	je     408ee8 <sysutil_connect_timeout+0x26c>
  408cfb:	be 0e 00 00 00       	mov    $0xe,%esi
  408d00:	bf d9 ad 40 00       	mov    $0x40add9,%edi
  408d05:	e8 33 09 00 00       	callq  40963d <sysutil_syslog>
  408d0a:	8b 85 b8 fe ff ff    	mov    -0x148(%rbp),%eax
  408d10:	48 89 85 e0 fe ff ff 	mov    %rax,-0x120(%rbp)
  408d17:	48 c7 85 e8 fe ff ff 	movq   $0x0,-0x118(%rbp)
  408d1e:	00 00 00 00 
  408d22:	b8 00 00 00 00       	mov    $0x0,%eax
  408d27:	b9 10 00 00 00       	mov    $0x10,%ecx
  408d2c:	48 8d 95 f0 fe ff ff 	lea    -0x110(%rbp),%rdx
  408d33:	48 89 d7             	mov    %rdx,%rdi
  408d36:	fc                   	cld    
  408d37:	f3 48 ab             	rep stos %rax,%es:(%rdi)
  408d3a:	89 f8                	mov    %edi,%eax
  408d3c:	89 ca                	mov    %ecx,%edx
  408d3e:	89 95 cc fe ff ff    	mov    %edx,-0x134(%rbp)
  408d44:	89 85 d0 fe ff ff    	mov    %eax,-0x130(%rbp)
  408d4a:	b8 00 00 00 00       	mov    $0x0,%eax
  408d4f:	b9 10 00 00 00       	mov    $0x10,%ecx
  408d54:	48 8d 95 70 ff ff ff 	lea    -0x90(%rbp),%rdx
  408d5b:	48 89 d7             	mov    %rdx,%rdi
  408d5e:	fc                   	cld    
  408d5f:	f3 48 ab             	rep stos %rax,%es:(%rdi)
  408d62:	89 f8                	mov    %edi,%eax
  408d64:	89 ca                	mov    %ecx,%edx
  408d66:	89 95 d4 fe ff ff    	mov    %edx,-0x12c(%rbp)
  408d6c:	89 85 d8 fe ff ff    	mov    %eax,-0x128(%rbp)
  408d72:	8b 85 bc fe ff ff    	mov    -0x144(%rbp),%eax
  408d78:	8d 50 3f             	lea    0x3f(%rax),%edx
  408d7b:	85 c0                	test   %eax,%eax
  408d7d:	0f 48 c2             	cmovs  %edx,%eax
  408d80:	c1 f8 06             	sar    $0x6,%eax
  408d83:	89 c6                	mov    %eax,%esi
  408d85:	48 63 c6             	movslq %esi,%rax
  408d88:	48 8b bc c5 f0 fe ff 	mov    -0x110(%rbp,%rax,8),%rdi
  408d8f:	ff 
  408d90:	8b 85 bc fe ff ff    	mov    -0x144(%rbp),%eax
  408d96:	99                   	cltd   
  408d97:	c1 ea 1a             	shr    $0x1a,%edx
  408d9a:	01 d0                	add    %edx,%eax
  408d9c:	83 e0 3f             	and    $0x3f,%eax
  408d9f:	29 d0                	sub    %edx,%eax
  408da1:	ba 01 00 00 00       	mov    $0x1,%edx
  408da6:	89 c1                	mov    %eax,%ecx
  408da8:	48 d3 e2             	shl    %cl,%rdx
  408dab:	48 89 d0             	mov    %rdx,%rax
  408dae:	48 09 c7             	or     %rax,%rdi
  408db1:	48 89 fa             	mov    %rdi,%rdx
  408db4:	48 63 c6             	movslq %esi,%rax
  408db7:	48 89 94 c5 f0 fe ff 	mov    %rdx,-0x110(%rbp,%rax,8)
  408dbe:	ff 
  408dbf:	8b 85 bc fe ff ff    	mov    -0x144(%rbp),%eax
  408dc5:	8d 50 3f             	lea    0x3f(%rax),%edx
  408dc8:	85 c0                	test   %eax,%eax
  408dca:	0f 48 c2             	cmovs  %edx,%eax
  408dcd:	c1 f8 06             	sar    $0x6,%eax
  408dd0:	89 c6                	mov    %eax,%esi
  408dd2:	48 63 c6             	movslq %esi,%rax
  408dd5:	48 8b bc c5 70 ff ff 	mov    -0x90(%rbp,%rax,8),%rdi
  408ddc:	ff 
  408ddd:	8b 85 bc fe ff ff    	mov    -0x144(%rbp),%eax
  408de3:	99                   	cltd   
  408de4:	c1 ea 1a             	shr    $0x1a,%edx
  408de7:	01 d0                	add    %edx,%eax
  408de9:	83 e0 3f             	and    $0x3f,%eax
  408dec:	29 d0                	sub    %edx,%eax
  408dee:	ba 01 00 00 00       	mov    $0x1,%edx
  408df3:	89 c1                	mov    %eax,%ecx
  408df5:	48 d3 e2             	shl    %cl,%rdx
  408df8:	48 89 d0             	mov    %rdx,%rax
  408dfb:	48 09 c7             	or     %rax,%rdi
  408dfe:	48 89 fa             	mov    %rdi,%rdx
  408e01:	48 63 c6             	movslq %esi,%rax
  408e04:	48 89 94 c5 70 ff ff 	mov    %rdx,-0x90(%rbp,%rax,8)
  408e0b:	ff 
  408e0c:	8b 85 bc fe ff ff    	mov    -0x144(%rbp),%eax
  408e12:	8d 78 01             	lea    0x1(%rax),%edi
  408e15:	48 8d 8d e0 fe ff ff 	lea    -0x120(%rbp),%rcx
  408e1c:	48 8d 95 70 ff ff ff 	lea    -0x90(%rbp),%rdx
  408e23:	48 8d 85 f0 fe ff ff 	lea    -0x110(%rbp),%rax
  408e2a:	49 89 c8             	mov    %rcx,%r8
  408e2d:	b9 00 00 00 00       	mov    $0x0,%ecx
  408e32:	48 89 c6             	mov    %rax,%rsi
  408e35:	e8 c6 95 ff ff       	callq  402400 <select@plt>
  408e3a:	89 85 c8 fe ff ff    	mov    %eax,-0x138(%rbp)
  408e40:	e8 db 91 ff ff       	callq  402020 <__errno_location@plt>
  408e45:	8b 00                	mov    (%rax),%eax
  408e47:	89 85 dc fe ff ff    	mov    %eax,-0x124(%rbp)
  408e4d:	83 bd c8 fe ff ff 00 	cmpl   $0x0,-0x138(%rbp)
  408e54:	79 09                	jns    408e5f <sysutil_connect_timeout+0x1e3>
  408e56:	83 bd dc fe ff ff 04 	cmpl   $0x4,-0x124(%rbp)
  408e5d:	74 ad                	je     408e0c <sysutil_connect_timeout+0x190>
  408e5f:	8b 85 bc fe ff ff    	mov    -0x144(%rbp),%eax
  408e65:	8d 50 3f             	lea    0x3f(%rax),%edx
  408e68:	85 c0                	test   %eax,%eax
  408e6a:	0f 48 c2             	cmovs  %edx,%eax
  408e6d:	c1 f8 06             	sar    $0x6,%eax
  408e70:	48 98                	cltq   
  408e72:	48 8b b4 c5 70 ff ff 	mov    -0x90(%rbp,%rax,8),%rsi
  408e79:	ff 
  408e7a:	8b 85 bc fe ff ff    	mov    -0x144(%rbp),%eax
  408e80:	99                   	cltd   
  408e81:	c1 ea 1a             	shr    $0x1a,%edx
  408e84:	01 d0                	add    %edx,%eax
  408e86:	83 e0 3f             	and    $0x3f,%eax
  408e89:	29 d0                	sub    %edx,%eax
  408e8b:	ba 01 00 00 00       	mov    $0x1,%edx
  408e90:	89 c1                	mov    %eax,%ecx
  408e92:	48 d3 e2             	shl    %cl,%rdx
  408e95:	48 89 d0             	mov    %rdx,%rax
  408e98:	48 21 f0             	and    %rsi,%rax
  408e9b:	48 85 c0             	test   %rax,%rax
  408e9e:	74 48                	je     408ee8 <sysutil_connect_timeout+0x26c>
  408ea0:	8b 85 bc fe ff ff    	mov    -0x144(%rbp),%eax
  408ea6:	8d 50 3f             	lea    0x3f(%rax),%edx
  408ea9:	85 c0                	test   %eax,%eax
  408eab:	0f 48 c2             	cmovs  %edx,%eax
  408eae:	c1 f8 06             	sar    $0x6,%eax
  408eb1:	48 98                	cltq   
  408eb3:	48 8b b4 c5 f0 fe ff 	mov    -0x110(%rbp,%rax,8),%rsi
  408eba:	ff 
  408ebb:	8b 85 bc fe ff ff    	mov    -0x144(%rbp),%eax
  408ec1:	99                   	cltd   
  408ec2:	c1 ea 1a             	shr    $0x1a,%edx
  408ec5:	01 d0                	add    %edx,%eax
  408ec7:	83 e0 3f             	and    $0x3f,%eax
  408eca:	29 d0                	sub    %edx,%eax
  408ecc:	ba 01 00 00 00       	mov    $0x1,%edx
  408ed1:	89 c1                	mov    %eax,%ecx
  408ed3:	48 d3 e2             	shl    %cl,%rdx
  408ed6:	48 89 d0             	mov    %rdx,%rax
  408ed9:	48 21 f0             	and    %rsi,%rax
  408edc:	48 85 c0             	test   %rax,%rax
  408edf:	75 07                	jne    408ee8 <sysutil_connect_timeout+0x26c>
  408ee1:	b8 00 00 00 00       	mov    $0x0,%eax
  408ee6:	eb 05                	jmp    408eed <sysutil_connect_timeout+0x271>
  408ee8:	b8 ff ff ff ff       	mov    $0xffffffff,%eax
  408eed:	48 8b 75 f8          	mov    -0x8(%rbp),%rsi
  408ef1:	64 48 33 34 25 28 00 	xor    %fs:0x28,%rsi
  408ef8:	00 00 
  408efa:	74 05                	je     408f01 <sysutil_connect_timeout+0x285>
  408efc:	e8 9f 92 ff ff       	callq  4021a0 <__stack_chk_fail@plt>
  408f01:	c9                   	leaveq 
  408f02:	c3                   	retq   

0000000000408f03 <sysutil_dns_resolve>:
  408f03:	55                   	push   %rbp
  408f04:	48 89 e5             	mov    %rsp,%rbp
  408f07:	48 83 ec 30          	sub    $0x30,%rsp
  408f0b:	48 89 7d d8          	mov    %rdi,-0x28(%rbp)
  408f0f:	48 89 75 d0          	mov    %rsi,-0x30(%rbp)
  408f13:	48 c7 45 f0 00 00 00 	movq   $0x0,-0x10(%rbp)
  408f1a:	00 
  408f1b:	e8 f0 91 ff ff       	callq  402110 <gethostent@plt>
  408f20:	48 89 45 f8          	mov    %rax,-0x8(%rbp)
  408f24:	48 8b 45 d0          	mov    -0x30(%rbp),%rax
  408f28:	48 89 c7             	mov    %rax,%rdi
  408f2b:	e8 30 94 ff ff       	callq  402360 <gethostbyname@plt>
  408f30:	48 89 45 f8          	mov    %rax,-0x8(%rbp)
  408f34:	c7 45 ec 00 00 00 00 	movl   $0x0,-0x14(%rbp)
  408f3b:	90                   	nop
  408f3c:	48 8b 45 f8          	mov    -0x8(%rbp),%rax
  408f40:	48 8b 40 18          	mov    0x18(%rax),%rax
  408f44:	8b 55 ec             	mov    -0x14(%rbp),%edx
  408f47:	48 63 d2             	movslq %edx,%rdx
  408f4a:	48 c1 e2 03          	shl    $0x3,%rdx
  408f4e:	48 01 d0             	add    %rdx,%rax
  408f51:	48 8b 00             	mov    (%rax),%rax
  408f54:	48 85 c0             	test   %rax,%rax
  408f57:	74 52                	je     408fab <sysutil_dns_resolve+0xa8>
  408f59:	48 8b 45 f8          	mov    -0x8(%rbp),%rax
  408f5d:	c7 40 10 02 00 00 00 	movl   $0x2,0x10(%rax)
  408f64:	48 8b 45 f8          	mov    -0x8(%rbp),%rax
  408f68:	48 8b 40 18          	mov    0x18(%rax),%rax
  408f6c:	8b 55 ec             	mov    -0x14(%rbp),%edx
  408f6f:	48 63 d2             	movslq %edx,%rdx
  408f72:	48 c1 e2 03          	shl    $0x3,%rdx
  408f76:	48 01 d0             	add    %rdx,%rax
  408f79:	48 8b 00             	mov    (%rax),%rax
  408f7c:	48 89 c7             	mov    %rax,%rdi
  408f7f:	e8 9c 04 00 00       	callq  409420 <sysutil_inet_ntoa>
  408f84:	48 89 45 f0          	mov    %rax,-0x10(%rbp)
  408f88:	48 8b 45 d8          	mov    -0x28(%rbp),%rax
  408f8c:	48 89 c7             	mov    %rax,%rdi
  408f8f:	e8 d8 f4 ff ff       	callq  40846c <sysutil_sockaddr_alloc_ipv4>
  408f94:	48 8b 45 d8          	mov    -0x28(%rbp),%rax
  408f98:	48 8b 00             	mov    (%rax),%rax
  408f9b:	48 8b 55 f0          	mov    -0x10(%rbp),%rdx
  408f9f:	48 89 d6             	mov    %rdx,%rsi
  408fa2:	48 89 c7             	mov    %rax,%rdi
  408fa5:	e8 83 f5 ff ff       	callq  40852d <sysutil_sockaddr_set_ipv4addr>
  408faa:	90                   	nop
  408fab:	90                   	nop
  408fac:	c9                   	leaveq 
  408fad:	c3                   	retq   

0000000000408fae <sysutil_activate_keepalive>:
  408fae:	55                   	push   %rbp
  408faf:	48 89 e5             	mov    %rsp,%rbp
  408fb2:	48 83 ec 20          	sub    $0x20,%rsp
  408fb6:	89 7d ec             	mov    %edi,-0x14(%rbp)
  408fb9:	64 48 8b 04 25 28 00 	mov    %fs:0x28,%rax
  408fc0:	00 00 
  408fc2:	48 89 45 f8          	mov    %rax,-0x8(%rbp)
  408fc6:	31 c0                	xor    %eax,%eax
  408fc8:	48 8d 55 f4          	lea    -0xc(%rbp),%rdx
  408fcc:	8b 45 ec             	mov    -0x14(%rbp),%eax
  408fcf:	41 b8 04 00 00 00    	mov    $0x4,%r8d
  408fd5:	48 89 d1             	mov    %rdx,%rcx
  408fd8:	ba 09 00 00 00       	mov    $0x9,%edx
  408fdd:	be 01 00 00 00       	mov    $0x1,%esi
  408fe2:	89 c7                	mov    %eax,%edi
  408fe4:	e8 b7 90 ff ff       	callq  4020a0 <setsockopt@plt>
  408fe9:	85 c0                	test   %eax,%eax
  408feb:	79 0a                	jns    408ff7 <sysutil_activate_keepalive+0x49>
  408fed:	bf e6 ad 40 00       	mov    $0x40ade6,%edi
  408ff2:	e8 e3 e2 ff ff       	callq  4072da <die>
  408ff7:	90                   	nop
  408ff8:	48 8b 45 f8          	mov    -0x8(%rbp),%rax
  408ffc:	64 48 33 04 25 28 00 	xor    %fs:0x28,%rax
  409003:	00 00 
  409005:	74 05                	je     40900c <sysutil_activate_keepalive+0x5e>
  409007:	e8 94 91 ff ff       	callq  4021a0 <__stack_chk_fail@plt>
  40900c:	c9                   	leaveq 
  40900d:	c3                   	retq   

000000000040900e <sysutil_set_iptos_throughput>:
  40900e:	55                   	push   %rbp
  40900f:	48 89 e5             	mov    %rsp,%rbp
  409012:	48 83 ec 20          	sub    $0x20,%rsp
  409016:	89 7d ec             	mov    %edi,-0x14(%rbp)
  409019:	64 48 8b 04 25 28 00 	mov    %fs:0x28,%rax
  409020:	00 00 
  409022:	48 89 45 f8          	mov    %rax,-0x8(%rbp)
  409026:	31 c0                	xor    %eax,%eax
  409028:	c6 45 f7 08          	movb   $0x8,-0x9(%rbp)
  40902c:	48 8d 55 f7          	lea    -0x9(%rbp),%rdx
  409030:	8b 45 ec             	mov    -0x14(%rbp),%eax
  409033:	41 b8 01 00 00 00    	mov    $0x1,%r8d
  409039:	48 89 d1             	mov    %rdx,%rcx
  40903c:	ba 01 00 00 00       	mov    $0x1,%edx
  409041:	be 00 00 00 00       	mov    $0x0,%esi
  409046:	89 c7                	mov    %eax,%edi
  409048:	e8 53 90 ff ff       	callq  4020a0 <setsockopt@plt>
  40904d:	85 c0                	test   %eax,%eax
  40904f:	79 0a                	jns    40905b <sysutil_set_iptos_throughput+0x4d>
  409051:	bf f0 ad 40 00       	mov    $0x40adf0,%edi
  409056:	e8 7f e2 ff ff       	callq  4072da <die>
  40905b:	90                   	nop
  40905c:	48 8b 45 f8          	mov    -0x8(%rbp),%rax
  409060:	64 48 33 04 25 28 00 	xor    %fs:0x28,%rax
  409067:	00 00 
  409069:	74 05                	je     409070 <sysutil_set_iptos_throughput+0x62>
  40906b:	e8 30 91 ff ff       	callq  4021a0 <__stack_chk_fail@plt>
  409070:	c9                   	leaveq 
  409071:	c3                   	retq   

0000000000409072 <sysutil_activate_reuseaddr>:
  409072:	55                   	push   %rbp
  409073:	48 89 e5             	mov    %rsp,%rbp
  409076:	48 83 ec 20          	sub    $0x20,%rsp
  40907a:	89 7d ec             	mov    %edi,-0x14(%rbp)
  40907d:	64 48 8b 04 25 28 00 	mov    %fs:0x28,%rax
  409084:	00 00 
  409086:	48 89 45 f8          	mov    %rax,-0x8(%rbp)
  40908a:	31 c0                	xor    %eax,%eax
  40908c:	48 8d 55 f4          	lea    -0xc(%rbp),%rdx
  409090:	8b 45 ec             	mov    -0x14(%rbp),%eax
  409093:	41 b8 04 00 00 00    	mov    $0x4,%r8d
  409099:	48 89 d1             	mov    %rdx,%rcx
  40909c:	ba 02 00 00 00       	mov    $0x2,%edx
  4090a1:	be 01 00 00 00       	mov    $0x1,%esi
  4090a6:	89 c7                	mov    %eax,%edi
  4090a8:	e8 f3 8f ff ff       	callq  4020a0 <setsockopt@plt>
  4090ad:	85 c0                	test   %eax,%eax
  4090af:	79 0a                	jns    4090bb <sysutil_activate_reuseaddr+0x49>
  4090b1:	bf f6 ad 40 00       	mov    $0x40adf6,%edi
  4090b6:	e8 1f e2 ff ff       	callq  4072da <die>
  4090bb:	90                   	nop
  4090bc:	48 8b 45 f8          	mov    -0x8(%rbp),%rax
  4090c0:	64 48 33 04 25 28 00 	xor    %fs:0x28,%rax
  4090c7:	00 00 
  4090c9:	74 05                	je     4090d0 <sysutil_activate_reuseaddr+0x5e>
  4090cb:	e8 d0 90 ff ff       	callq  4021a0 <__stack_chk_fail@plt>
  4090d0:	c9                   	leaveq 
  4090d1:	c3                   	retq   

00000000004090d2 <sysutil_set_nodelay>:
  4090d2:	55                   	push   %rbp
  4090d3:	48 89 e5             	mov    %rsp,%rbp
  4090d6:	48 83 ec 20          	sub    $0x20,%rsp
  4090da:	89 7d ec             	mov    %edi,-0x14(%rbp)
  4090dd:	64 48 8b 04 25 28 00 	mov    %fs:0x28,%rax
  4090e4:	00 00 
  4090e6:	48 89 45 f8          	mov    %rax,-0x8(%rbp)
  4090ea:	31 c0                	xor    %eax,%eax
  4090ec:	48 8d 55 f4          	lea    -0xc(%rbp),%rdx
  4090f0:	8b 45 ec             	mov    -0x14(%rbp),%eax
  4090f3:	41 b8 04 00 00 00    	mov    $0x4,%r8d
  4090f9:	48 89 d1             	mov    %rdx,%rcx
  4090fc:	ba 01 00 00 00       	mov    $0x1,%edx
  409101:	be 06 00 00 00       	mov    $0x6,%esi
  409106:	89 c7                	mov    %eax,%edi
  409108:	e8 93 8f ff ff       	callq  4020a0 <setsockopt@plt>
  40910d:	85 c0                	test   %eax,%eax
  40910f:	79 0a                	jns    40911b <sysutil_set_nodelay+0x49>
  409111:	bf 00 ae 40 00       	mov    $0x40ae00,%edi
  409116:	e8 bf e1 ff ff       	callq  4072da <die>
  40911b:	90                   	nop
  40911c:	48 8b 45 f8          	mov    -0x8(%rbp),%rax
  409120:	64 48 33 04 25 28 00 	xor    %fs:0x28,%rax
  409127:	00 00 
  409129:	74 05                	je     409130 <sysutil_set_nodelay+0x5e>
  40912b:	e8 70 90 ff ff       	callq  4021a0 <__stack_chk_fail@plt>
  409130:	c9                   	leaveq 
  409131:	c3                   	retq   

0000000000409132 <sysutil_activate_sigurg>:
  409132:	55                   	push   %rbp
  409133:	48 89 e5             	mov    %rsp,%rbp
  409136:	89 7d fc             	mov    %edi,-0x4(%rbp)
  409139:	90                   	nop
  40913a:	5d                   	pop    %rbp
  40913b:	c3                   	retq   

000000000040913c <sysutil_activate_oobinline>:
  40913c:	55                   	push   %rbp
  40913d:	48 89 e5             	mov    %rsp,%rbp
  409140:	48 83 ec 20          	sub    $0x20,%rsp
  409144:	89 7d ec             	mov    %edi,-0x14(%rbp)
  409147:	64 48 8b 04 25 28 00 	mov    %fs:0x28,%rax
  40914e:	00 00 
  409150:	48 89 45 f8          	mov    %rax,-0x8(%rbp)
  409154:	31 c0                	xor    %eax,%eax
  409156:	48 8d 55 f4          	lea    -0xc(%rbp),%rdx
  40915a:	8b 45 ec             	mov    -0x14(%rbp),%eax
  40915d:	41 b8 04 00 00 00    	mov    $0x4,%r8d
  409163:	48 89 d1             	mov    %rdx,%rcx
  409166:	ba 0a 00 00 00       	mov    $0xa,%edx
  40916b:	be 01 00 00 00       	mov    $0x1,%esi
  409170:	89 c7                	mov    %eax,%edi
  409172:	e8 29 8f ff ff       	callq  4020a0 <setsockopt@plt>
  409177:	85 c0                	test   %eax,%eax
  409179:	79 0a                	jns    409185 <sysutil_activate_oobinline+0x49>
  40917b:	bf 08 ae 40 00       	mov    $0x40ae08,%edi
  409180:	e8 55 e1 ff ff       	callq  4072da <die>
  409185:	90                   	nop
  409186:	48 8b 45 f8          	mov    -0x8(%rbp),%rax
  40918a:	64 48 33 04 25 28 00 	xor    %fs:0x28,%rax
  409191:	00 00 
  409193:	74 05                	je     40919a <sysutil_activate_oobinline+0x5e>
  409195:	e8 06 90 ff ff       	callq  4021a0 <__stack_chk_fail@plt>
  40919a:	c9                   	leaveq 
  40919b:	c3                   	retq   

000000000040919c <sysutil_activate_linger>:
  40919c:	55                   	push   %rbp
  40919d:	48 89 e5             	mov    %rsp,%rbp
  4091a0:	48 83 ec 20          	sub    $0x20,%rsp
  4091a4:	89 7d ec             	mov    %edi,-0x14(%rbp)
  4091a7:	64 48 8b 04 25 28 00 	mov    %fs:0x28,%rax
  4091ae:	00 00 
  4091b0:	48 89 45 f8          	mov    %rax,-0x8(%rbp)
  4091b4:	31 c0                	xor    %eax,%eax
  4091b6:	c7 45 f0 01 00 00 00 	movl   $0x1,-0x10(%rbp)
  4091bd:	c7 45 f4 00 00 00 00 	movl   $0x0,-0xc(%rbp)
  4091c4:	48 8d 55 f0          	lea    -0x10(%rbp),%rdx
  4091c8:	8b 45 ec             	mov    -0x14(%rbp),%eax
  4091cb:	41 b8 08 00 00 00    	mov    $0x8,%r8d
  4091d1:	48 89 d1             	mov    %rdx,%rcx
  4091d4:	ba 0d 00 00 00       	mov    $0xd,%edx
  4091d9:	be 01 00 00 00       	mov    $0x1,%esi
  4091de:	89 c7                	mov    %eax,%edi
  4091e0:	e8 bb 8e ff ff       	callq  4020a0 <setsockopt@plt>
  4091e5:	85 c0                	test   %eax,%eax
  4091e7:	79 0a                	jns    4091f3 <sysutil_activate_linger+0x57>
  4091e9:	bf 10 ae 40 00       	mov    $0x40ae10,%edi
  4091ee:	e8 e7 e0 ff ff       	callq  4072da <die>
  4091f3:	90                   	nop
  4091f4:	48 8b 45 f8          	mov    -0x8(%rbp),%rax
  4091f8:	64 48 33 04 25 28 00 	xor    %fs:0x28,%rax
  4091ff:	00 00 
  409201:	74 05                	je     409208 <sysutil_activate_linger+0x6c>
  409203:	e8 98 8f ff ff       	callq  4021a0 <__stack_chk_fail@plt>
  409208:	c9                   	leaveq 
  409209:	c3                   	retq   

000000000040920a <sysutil_deactivate_linger_failok>:
  40920a:	55                   	push   %rbp
  40920b:	48 89 e5             	mov    %rsp,%rbp
  40920e:	48 83 ec 20          	sub    $0x20,%rsp
  409212:	89 7d ec             	mov    %edi,-0x14(%rbp)
  409215:	64 48 8b 04 25 28 00 	mov    %fs:0x28,%rax
  40921c:	00 00 
  40921e:	48 89 45 f8          	mov    %rax,-0x8(%rbp)
  409222:	31 c0                	xor    %eax,%eax
  409224:	c7 45 f0 00 00 00 00 	movl   $0x0,-0x10(%rbp)
  40922b:	c7 45 f4 00 00 00 00 	movl   $0x0,-0xc(%rbp)
  409232:	48 8d 55 f0          	lea    -0x10(%rbp),%rdx
  409236:	8b 45 ec             	mov    -0x14(%rbp),%eax
  409239:	41 b8 08 00 00 00    	mov    $0x8,%r8d
  40923f:	48 89 d1             	mov    %rdx,%rcx
  409242:	ba 0d 00 00 00       	mov    $0xd,%edx
  409247:	be 01 00 00 00       	mov    $0x1,%esi
  40924c:	89 c7                	mov    %eax,%edi
  40924e:	e8 4d 8e ff ff       	callq  4020a0 <setsockopt@plt>
  409253:	85 c0                	test   %eax,%eax
  409255:	79 0a                	jns    409261 <sysutil_deactivate_linger_failok+0x57>
  409257:	bf 1b ae 40 00       	mov    $0x40ae1b,%edi
  40925c:	e8 79 e0 ff ff       	callq  4072da <die>
  409261:	90                   	nop
  409262:	48 8b 45 f8          	mov    -0x8(%rbp),%rax
  409266:	64 48 33 04 25 28 00 	xor    %fs:0x28,%rax
  40926d:	00 00 
  40926f:	74 05                	je     409276 <sysutil_deactivate_linger_failok+0x6c>
  409271:	e8 2a 8f ff ff       	callq  4021a0 <__stack_chk_fail@plt>
  409276:	c9                   	leaveq 
  409277:	c3                   	retq   

0000000000409278 <sysutil_activate_noblock>:
  409278:	55                   	push   %rbp
  409279:	48 89 e5             	mov    %rsp,%rbp
  40927c:	48 83 ec 20          	sub    $0x20,%rsp
  409280:	89 7d ec             	mov    %edi,-0x14(%rbp)
  409283:	8b 45 ec             	mov    -0x14(%rbp),%eax
  409286:	ba 00 00 00 00       	mov    $0x0,%edx
  40928b:	be 01 00 00 00       	mov    $0x1,%esi
  409290:	89 c7                	mov    %eax,%edi
  409292:	b8 00 00 00 00       	mov    $0x0,%eax
  409297:	e8 24 8e ff ff       	callq  4020c0 <fcntl@plt>
  40929c:	89 45 fc             	mov    %eax,-0x4(%rbp)
  40929f:	83 7d fc 00          	cmpl   $0x0,-0x4(%rbp)
  4092a3:	78 20                	js     4092c5 <sysutil_activate_noblock+0x4d>
  4092a5:	8b 45 fc             	mov    -0x4(%rbp),%eax
  4092a8:	80 cc 08             	or     $0x8,%ah
  4092ab:	89 c2                	mov    %eax,%edx
  4092ad:	8b 45 ec             	mov    -0x14(%rbp),%eax
  4092b0:	be 02 00 00 00       	mov    $0x2,%esi
  4092b5:	89 c7                	mov    %eax,%edi
  4092b7:	b8 00 00 00 00       	mov    $0x0,%eax
  4092bc:	e8 ff 8d ff ff       	callq  4020c0 <fcntl@plt>
  4092c1:	85 c0                	test   %eax,%eax
  4092c3:	79 0a                	jns    4092cf <sysutil_activate_noblock+0x57>
  4092c5:	bf 26 ae 40 00       	mov    $0x40ae26,%edi
  4092ca:	e8 0b e0 ff ff       	callq  4072da <die>
  4092cf:	90                   	nop
  4092d0:	c9                   	leaveq 
  4092d1:	c3                   	retq   

00000000004092d2 <sysutil_deactivate_noblock>:
  4092d2:	55                   	push   %rbp
  4092d3:	48 89 e5             	mov    %rsp,%rbp
  4092d6:	48 83 ec 20          	sub    $0x20,%rsp
  4092da:	89 7d ec             	mov    %edi,-0x14(%rbp)
  4092dd:	8b 45 ec             	mov    -0x14(%rbp),%eax
  4092e0:	ba 00 00 00 00       	mov    $0x0,%edx
  4092e5:	be 01 00 00 00       	mov    $0x1,%esi
  4092ea:	89 c7                	mov    %eax,%edi
  4092ec:	b8 00 00 00 00       	mov    $0x0,%eax
  4092f1:	e8 ca 8d ff ff       	callq  4020c0 <fcntl@plt>
  4092f6:	89 45 fc             	mov    %eax,-0x4(%rbp)
  4092f9:	83 7d fc 00          	cmpl   $0x0,-0x4(%rbp)
  4092fd:	78 22                	js     409321 <sysutil_deactivate_noblock+0x4f>
  4092ff:	8b 45 fc             	mov    -0x4(%rbp),%eax
  409302:	0d ff f7 ff ff       	or     $0xfffff7ff,%eax
  409307:	89 c2                	mov    %eax,%edx
  409309:	8b 45 ec             	mov    -0x14(%rbp),%eax
  40930c:	be 02 00 00 00       	mov    $0x2,%esi
  409311:	89 c7                	mov    %eax,%edi
  409313:	b8 00 00 00 00       	mov    $0x0,%eax
  409318:	e8 a3 8d ff ff       	callq  4020c0 <fcntl@plt>
  40931d:	85 c0                	test   %eax,%eax
  40931f:	79 0a                	jns    40932b <sysutil_deactivate_noblock+0x59>
  409321:	bf 34 ae 40 00       	mov    $0x40ae34,%edi
  409326:	e8 af df ff ff       	callq  4072da <die>
  40932b:	90                   	nop
  40932c:	c9                   	leaveq 
  40932d:	c3                   	retq   

000000000040932e <sysutil_shutdown_failok>:
  40932e:	55                   	push   %rbp
  40932f:	48 89 e5             	mov    %rsp,%rbp
  409332:	48 83 ec 10          	sub    $0x10,%rsp
  409336:	89 7d fc             	mov    %edi,-0x4(%rbp)
  409339:	8b 45 fc             	mov    -0x4(%rbp),%eax
  40933c:	be 02 00 00 00       	mov    $0x2,%esi
  409341:	89 c7                	mov    %eax,%edi
  409343:	e8 08 8e ff ff       	callq  402150 <shutdown@plt>
  409348:	90                   	nop
  409349:	c9                   	leaveq 
  40934a:	c3                   	retq   

000000000040934b <sysutil_shutdown_read_failok>:
  40934b:	55                   	push   %rbp
  40934c:	48 89 e5             	mov    %rsp,%rbp
  40934f:	48 83 ec 10          	sub    $0x10,%rsp
  409353:	89 7d fc             	mov    %edi,-0x4(%rbp)
  409356:	8b 45 fc             	mov    -0x4(%rbp),%eax
  409359:	be 00 00 00 00       	mov    $0x0,%esi
  40935e:	89 c7                	mov    %eax,%edi
  409360:	e8 eb 8d ff ff       	callq  402150 <shutdown@plt>
  409365:	90                   	nop
  409366:	c9                   	leaveq 
  409367:	c3                   	retq   

0000000000409368 <sysutil_recv_peek>:
  409368:	55                   	push   %rbp
  409369:	48 89 e5             	mov    %rsp,%rbp
  40936c:	48 83 ec 10          	sub    $0x10,%rsp
  409370:	89 7d fc             	mov    %edi,-0x4(%rbp)
  409373:	48 89 75 f0          	mov    %rsi,-0x10(%rbp)
  409377:	89 55 f8             	mov    %edx,-0x8(%rbp)
  40937a:	8b 55 f8             	mov    -0x8(%rbp),%edx
  40937d:	48 8b 75 f0          	mov    -0x10(%rbp),%rsi
  409381:	8b 45 fc             	mov    -0x4(%rbp),%eax
  409384:	b9 02 00 00 00       	mov    $0x2,%ecx
  409389:	89 c7                	mov    %eax,%edi
  40938b:	e8 60 8c ff ff       	callq  401ff0 <recv@plt>
  409390:	c9                   	leaveq 
  409391:	c3                   	retq   

0000000000409392 <sysutil_inet_ntop>:
  409392:	55                   	push   %rbp
  409393:	48 89 e5             	mov    %rsp,%rbp
  409396:	48 83 ec 20          	sub    $0x20,%rsp
  40939a:	48 89 7d e8          	mov    %rdi,-0x18(%rbp)
  40939e:	48 8b 45 e8          	mov    -0x18(%rbp),%rax
  4093a2:	0f b7 00             	movzwl (%rax),%eax
  4093a5:	66 83 f8 02          	cmp    $0x2,%ax
  4093a9:	75 32                	jne    4093dd <sysutil_inet_ntop+0x4b>
  4093ab:	bf 10 00 00 00       	mov    $0x10,%edi
  4093b0:	e8 8b 90 ff ff       	callq  402440 <malloc@plt>
  4093b5:	48 89 45 f8          	mov    %rax,-0x8(%rbp)
  4093b9:	48 8b 45 e8          	mov    -0x18(%rbp),%rax
  4093bd:	48 8d 70 04          	lea    0x4(%rax),%rsi
  4093c1:	48 8b 45 f8          	mov    -0x8(%rbp),%rax
  4093c5:	b9 10 00 00 00       	mov    $0x10,%ecx
  4093ca:	48 89 c2             	mov    %rax,%rdx
  4093cd:	bf 02 00 00 00       	mov    $0x2,%edi
  4093d2:	e8 d9 8b ff ff       	callq  401fb0 <inet_ntop@plt>
  4093d7:	48 89 45 f8          	mov    %rax,-0x8(%rbp)
  4093db:	eb 3d                	jmp    40941a <sysutil_inet_ntop+0x88>
  4093dd:	48 8b 45 e8          	mov    -0x18(%rbp),%rax
  4093e1:	0f b7 00             	movzwl (%rax),%eax
  4093e4:	66 83 f8 0a          	cmp    $0xa,%ax
  4093e8:	75 30                	jne    40941a <sysutil_inet_ntop+0x88>
  4093ea:	bf 2e 00 00 00       	mov    $0x2e,%edi
  4093ef:	e8 4c 90 ff ff       	callq  402440 <malloc@plt>
  4093f4:	48 89 45 f8          	mov    %rax,-0x8(%rbp)
  4093f8:	48 8b 45 e8          	mov    -0x18(%rbp),%rax
  4093fc:	48 8d 70 08          	lea    0x8(%rax),%rsi
  409400:	48 8b 45 f8          	mov    -0x8(%rbp),%rax
  409404:	b9 2e 00 00 00       	mov    $0x2e,%ecx
  409409:	48 89 c2             	mov    %rax,%rdx
  40940c:	bf 0a 00 00 00       	mov    $0xa,%edi
  409411:	e8 9a 8b ff ff       	callq  401fb0 <inet_ntop@plt>
  409416:	48 89 45 f8          	mov    %rax,-0x8(%rbp)
  40941a:	48 8b 45 f8          	mov    -0x8(%rbp),%rax
  40941e:	c9                   	leaveq 
  40941f:	c3                   	retq   

0000000000409420 <sysutil_inet_ntoa>:
  409420:	55                   	push   %rbp
  409421:	48 89 e5             	mov    %rsp,%rbp
  409424:	48 83 ec 10          	sub    $0x10,%rsp
  409428:	48 89 7d f8          	mov    %rdi,-0x8(%rbp)
  40942c:	48 8b 45 f8          	mov    -0x8(%rbp),%rax
  409430:	8b 38                	mov    (%rax),%edi
  409432:	e8 b9 8c ff ff       	callq  4020f0 <inet_ntoa@plt>
  409437:	c9                   	leaveq 
  409438:	c3                   	retq   

0000000000409439 <sysutil_inet_aton>:
  409439:	55                   	push   %rbp
  40943a:	48 89 e5             	mov    %rsp,%rbp
  40943d:	48 83 ec 10          	sub    $0x10,%rsp
  409441:	48 89 7d f8          	mov    %rdi,-0x8(%rbp)
  409445:	48 89 75 f0          	mov    %rsi,-0x10(%rbp)
  409449:	48 8b 45 f0          	mov    -0x10(%rbp),%rax
  40944d:	48 8d 50 04          	lea    0x4(%rax),%rdx
  409451:	48 8b 45 f8          	mov    -0x8(%rbp),%rax
  409455:	48 89 d6             	mov    %rdx,%rsi
  409458:	48 89 c7             	mov    %rax,%rdi
  40945b:	e8 b0 8f ff ff       	callq  402410 <inet_aton@plt>
  409460:	c9                   	leaveq 
  409461:	c3                   	retq   

0000000000409462 <sysutil_getpwuid>:
  409462:	55                   	push   %rbp
  409463:	48 89 e5             	mov    %rsp,%rbp
  409466:	48 83 ec 10          	sub    $0x10,%rsp
  40946a:	89 7d fc             	mov    %edi,-0x4(%rbp)
  40946d:	8b 45 fc             	mov    -0x4(%rbp),%eax
  409470:	89 c7                	mov    %eax,%edi
  409472:	e8 b9 8c ff ff       	callq  402130 <getpwuid@plt>
  409477:	c9                   	leaveq 
  409478:	c3                   	retq   

0000000000409479 <sysutil_getpwnam>:
  409479:	55                   	push   %rbp
  40947a:	48 89 e5             	mov    %rsp,%rbp
  40947d:	48 83 ec 10          	sub    $0x10,%rsp
  409481:	48 89 7d f8          	mov    %rdi,-0x8(%rbp)
  409485:	48 8b 45 f8          	mov    -0x8(%rbp),%rax
  409489:	48 89 c7             	mov    %rax,%rdi
  40948c:	e8 bf 8e ff ff       	callq  402350 <getpwnam@plt>
  409491:	c9                   	leaveq 
  409492:	c3                   	retq   

0000000000409493 <sysutil_user_getname>:
  409493:	55                   	push   %rbp
  409494:	48 89 e5             	mov    %rsp,%rbp
  409497:	48 89 7d f8          	mov    %rdi,-0x8(%rbp)
  40949b:	48 8b 45 f8          	mov    -0x8(%rbp),%rax
  40949f:	48 8b 00             	mov    (%rax),%rax
  4094a2:	5d                   	pop    %rbp
  4094a3:	c3                   	retq   

00000000004094a4 <sysutil_user_get_homedir>:
  4094a4:	55                   	push   %rbp
  4094a5:	48 89 e5             	mov    %rsp,%rbp
  4094a8:	48 89 7d f8          	mov    %rdi,-0x8(%rbp)
  4094ac:	48 8b 45 f8          	mov    -0x8(%rbp),%rax
  4094b0:	48 8b 40 20          	mov    0x20(%rax),%rax
  4094b4:	5d                   	pop    %rbp
  4094b5:	c3                   	retq   

00000000004094b6 <sysutil_user_getuid>:
  4094b6:	55                   	push   %rbp
  4094b7:	48 89 e5             	mov    %rsp,%rbp
  4094ba:	48 89 7d f8          	mov    %rdi,-0x8(%rbp)
  4094be:	48 8b 45 f8          	mov    -0x8(%rbp),%rax
  4094c2:	8b 40 10             	mov    0x10(%rax),%eax
  4094c5:	5d                   	pop    %rbp
  4094c6:	c3                   	retq   

00000000004094c7 <sysutil_user_getgid>:
  4094c7:	55                   	push   %rbp
  4094c8:	48 89 e5             	mov    %rsp,%rbp
  4094cb:	48 89 7d f8          	mov    %rdi,-0x8(%rbp)
  4094cf:	48 8b 45 f8          	mov    -0x8(%rbp),%rax
  4094d3:	8b 40 14             	mov    0x14(%rax),%eax
  4094d6:	5d                   	pop    %rbp
  4094d7:	c3                   	retq   

00000000004094d8 <sysutil_getgrgid>:
  4094d8:	55                   	push   %rbp
  4094d9:	48 89 e5             	mov    %rsp,%rbp
  4094dc:	48 83 ec 10          	sub    $0x10,%rsp
  4094e0:	89 7d fc             	mov    %edi,-0x4(%rbp)
  4094e3:	8b 45 fc             	mov    -0x4(%rbp),%eax
  4094e6:	89 c7                	mov    %eax,%edi
  4094e8:	e8 f3 8c ff ff       	callq  4021e0 <getgrgid@plt>
  4094ed:	c9                   	leaveq 
  4094ee:	c3                   	retq   

00000000004094ef <sysutil_group_getname>:
  4094ef:	55                   	push   %rbp
  4094f0:	48 89 e5             	mov    %rsp,%rbp
  4094f3:	48 89 7d f8          	mov    %rdi,-0x8(%rbp)
  4094f7:	48 8b 45 f8          	mov    -0x8(%rbp),%rax
  4094fb:	48 8b 00             	mov    (%rax),%rax
  4094fe:	5d                   	pop    %rbp
  4094ff:	c3                   	retq   

0000000000409500 <sysutil_getpagesize>:
  409500:	55                   	push   %rbp
  409501:	48 89 e5             	mov    %rsp,%rbp
  409504:	e8 f7 90 ff ff       	callq  402600 <getpagesize@plt>
  409509:	5d                   	pop    %rbp
  40950a:	c3                   	retq   

000000000040950b <sysutil_get_random_byte>:
  40950b:	55                   	push   %rbp
  40950c:	48 89 e5             	mov    %rsp,%rbp
  40950f:	90                   	nop
  409510:	90                   	nop
  409511:	5d                   	pop    %rbp
  409512:	c3                   	retq   

0000000000409513 <sysutil_get_umask>:
  409513:	55                   	push   %rbp
  409514:	48 89 e5             	mov    %rsp,%rbp
  409517:	48 83 ec 10          	sub    $0x10,%rsp
  40951b:	bf 00 00 00 00       	mov    $0x0,%edi
  409520:	e8 5b 8e ff ff       	callq  402380 <umask@plt>
  409525:	89 45 fc             	mov    %eax,-0x4(%rbp)
  409528:	8b 45 fc             	mov    -0x4(%rbp),%eax
  40952b:	89 c7                	mov    %eax,%edi
  40952d:	e8 4e 8e ff ff       	callq  402380 <umask@plt>
  409532:	8b 45 fc             	mov    -0x4(%rbp),%eax
  409535:	c9                   	leaveq 
  409536:	c3                   	retq   

0000000000409537 <sysutil_set_umask>:
  409537:	55                   	push   %rbp
  409538:	48 89 e5             	mov    %rsp,%rbp
  40953b:	48 83 ec 10          	sub    $0x10,%rsp
  40953f:	89 7d fc             	mov    %edi,-0x4(%rbp)
  409542:	8b 45 fc             	mov    -0x4(%rbp),%eax
  409545:	89 c7                	mov    %eax,%edi
  409547:	e8 34 8e ff ff       	callq  402380 <umask@plt>
  40954c:	90                   	nop
  40954d:	c9                   	leaveq 
  40954e:	c3                   	retq   

000000000040954f <sysutil_make_session_leader>:
  40954f:	55                   	push   %rbp
  409550:	48 89 e5             	mov    %rsp,%rbp
  409553:	90                   	nop
  409554:	5d                   	pop    %rbp
  409555:	c3                   	retq   

0000000000409556 <sysutil_reopen_standard_fds>:
  409556:	55                   	push   %rbp
  409557:	48 89 e5             	mov    %rsp,%rbp
  40955a:	90                   	nop
  40955b:	5d                   	pop    %rbp
  40955c:	c3                   	retq   

000000000040955d <sysutil_tzset>:
  40955d:	55                   	push   %rbp
  40955e:	48 89 e5             	mov    %rsp,%rbp
  409561:	e8 6a 8e ff ff       	callq  4023d0 <tzset@plt>
  409566:	90                   	nop
  409567:	5d                   	pop    %rbp
  409568:	c3                   	retq   

0000000000409569 <sysutil_get_current_date>:
  409569:	55                   	push   %rbp
  40956a:	48 89 e5             	mov    %rsp,%rbp
  40956d:	48 83 ec 20          	sub    $0x20,%rsp
  409571:	64 48 8b 04 25 28 00 	mov    %fs:0x28,%rax
  409578:	00 00 
  40957a:	48 89 45 f8          	mov    %rax,-0x8(%rbp)
  40957e:	31 c0                	xor    %eax,%eax
  409580:	48 8d 45 e0          	lea    -0x20(%rbp),%rax
  409584:	be 00 00 00 00       	mov    $0x0,%esi
  409589:	48 89 c7             	mov    %rax,%rdi
  40958c:	e8 8f 8c ff ff       	callq  402220 <gettimeofday@plt>
  409591:	48 8d 45 e0          	lea    -0x20(%rbp),%rax
  409595:	48 89 c7             	mov    %rax,%rdi
  409598:	e8 a3 8b ff ff       	callq  402140 <ctime@plt>
  40959d:	48 8b 55 f8          	mov    -0x8(%rbp),%rdx
  4095a1:	64 48 33 14 25 28 00 	xor    %fs:0x28,%rdx
  4095a8:	00 00 
  4095aa:	74 05                	je     4095b1 <sysutil_get_current_date+0x48>
  4095ac:	e8 ef 8b ff ff       	callq  4021a0 <__stack_chk_fail@plt>
  4095b1:	c9                   	leaveq 
  4095b2:	c3                   	retq   

00000000004095b3 <sysutil_qsort>:
  4095b3:	55                   	push   %rbp
  4095b4:	48 89 e5             	mov    %rsp,%rbp
  4095b7:	48 89 7d f8          	mov    %rdi,-0x8(%rbp)
  4095bb:	89 75 f4             	mov    %esi,-0xc(%rbp)
  4095be:	89 55 f0             	mov    %edx,-0x10(%rbp)
  4095c1:	48 89 4d e8          	mov    %rcx,-0x18(%rbp)
  4095c5:	90                   	nop
  4095c6:	5d                   	pop    %rbp
  4095c7:	c3                   	retq   

00000000004095c8 <sysutil_getenv>:
  4095c8:	55                   	push   %rbp
  4095c9:	48 89 e5             	mov    %rsp,%rbp
  4095cc:	48 83 ec 10          	sub    $0x10,%rsp
  4095d0:	48 89 7d f8          	mov    %rdi,-0x8(%rbp)
  4095d4:	48 8b 45 f8          	mov    -0x8(%rbp),%rax
  4095d8:	48 89 c7             	mov    %rax,%rdi
  4095db:	e8 e0 89 ff ff       	callq  401fc0 <getenv@plt>
  4095e0:	c9                   	leaveq 
  4095e1:	c3                   	retq   

00000000004095e2 <sysutil_set_exit_func>:
  4095e2:	55                   	push   %rbp
  4095e3:	48 89 e5             	mov    %rsp,%rbp
  4095e6:	48 83 ec 20          	sub    $0x20,%rsp
  4095ea:	48 89 7d e8          	mov    %rdi,-0x18(%rbp)
  4095ee:	48 8b 45 e8          	mov    -0x18(%rbp),%rax
  4095f2:	48 89 c7             	mov    %rax,%rdi
  4095f5:	e8 96 10 00 00       	callq  40a690 <atexit>
  4095fa:	89 45 fc             	mov    %eax,-0x4(%rbp)
  4095fd:	83 7d fc 00          	cmpl   $0x0,-0x4(%rbp)
  409601:	79 0a                	jns    40960d <sysutil_set_exit_func+0x2b>
  409603:	bf 40 ae 40 00       	mov    $0x40ae40,%edi
  409608:	e8 cd dc ff ff       	callq  4072da <die>
  40960d:	90                   	nop
  40960e:	c9                   	leaveq 
  40960f:	c3                   	retq   

0000000000409610 <sysutil_getuid>:
  409610:	55                   	push   %rbp
  409611:	48 89 e5             	mov    %rsp,%rbp
  409614:	e8 97 8b ff ff       	callq  4021b0 <getuid@plt>
  409619:	5d                   	pop    %rbp
  40961a:	c3                   	retq   

000000000040961b <sysutil_openlog>:
  40961b:	55                   	push   %rbp
  40961c:	48 89 e5             	mov    %rsp,%rbp
  40961f:	48 83 ec 10          	sub    $0x10,%rsp
  409623:	89 7d fc             	mov    %edi,-0x4(%rbp)
  409626:	8b 45 fc             	mov    -0x4(%rbp),%eax
  409629:	89 c2                	mov    %eax,%edx
  40962b:	be 03 00 00 00       	mov    $0x3,%esi
  409630:	bf 47 ae 40 00       	mov    $0x40ae47,%edi
  409635:	e8 b6 8f ff ff       	callq  4025f0 <openlog@plt>
  40963a:	90                   	nop
  40963b:	c9                   	leaveq 
  40963c:	c3                   	retq   

000000000040963d <sysutil_syslog>:
  40963d:	55                   	push   %rbp
  40963e:	48 89 e5             	mov    %rsp,%rbp
  409641:	48 83 ec 10          	sub    $0x10,%rsp
  409645:	48 89 7d f8          	mov    %rdi,-0x8(%rbp)
  409649:	89 75 f4             	mov    %esi,-0xc(%rbp)
  40964c:	48 8b 55 f8          	mov    -0x8(%rbp),%rdx
  409650:	8b 45 f4             	mov    -0xc(%rbp),%eax
  409653:	48 89 d6             	mov    %rdx,%rsi
  409656:	89 c7                	mov    %eax,%edi
  409658:	b8 00 00 00 00       	mov    $0x0,%eax
  40965d:	e8 fe 8d ff ff       	callq  402460 <syslog@plt>
  409662:	90                   	nop
  409663:	c9                   	leaveq 
  409664:	c3                   	retq   

0000000000409665 <sysutil_closelog>:
  409665:	55                   	push   %rbp
  409666:	48 89 e5             	mov    %rsp,%rbp
  409669:	e8 92 89 ff ff       	callq  402000 <closelog@plt>
  40966e:	90                   	nop
  40966f:	5d                   	pop    %rbp
  409670:	c3                   	retq   

0000000000409671 <sysutil_running_as_root>:
  409671:	55                   	push   %rbp
  409672:	48 89 e5             	mov    %rsp,%rbp
  409675:	b8 00 00 00 00       	mov    $0x0,%eax
  40967a:	5d                   	pop    %rbp
  40967b:	c3                   	retq   

000000000040967c <sysutil_setuid>:
  40967c:	55                   	push   %rbp
  40967d:	48 89 e5             	mov    %rsp,%rbp
  409680:	48 83 ec 20          	sub    $0x20,%rsp
  409684:	48 89 7d e8          	mov    %rdi,-0x18(%rbp)
  409688:	48 8b 45 e8          	mov    -0x18(%rbp),%rax
  40968c:	8b 40 10             	mov    0x10(%rax),%eax
  40968f:	89 c7                	mov    %eax,%edi
  409691:	e8 aa 8f ff ff       	callq  402640 <setuid@plt>
  409696:	89 45 fc             	mov    %eax,-0x4(%rbp)
  409699:	83 7d fc 00          	cmpl   $0x0,-0x4(%rbp)
  40969d:	79 0a                	jns    4096a9 <sysutil_setuid+0x2d>
  40969f:	bf 4c ae 40 00       	mov    $0x40ae4c,%edi
  4096a4:	e8 31 dc ff ff       	callq  4072da <die>
  4096a9:	90                   	nop
  4096aa:	c9                   	leaveq 
  4096ab:	c3                   	retq   

00000000004096ac <sysutil_setgid>:
  4096ac:	55                   	push   %rbp
  4096ad:	48 89 e5             	mov    %rsp,%rbp
  4096b0:	48 83 ec 20          	sub    $0x20,%rsp
  4096b4:	48 89 7d e8          	mov    %rdi,-0x18(%rbp)
  4096b8:	48 8b 45 e8          	mov    -0x18(%rbp),%rax
  4096bc:	8b 40 14             	mov    0x14(%rax),%eax
  4096bf:	89 c7                	mov    %eax,%edi
  4096c1:	e8 6a 8e ff ff       	callq  402530 <setgid@plt>
  4096c6:	89 45 fc             	mov    %eax,-0x4(%rbp)
  4096c9:	83 7d fc 00          	cmpl   $0x0,-0x4(%rbp)
  4096cd:	79 0a                	jns    4096d9 <sysutil_setgid+0x2d>
  4096cf:	bf 53 ae 40 00       	mov    $0x40ae53,%edi
  4096d4:	e8 01 dc ff ff       	callq  4072da <die>
  4096d9:	90                   	nop
  4096da:	c9                   	leaveq 
  4096db:	c3                   	retq   

00000000004096dc <sysutil_setuid_numeric>:
  4096dc:	55                   	push   %rbp
  4096dd:	48 89 e5             	mov    %rsp,%rbp
  4096e0:	48 83 ec 20          	sub    $0x20,%rsp
  4096e4:	89 7d ec             	mov    %edi,-0x14(%rbp)
  4096e7:	8b 45 ec             	mov    -0x14(%rbp),%eax
  4096ea:	89 c7                	mov    %eax,%edi
  4096ec:	e8 4f 8f ff ff       	callq  402640 <setuid@plt>
  4096f1:	89 45 fc             	mov    %eax,-0x4(%rbp)
  4096f4:	83 7d fc 00          	cmpl   $0x0,-0x4(%rbp)
  4096f8:	79 0a                	jns    409704 <sysutil_setuid_numeric+0x28>
  4096fa:	bf 4c ae 40 00       	mov    $0x40ae4c,%edi
  4096ff:	e8 d6 db ff ff       	callq  4072da <die>
  409704:	90                   	nop
  409705:	c9                   	leaveq 
  409706:	c3                   	retq   

0000000000409707 <sysutil_setgid_numeric>:
  409707:	55                   	push   %rbp
  409708:	48 89 e5             	mov    %rsp,%rbp
  40970b:	48 83 ec 20          	sub    $0x20,%rsp
  40970f:	89 7d ec             	mov    %edi,-0x14(%rbp)
  409712:	8b 45 ec             	mov    -0x14(%rbp),%eax
  409715:	89 c7                	mov    %eax,%edi
  409717:	e8 14 8e ff ff       	callq  402530 <setgid@plt>
  40971c:	89 45 fc             	mov    %eax,-0x4(%rbp)
  40971f:	83 7d fc 00          	cmpl   $0x0,-0x4(%rbp)
  409723:	79 0a                	jns    40972f <sysutil_setgid_numeric+0x28>
  409725:	bf 5b ae 40 00       	mov    $0x40ae5b,%edi
  40972a:	e8 ab db ff ff       	callq  4072da <die>
  40972f:	90                   	nop
  409730:	c9                   	leaveq 
  409731:	c3                   	retq   

0000000000409732 <sysutil_geteuid>:
  409732:	55                   	push   %rbp
  409733:	48 89 e5             	mov    %rsp,%rbp
  409736:	e8 15 8b ff ff       	callq  402250 <geteuid@plt>
  40973b:	5d                   	pop    %rbp
  40973c:	c3                   	retq   

000000000040973d <sysutil_getegid>:
  40973d:	55                   	push   %rbp
  40973e:	48 89 e5             	mov    %rsp,%rbp
  409741:	e8 4a 8d ff ff       	callq  402490 <getegid@plt>
  409746:	5d                   	pop    %rbp
  409747:	c3                   	retq   

0000000000409748 <sysutil_seteuid>:
  409748:	55                   	push   %rbp
  409749:	48 89 e5             	mov    %rsp,%rbp
  40974c:	48 83 ec 20          	sub    $0x20,%rsp
  409750:	48 89 7d e8          	mov    %rdi,-0x18(%rbp)
  409754:	48 8b 45 e8          	mov    -0x18(%rbp),%rax
  409758:	8b 40 10             	mov    0x10(%rax),%eax
  40975b:	89 c7                	mov    %eax,%edi
  40975d:	e8 7e 8f ff ff       	callq  4026e0 <seteuid@plt>
  409762:	89 45 fc             	mov    %eax,-0x4(%rbp)
  409765:	83 7d fc 00          	cmpl   $0x0,-0x4(%rbp)
  409769:	79 0a                	jns    409775 <sysutil_seteuid+0x2d>
  40976b:	bf 62 ae 40 00       	mov    $0x40ae62,%edi
  409770:	e8 65 db ff ff       	callq  4072da <die>
  409775:	90                   	nop
  409776:	c9                   	leaveq 
  409777:	c3                   	retq   

0000000000409778 <sysutil_setegid>:
  409778:	55                   	push   %rbp
  409779:	48 89 e5             	mov    %rsp,%rbp
  40977c:	48 83 ec 20          	sub    $0x20,%rsp
  409780:	48 89 7d e8          	mov    %rdi,-0x18(%rbp)
  409784:	48 8b 45 e8          	mov    -0x18(%rbp),%rax
  409788:	8b 40 14             	mov    0x14(%rax),%eax
  40978b:	89 c7                	mov    %eax,%edi
  40978d:	e8 fe 8e ff ff       	callq  402690 <setegid@plt>
  409792:	89 45 fc             	mov    %eax,-0x4(%rbp)
  409795:	83 7d fc 00          	cmpl   $0x0,-0x4(%rbp)
  409799:	79 0a                	jns    4097a5 <sysutil_setegid+0x2d>
  40979b:	bf 53 ae 40 00       	mov    $0x40ae53,%edi
  4097a0:	e8 35 db ff ff       	callq  4072da <die>
  4097a5:	90                   	nop
  4097a6:	c9                   	leaveq 
  4097a7:	c3                   	retq   

00000000004097a8 <sysutil_seteuid_numeric>:
  4097a8:	55                   	push   %rbp
  4097a9:	48 89 e5             	mov    %rsp,%rbp
  4097ac:	48 83 ec 20          	sub    $0x20,%rsp
  4097b0:	89 7d ec             	mov    %edi,-0x14(%rbp)
  4097b3:	8b 45 ec             	mov    -0x14(%rbp),%eax
  4097b6:	89 c7                	mov    %eax,%edi
  4097b8:	e8 23 8f ff ff       	callq  4026e0 <seteuid@plt>
  4097bd:	89 45 fc             	mov    %eax,-0x4(%rbp)
  4097c0:	83 7d fc 00          	cmpl   $0x0,-0x4(%rbp)
  4097c4:	79 0a                	jns    4097d0 <sysutil_seteuid_numeric+0x28>
  4097c6:	bf 62 ae 40 00       	mov    $0x40ae62,%edi
  4097cb:	e8 0a db ff ff       	callq  4072da <die>
  4097d0:	90                   	nop
  4097d1:	c9                   	leaveq 
  4097d2:	c3                   	retq   

00000000004097d3 <sysutil_setegid_numeric>:
  4097d3:	55                   	push   %rbp
  4097d4:	48 89 e5             	mov    %rsp,%rbp
  4097d7:	48 83 ec 20          	sub    $0x20,%rsp
  4097db:	89 7d ec             	mov    %edi,-0x14(%rbp)
  4097de:	8b 45 ec             	mov    -0x14(%rbp),%eax
  4097e1:	89 c7                	mov    %eax,%edi
  4097e3:	e8 a8 8e ff ff       	callq  402690 <setegid@plt>
  4097e8:	89 45 fc             	mov    %eax,-0x4(%rbp)
  4097eb:	83 7d fc 00          	cmpl   $0x0,-0x4(%rbp)
  4097ef:	79 0a                	jns    4097fb <sysutil_setegid_numeric+0x28>
  4097f1:	bf 53 ae 40 00       	mov    $0x40ae53,%edi
  4097f6:	e8 df da ff ff       	callq  4072da <die>
  4097fb:	90                   	nop
  4097fc:	c9                   	leaveq 
  4097fd:	c3                   	retq   

00000000004097fe <sysutil_clear_supp_groups>:
  4097fe:	55                   	push   %rbp
  4097ff:	48 89 e5             	mov    %rsp,%rbp
  409802:	90                   	nop
  409803:	5d                   	pop    %rbp
  409804:	c3                   	retq   

0000000000409805 <sysutil_initgroups>:
  409805:	55                   	push   %rbp
  409806:	48 89 e5             	mov    %rsp,%rbp
  409809:	48 89 7d f8          	mov    %rdi,-0x8(%rbp)
  40980d:	90                   	nop
  40980e:	5d                   	pop    %rbp
  40980f:	c3                   	retq   

0000000000409810 <sysutil_chroot>:
  409810:	55                   	push   %rbp
  409811:	48 89 e5             	mov    %rsp,%rbp
  409814:	48 83 ec 20          	sub    $0x20,%rsp
  409818:	48 89 7d e8          	mov    %rdi,-0x18(%rbp)
  40981c:	48 8b 45 e8          	mov    -0x18(%rbp),%rax
  409820:	48 89 c7             	mov    %rax,%rdi
  409823:	e8 28 88 ff ff       	callq  402050 <chroot@plt>
  409828:	89 45 fc             	mov    %eax,-0x4(%rbp)
  40982b:	83 7d fc 00          	cmpl   $0x0,-0x4(%rbp)
  40982f:	79 0a                	jns    40983b <sysutil_chroot+0x2b>
  409831:	bf 6a ae 40 00       	mov    $0x40ae6a,%edi
  409836:	e8 9f da ff ff       	callq  4072da <die>
  40983b:	90                   	nop
  40983c:	c9                   	leaveq 
  40983d:	c3                   	retq   

000000000040983e <sysutil_get_time_sec>:
  40983e:	55                   	push   %rbp
  40983f:	48 89 e5             	mov    %rsp,%rbp
  409842:	48 83 ec 20          	sub    $0x20,%rsp
  409846:	64 48 8b 04 25 28 00 	mov    %fs:0x28,%rax
  40984d:	00 00 
  40984f:	48 89 45 f8          	mov    %rax,-0x8(%rbp)
  409853:	31 c0                	xor    %eax,%eax
  409855:	48 8d 45 e0          	lea    -0x20(%rbp),%rax
  409859:	be 00 00 00 00       	mov    $0x0,%esi
  40985e:	48 89 c7             	mov    %rax,%rdi
  409861:	e8 ba 89 ff ff       	callq  402220 <gettimeofday@plt>
  409866:	48 8b 45 e0          	mov    -0x20(%rbp),%rax
  40986a:	48 8b 55 f8          	mov    -0x8(%rbp),%rdx
  40986e:	64 48 33 14 25 28 00 	xor    %fs:0x28,%rdx
  409875:	00 00 
  409877:	74 05                	je     40987e <sysutil_get_time_sec+0x40>
  409879:	e8 22 89 ff ff       	callq  4021a0 <__stack_chk_fail@plt>
  40987e:	c9                   	leaveq 
  40987f:	c3                   	retq   

0000000000409880 <sysutil_get_time_usec>:
  409880:	55                   	push   %rbp
  409881:	48 89 e5             	mov    %rsp,%rbp
  409884:	48 83 ec 20          	sub    $0x20,%rsp
  409888:	64 48 8b 04 25 28 00 	mov    %fs:0x28,%rax
  40988f:	00 00 
  409891:	48 89 45 f8          	mov    %rax,-0x8(%rbp)
  409895:	31 c0                	xor    %eax,%eax
  409897:	48 8d 45 e0          	lea    -0x20(%rbp),%rax
  40989b:	be 00 00 00 00       	mov    $0x0,%esi
  4098a0:	48 89 c7             	mov    %rax,%rdi
  4098a3:	e8 78 89 ff ff       	callq  402220 <gettimeofday@plt>
  4098a8:	48 8b 45 e8          	mov    -0x18(%rbp),%rax
  4098ac:	48 8b 55 f8          	mov    -0x8(%rbp),%rdx
  4098b0:	64 48 33 14 25 28 00 	xor    %fs:0x28,%rdx
  4098b7:	00 00 
  4098b9:	74 05                	je     4098c0 <sysutil_get_time_usec+0x40>
  4098bb:	e8 e0 88 ff ff       	callq  4021a0 <__stack_chk_fail@plt>
  4098c0:	c9                   	leaveq 
  4098c1:	c3                   	retq   

00000000004098c2 <sysutil_parse_time>:
  4098c2:	55                   	push   %rbp
  4098c3:	48 89 e5             	mov    %rsp,%rbp
  4098c6:	48 89 7d f8          	mov    %rdi,-0x8(%rbp)
  4098ca:	b8 00 00 00 00       	mov    $0x0,%eax
  4098cf:	5d                   	pop    %rbp
  4098d0:	c3                   	retq   

00000000004098d1 <sysutil_sleep>:
  4098d1:	55                   	push   %rbp
  4098d2:	48 89 e5             	mov    %rsp,%rbp
  4098d5:	48 83 ec 10          	sub    $0x10,%rsp
  4098d9:	f2 0f 11 45 f8       	movsd  %xmm0,-0x8(%rbp)
  4098de:	f2 0f 10 45 f8       	movsd  -0x8(%rbp),%xmm0
  4098e3:	f2 48 0f 2c c0       	cvttsd2si %xmm0,%rax
  4098e8:	89 c7                	mov    %eax,%edi
  4098ea:	e8 91 8d ff ff       	callq  402680 <sleep@plt>
  4098ef:	90                   	nop
  4098f0:	c9                   	leaveq 
  4098f1:	c3                   	retq   

00000000004098f2 <sysutil_setmodtime>:
  4098f2:	55                   	push   %rbp
  4098f3:	48 89 e5             	mov    %rsp,%rbp
  4098f6:	48 83 ec 50          	sub    $0x50,%rsp
  4098fa:	48 89 7d c8          	mov    %rdi,-0x38(%rbp)
  4098fe:	48 89 75 c0          	mov    %rsi,-0x40(%rbp)
  409902:	89 55 bc             	mov    %edx,-0x44(%rbp)
  409905:	64 48 8b 04 25 28 00 	mov    %fs:0x28,%rax
  40990c:	00 00 
  40990e:	48 89 45 f8          	mov    %rax,-0x8(%rbp)
  409912:	31 c0                	xor    %eax,%eax
  409914:	83 7d bc 00          	cmpl   $0x0,-0x44(%rbp)
  409918:	74 16                	je     409930 <sysutil_setmodtime+0x3e>
  40991a:	48 8b 45 c8          	mov    -0x38(%rbp),%rax
  40991e:	be 00 00 00 00       	mov    $0x0,%esi
  409923:	48 89 c7             	mov    %rax,%rdi
  409926:	e8 a5 86 ff ff       	callq  401fd0 <utime@plt>
  40992b:	89 45 dc             	mov    %eax,-0x24(%rbp)
  40992e:	eb 1e                	jmp    40994e <sysutil_setmodtime+0x5c>
  409930:	48 8b 45 c0          	mov    -0x40(%rbp),%rax
  409934:	48 89 45 e8          	mov    %rax,-0x18(%rbp)
  409938:	48 8d 55 e0          	lea    -0x20(%rbp),%rdx
  40993c:	48 8b 45 c8          	mov    -0x38(%rbp),%rax
  409940:	48 89 d6             	mov    %rdx,%rsi
  409943:	48 89 c7             	mov    %rax,%rdi
  409946:	e8 85 86 ff ff       	callq  401fd0 <utime@plt>
  40994b:	89 45 dc             	mov    %eax,-0x24(%rbp)
  40994e:	8b 45 dc             	mov    -0x24(%rbp),%eax
  409951:	48 8b 4d f8          	mov    -0x8(%rbp),%rcx
  409955:	64 48 33 0c 25 28 00 	xor    %fs:0x28,%rcx
  40995c:	00 00 
  40995e:	74 05                	je     409965 <sysutil_setmodtime+0x73>
  409960:	e8 3b 88 ff ff       	callq  4021a0 <__stack_chk_fail@plt>
  409965:	c9                   	leaveq 
  409966:	c3                   	retq   

0000000000409967 <sysutil_set_address_space_limit>:
  409967:	55                   	push   %rbp
  409968:	48 89 e5             	mov    %rsp,%rbp
  40996b:	48 89 7d f8          	mov    %rdi,-0x8(%rbp)
  40996f:	90                   	nop
  409970:	5d                   	pop    %rbp
  409971:	c3                   	retq   

0000000000409972 <sysutil_set_no_fds>:
  409972:	55                   	push   %rbp
  409973:	48 89 e5             	mov    %rsp,%rbp
  409976:	48 83 ec 30          	sub    $0x30,%rsp
  40997a:	64 48 8b 04 25 28 00 	mov    %fs:0x28,%rax
  409981:	00 00 
  409983:	48 89 45 f8          	mov    %rax,-0x8(%rbp)
  409987:	31 c0                	xor    %eax,%eax
  409989:	48 c7 45 e0 00 00 00 	movq   $0x0,-0x20(%rbp)
  409990:	00 
  409991:	48 c7 45 e8 00 00 00 	movq   $0x0,-0x18(%rbp)
  409998:	00 
  409999:	48 8d 45 e0          	lea    -0x20(%rbp),%rax
  40999d:	48 89 c6             	mov    %rax,%rsi
  4099a0:	bf 07 00 00 00       	mov    $0x7,%edi
  4099a5:	e8 f6 8a ff ff       	callq  4024a0 <setrlimit@plt>
  4099aa:	89 45 dc             	mov    %eax,-0x24(%rbp)
  4099ad:	83 7d dc 00          	cmpl   $0x0,-0x24(%rbp)
  4099b1:	79 0a                	jns    4099bd <sysutil_set_no_fds+0x4b>
  4099b3:	bf 71 ae 40 00       	mov    $0x40ae71,%edi
  4099b8:	e8 1d d9 ff ff       	callq  4072da <die>
  4099bd:	90                   	nop
  4099be:	48 8b 45 f8          	mov    -0x8(%rbp),%rax
  4099c2:	64 48 33 04 25 28 00 	xor    %fs:0x28,%rax
  4099c9:	00 00 
  4099cb:	74 05                	je     4099d2 <sysutil_set_no_fds+0x60>
  4099cd:	e8 ce 87 ff ff       	callq  4021a0 <__stack_chk_fail@plt>
  4099d2:	c9                   	leaveq 
  4099d3:	c3                   	retq   

00000000004099d4 <sysutil_set_no_procs>:
  4099d4:	55                   	push   %rbp
  4099d5:	48 89 e5             	mov    %rsp,%rbp
  4099d8:	48 83 ec 30          	sub    $0x30,%rsp
  4099dc:	64 48 8b 04 25 28 00 	mov    %fs:0x28,%rax
  4099e3:	00 00 
  4099e5:	48 89 45 f8          	mov    %rax,-0x8(%rbp)
  4099e9:	31 c0                	xor    %eax,%eax
  4099eb:	48 c7 45 e0 00 00 00 	movq   $0x0,-0x20(%rbp)
  4099f2:	00 
  4099f3:	48 c7 45 e8 00 00 00 	movq   $0x0,-0x18(%rbp)
  4099fa:	00 
  4099fb:	48 8d 45 e0          	lea    -0x20(%rbp),%rax
  4099ff:	48 89 c6             	mov    %rax,%rsi
  409a02:	bf 06 00 00 00       	mov    $0x6,%edi
  409a07:	e8 94 8a ff ff       	callq  4024a0 <setrlimit@plt>
  409a0c:	89 45 dc             	mov    %eax,-0x24(%rbp)
  409a0f:	83 7d dc 00          	cmpl   $0x0,-0x24(%rbp)
  409a13:	79 0a                	jns    409a1f <sysutil_set_no_procs+0x4b>
  409a15:	bf 71 ae 40 00       	mov    $0x40ae71,%edi
  409a1a:	e8 bb d8 ff ff       	callq  4072da <die>
  409a1f:	90                   	nop
  409a20:	48 8b 45 f8          	mov    -0x8(%rbp),%rax
  409a24:	64 48 33 04 25 28 00 	xor    %fs:0x28,%rax
  409a2b:	00 00 
  409a2d:	74 05                	je     409a34 <sysutil_set_no_procs+0x60>
  409a2f:	e8 6c 87 ff ff       	callq  4021a0 <__stack_chk_fail@plt>
  409a34:	c9                   	leaveq 
  409a35:	c3                   	retq   

0000000000409a36 <sysutil_set_sockopt>:
  409a36:	55                   	push   %rbp
  409a37:	48 89 e5             	mov    %rsp,%rbp
  409a3a:	48 83 ec 10          	sub    $0x10,%rsp
  409a3e:	89 7d fc             	mov    %edi,-0x4(%rbp)
  409a41:	8b 45 fc             	mov    -0x4(%rbp),%eax
  409a44:	89 c7                	mov    %eax,%edi
  409a46:	e8 87 f6 ff ff       	callq  4090d2 <sysutil_set_nodelay>
  409a4b:	8b 45 fc             	mov    -0x4(%rbp),%eax
  409a4e:	89 c7                	mov    %eax,%edi
  409a50:	e8 59 f5 ff ff       	callq  408fae <sysutil_activate_keepalive>
  409a55:	8b 45 fc             	mov    -0x4(%rbp),%eax
  409a58:	89 c7                	mov    %eax,%edi
  409a5a:	e8 dd f6 ff ff       	callq  40913c <sysutil_activate_oobinline>
  409a5f:	90                   	nop
  409a60:	c9                   	leaveq 
  409a61:	c3                   	retq   

0000000000409a62 <sysutil_clear_fd>:
  409a62:	55                   	push   %rbp
  409a63:	48 89 e5             	mov    %rsp,%rbp
  409a66:	48 83 ec 10          	sub    $0x10,%rsp
  409a6a:	be 02 00 00 00       	mov    $0x2,%esi
  409a6f:	bf 7b ae 40 00       	mov    $0x40ae7b,%edi
  409a74:	b8 00 00 00 00       	mov    $0x0,%eax
  409a79:	e8 e2 8a ff ff       	callq  402560 <open@plt>
  409a7e:	89 45 fc             	mov    %eax,-0x4(%rbp)
  409a81:	83 7d fc 00          	cmpl   $0x0,-0x4(%rbp)
  409a85:	79 0a                	jns    409a91 <sysutil_clear_fd+0x2f>
  409a87:	bf 01 00 00 00       	mov    $0x1,%edi
  409a8c:	e8 af e5 ff ff       	callq  408040 <sysutil_exit>
  409a91:	8b 45 fc             	mov    -0x4(%rbp),%eax
  409a94:	be 00 00 00 00       	mov    $0x0,%esi
  409a99:	89 c7                	mov    %eax,%edi
  409a9b:	e8 c6 dd ff ff       	callq  407866 <sysutil_dupfd2>
  409aa0:	8b 45 fc             	mov    -0x4(%rbp),%eax
  409aa3:	be 01 00 00 00       	mov    $0x1,%esi
  409aa8:	89 c7                	mov    %eax,%edi
  409aaa:	e8 b7 dd ff ff       	callq  407866 <sysutil_dupfd2>
  409aaf:	8b 45 fc             	mov    -0x4(%rbp),%eax
  409ab2:	be 02 00 00 00       	mov    $0x2,%esi
  409ab7:	89 c7                	mov    %eax,%edi
  409ab9:	e8 a8 dd ff ff       	callq  407866 <sysutil_dupfd2>
  409abe:	83 7d fc 02          	cmpl   $0x2,-0x4(%rbp)
  409ac2:	7e 0a                	jle    409ace <sysutil_clear_fd+0x6c>
  409ac4:	8b 45 fc             	mov    -0x4(%rbp),%eax
  409ac7:	89 c7                	mov    %eax,%edi
  409ac9:	e8 cb dd ff ff       	callq  407899 <sysutil_close>
  409ace:	90                   	nop
  409acf:	c9                   	leaveq 
  409ad0:	c3                   	retq   

0000000000409ad1 <sysutil_uname>:
  409ad1:	55                   	push   %rbp
  409ad2:	48 89 e5             	mov    %rsp,%rbp
  409ad5:	48 81 ec 90 01 00 00 	sub    $0x190,%rsp
  409adc:	64 48 8b 04 25 28 00 	mov    %fs:0x28,%rax
  409ae3:	00 00 
  409ae5:	48 89 45 f8          	mov    %rax,-0x8(%rbp)
  409ae9:	31 c0                	xor    %eax,%eax
  409aeb:	48 8d 85 70 fe ff ff 	lea    -0x190(%rbp),%rax
  409af2:	48 89 c7             	mov    %rax,%rdi
  409af5:	e8 06 87 ff ff       	callq  402200 <uname@plt>
  409afa:	85 c0                	test   %eax,%eax
  409afc:	79 0a                	jns    409b08 <sysutil_uname+0x37>
  409afe:	bf 85 ae 40 00       	mov    $0x40ae85,%edi
  409b03:	e8 d2 d7 ff ff       	callq  4072da <die>
  409b08:	b8 00 00 00 00       	mov    $0x0,%eax
  409b0d:	48 8b 55 f8          	mov    -0x8(%rbp),%rdx
  409b11:	64 48 33 14 25 28 00 	xor    %fs:0x28,%rdx
  409b18:	00 00 
  409b1a:	74 05                	je     409b21 <sysutil_uname+0x50>
  409b1c:	e8 7f 86 ff ff       	callq  4021a0 <__stack_chk_fail@plt>
  409b21:	c9                   	leaveq 
  409b22:	c3                   	retq   

0000000000409b23 <sysutil_sendfd>:
  409b23:	55                   	push   %rbp
  409b24:	48 89 e5             	mov    %rsp,%rbp
  409b27:	48 81 ec 90 00 00 00 	sub    $0x90,%rsp
  409b2e:	89 bd 7c ff ff ff    	mov    %edi,-0x84(%rbp)
  409b34:	89 b5 78 ff ff ff    	mov    %esi,-0x88(%rbp)
  409b3a:	64 48 8b 04 25 28 00 	mov    %fs:0x28,%rax
  409b41:	00 00 
  409b43:	48 89 45 f8          	mov    %rax,-0x8(%rbp)
  409b47:	31 c0                	xor    %eax,%eax
  409b49:	48 c7 45 80 00 00 00 	movq   $0x0,-0x80(%rbp)
  409b50:	00 
  409b51:	48 c7 45 88 00 00 00 	movq   $0x0,-0x78(%rbp)
  409b58:	00 
  409b59:	48 8d 45 e0          	lea    -0x20(%rbp),%rax
  409b5d:	48 89 45 c0          	mov    %rax,-0x40(%rbp)
  409b61:	48 c7 45 c8 18 00 00 	movq   $0x18,-0x38(%rbp)
  409b68:	00 
  409b69:	48 8d 45 90          	lea    -0x70(%rbp),%rax
  409b6d:	48 89 45 b0          	mov    %rax,-0x50(%rbp)
  409b71:	48 c7 45 b8 01 00 00 	movq   $0x1,-0x48(%rbp)
  409b78:	00 
  409b79:	48 c7 45 a0 00 00 00 	movq   $0x0,-0x60(%rbp)
  409b80:	00 
  409b81:	c7 45 a8 00 00 00 00 	movl   $0x0,-0x58(%rbp)
  409b88:	c7 45 d0 00 00 00 00 	movl   $0x0,-0x30(%rbp)
  409b8f:	48 8b 45 c8          	mov    -0x38(%rbp),%rax
  409b93:	48 83 f8 0f          	cmp    $0xf,%rax
  409b97:	76 06                	jbe    409b9f <sysutil_sendfd+0x7c>
  409b99:	48 8b 45 c0          	mov    -0x40(%rbp),%rax
  409b9d:	eb 05                	jmp    409ba4 <sysutil_sendfd+0x81>
  409b9f:	b8 00 00 00 00       	mov    $0x0,%eax
  409ba4:	48 89 45 80          	mov    %rax,-0x80(%rbp)
  409ba8:	48 8b 45 80          	mov    -0x80(%rbp),%rax
  409bac:	c7 40 08 01 00 00 00 	movl   $0x1,0x8(%rax)
  409bb3:	48 8b 45 80          	mov    -0x80(%rbp),%rax
  409bb7:	c7 40 0c 01 00 00 00 	movl   $0x1,0xc(%rax)
  409bbe:	48 8b 45 80          	mov    -0x80(%rbp),%rax
  409bc2:	48 c7 00 14 00 00 00 	movq   $0x14,(%rax)
  409bc9:	48 8b 45 80          	mov    -0x80(%rbp),%rax
  409bcd:	48 83 c0 10          	add    $0x10,%rax
  409bd1:	48 89 45 88          	mov    %rax,-0x78(%rbp)
  409bd5:	48 8b 45 88          	mov    -0x78(%rbp),%rax
  409bd9:	8b 95 78 ff ff ff    	mov    -0x88(%rbp),%edx
  409bdf:	89 10                	mov    %edx,(%rax)
  409be1:	48 8d 4d a0          	lea    -0x60(%rbp),%rcx
  409be5:	8b 85 7c ff ff ff    	mov    -0x84(%rbp),%eax
  409beb:	ba 00 00 00 00       	mov    $0x0,%edx
  409bf0:	48 89 ce             	mov    %rcx,%rsi
  409bf3:	89 c7                	mov    %eax,%edi
  409bf5:	e8 76 84 ff ff       	callq  402070 <sendmsg@plt>
  409bfa:	48 85 c0             	test   %rax,%rax
  409bfd:	79 0a                	jns    409c09 <sysutil_sendfd+0xe6>
  409bff:	bf 8b ae 40 00       	mov    $0x40ae8b,%edi
  409c04:	e8 d1 d6 ff ff       	callq  4072da <die>
  409c09:	90                   	nop
  409c0a:	48 8b 45 f8          	mov    -0x8(%rbp),%rax
  409c0e:	64 48 33 04 25 28 00 	xor    %fs:0x28,%rax
  409c15:	00 00 
  409c17:	74 05                	je     409c1e <sysutil_sendfd+0xfb>
  409c19:	e8 82 85 ff ff       	callq  4021a0 <__stack_chk_fail@plt>
  409c1e:	c9                   	leaveq 
  409c1f:	c3                   	retq   

0000000000409c20 <sysutil_recvfd>:
  409c20:	55                   	push   %rbp
  409c21:	48 89 e5             	mov    %rsp,%rbp
  409c24:	48 81 ec b0 00 00 00 	sub    $0xb0,%rsp
  409c2b:	89 bd 5c ff ff ff    	mov    %edi,-0xa4(%rbp)
  409c31:	48 89 b5 50 ff ff ff 	mov    %rsi,-0xb0(%rbp)
  409c38:	64 48 8b 04 25 28 00 	mov    %fs:0x28,%rax
  409c3f:	00 00 
  409c41:	48 89 45 f8          	mov    %rax,-0x8(%rbp)
  409c45:	31 c0                	xor    %eax,%eax
  409c47:	48 c7 85 68 ff ff ff 	movq   $0x0,-0x98(%rbp)
  409c4e:	00 00 00 00 
  409c52:	48 8d 85 67 ff ff ff 	lea    -0x99(%rbp),%rax
  409c59:	48 89 85 70 ff ff ff 	mov    %rax,-0x90(%rbp)
  409c60:	48 c7 85 78 ff ff ff 	movq   $0x1,-0x88(%rbp)
  409c67:	01 00 00 00 
  409c6b:	48 8d 45 e0          	lea    -0x20(%rbp),%rax
  409c6f:	48 89 45 a0          	mov    %rax,-0x60(%rbp)
  409c73:	48 c7 45 a8 18 00 00 	movq   $0x18,-0x58(%rbp)
  409c7a:	00 
  409c7b:	48 8d 85 70 ff ff ff 	lea    -0x90(%rbp),%rax
  409c82:	48 89 45 90          	mov    %rax,-0x70(%rbp)
  409c86:	48 c7 45 98 01 00 00 	movq   $0x1,-0x68(%rbp)
  409c8d:	00 
  409c8e:	48 c7 45 80 00 00 00 	movq   $0x0,-0x80(%rbp)
  409c95:	00 
  409c96:	c7 45 88 00 00 00 00 	movl   $0x0,-0x78(%rbp)
  409c9d:	c7 45 b0 00 00 00 00 	movl   $0x0,-0x50(%rbp)
  409ca4:	48 8d 4d 80          	lea    -0x80(%rbp),%rcx
  409ca8:	8b 85 5c ff ff ff    	mov    -0xa4(%rbp),%eax
  409cae:	ba 00 00 00 00       	mov    $0x0,%edx
  409cb3:	48 89 ce             	mov    %rcx,%rsi
  409cb6:	89 c7                	mov    %eax,%edi
  409cb8:	e8 13 88 ff ff       	callq  4024d0 <recvmsg@plt>
  409cbd:	48 85 c0             	test   %rax,%rax
  409cc0:	79 0a                	jns    409ccc <sysutil_recvfd+0xac>
  409cc2:	bf 8b ae 40 00       	mov    $0x40ae8b,%edi
  409cc7:	e8 0e d6 ff ff       	callq  4072da <die>
  409ccc:	48 8b 45 a8          	mov    -0x58(%rbp),%rax
  409cd0:	48 83 f8 0f          	cmp    $0xf,%rax
  409cd4:	76 06                	jbe    409cdc <sysutil_recvfd+0xbc>
  409cd6:	48 8b 45 a0          	mov    -0x60(%rbp),%rax
  409cda:	eb 05                	jmp    409ce1 <sysutil_recvfd+0xc1>
  409cdc:	b8 00 00 00 00       	mov    $0x0,%eax
  409ce1:	48 89 85 68 ff ff ff 	mov    %rax,-0x98(%rbp)
  409ce8:	eb 4a                	jmp    409d34 <sysutil_recvfd+0x114>
  409cea:	48 8b 85 68 ff ff ff 	mov    -0x98(%rbp),%rax
  409cf1:	8b 40 08             	mov    0x8(%rax),%eax
  409cf4:	83 f8 01             	cmp    $0x1,%eax
  409cf7:	75 25                	jne    409d1e <sysutil_recvfd+0xfe>
  409cf9:	48 8b 85 68 ff ff ff 	mov    -0x98(%rbp),%rax
  409d00:	8b 40 0c             	mov    0xc(%rax),%eax
  409d03:	83 f8 01             	cmp    $0x1,%eax
  409d06:	75 16                	jne    409d1e <sysutil_recvfd+0xfe>
  409d08:	48 8b 85 68 ff ff ff 	mov    -0x98(%rbp),%rax
  409d0f:	48 83 c0 10          	add    $0x10,%rax
  409d13:	8b 10                	mov    (%rax),%edx
  409d15:	48 8b 85 50 ff ff ff 	mov    -0xb0(%rbp),%rax
  409d1c:	89 10                	mov    %edx,(%rax)
  409d1e:	48 8b 95 68 ff ff ff 	mov    -0x98(%rbp),%rdx
  409d25:	48 8d 45 80          	lea    -0x80(%rbp),%rax
  409d29:	48 89 d6             	mov    %rdx,%rsi
  409d2c:	48 89 c7             	mov    %rax,%rdi
  409d2f:	e8 1c 89 ff ff       	callq  402650 <__cmsg_nxthdr@plt>
  409d34:	48 83 bd 68 ff ff ff 	cmpq   $0x0,-0x98(%rbp)
  409d3b:	00 
  409d3c:	75 ac                	jne    409cea <sysutil_recvfd+0xca>
  409d3e:	90                   	nop
  409d3f:	48 8b 45 f8          	mov    -0x8(%rbp),%rax
  409d43:	64 48 33 04 25 28 00 	xor    %fs:0x28,%rax
  409d4a:	00 00 
  409d4c:	74 05                	je     409d53 <sysutil_recvfd+0x133>
  409d4e:	e8 4d 84 ff ff       	callq  4021a0 <__stack_chk_fail@plt>
  409d53:	c9                   	leaveq 
  409d54:	c3                   	retq   

0000000000409d55 <sysutil_prctl>:
  409d55:	55                   	push   %rbp
  409d56:	48 89 e5             	mov    %rsp,%rbp
  409d59:	48 83 ec 20          	sub    $0x20,%rsp
  409d5d:	89 7d ec             	mov    %edi,-0x14(%rbp)
  409d60:	8b 45 ec             	mov    -0x14(%rbp),%eax
  409d63:	be 01 00 00 00       	mov    $0x1,%esi
  409d68:	89 c7                	mov    %eax,%edi
  409d6a:	b8 00 00 00 00       	mov    $0x0,%eax
  409d6f:	e8 3c 86 ff ff       	callq  4023b0 <prctl@plt>
  409d74:	89 45 fc             	mov    %eax,-0x4(%rbp)
  409d77:	83 7d fc 00          	cmpl   $0x0,-0x4(%rbp)
  409d7b:	79 0a                	jns    409d87 <sysutil_prctl+0x32>
  409d7d:	bf 93 ae 40 00       	mov    $0x40ae93,%edi
  409d82:	e8 53 d5 ff ff       	callq  4072da <die>
  409d87:	90                   	nop
  409d88:	c9                   	leaveq 
  409d89:	c3                   	retq   

0000000000409d8a <sysutil_capnetbind>:
  409d8a:	55                   	push   %rbp
  409d8b:	48 89 e5             	mov    %rsp,%rbp
  409d8e:	48 83 ec 20          	sub    $0x20,%rsp
  409d92:	64 48 8b 04 25 28 00 	mov    %fs:0x28,%rax
  409d99:	00 00 
  409d9b:	48 89 45 f8          	mov    %rax,-0x8(%rbp)
  409d9f:	31 c0                	xor    %eax,%eax
  409da1:	e8 3a 86 ff ff       	callq  4023e0 <cap_init@plt>
  409da6:	48 89 45 f0          	mov    %rax,-0x10(%rbp)
  409daa:	c7 45 e8 0a 00 00 00 	movl   $0xa,-0x18(%rbp)
  409db1:	c7 45 ec 01 00 00 00 	movl   $0x1,-0x14(%rbp)
  409db8:	bf 0a 00 00 00       	mov    $0xa,%edi
  409dbd:	e8 9e 84 ff ff       	callq  402260 <cap_get_bound@plt>
  409dc2:	85 c0                	test   %eax,%eax
  409dc4:	79 0a                	jns    409dd0 <sysutil_capnetbind+0x46>
  409dc6:	bf a0 ae 40 00       	mov    $0x40aea0,%edi
  409dcb:	e8 0a d5 ff ff       	callq  4072da <die>
  409dd0:	8b 55 ec             	mov    -0x14(%rbp),%edx
  409dd3:	48 8d 4d e8          	lea    -0x18(%rbp),%rcx
  409dd7:	48 8b 45 f0          	mov    -0x10(%rbp),%rax
  409ddb:	41 b8 01 00 00 00    	mov    $0x1,%r8d
  409de1:	be 00 00 00 00       	mov    $0x0,%esi
  409de6:	48 89 c7             	mov    %rax,%rdi
  409de9:	e8 22 88 ff ff       	callq  402610 <cap_set_flag@plt>
  409dee:	8b 55 ec             	mov    -0x14(%rbp),%edx
  409df1:	48 8d 4d e8          	lea    -0x18(%rbp),%rcx
  409df5:	48 8b 45 f0          	mov    -0x10(%rbp),%rax
  409df9:	41 b8 01 00 00 00    	mov    $0x1,%r8d
  409dff:	be 02 00 00 00       	mov    $0x2,%esi
  409e04:	48 89 c7             	mov    %rax,%rdi
  409e07:	e8 04 88 ff ff       	callq  402610 <cap_set_flag@plt>
  409e0c:	8b 55 ec             	mov    -0x14(%rbp),%edx
  409e0f:	48 8d 4d e8          	lea    -0x18(%rbp),%rcx
  409e13:	48 8b 45 f0          	mov    -0x10(%rbp),%rax
  409e17:	41 b8 01 00 00 00    	mov    $0x1,%r8d
  409e1d:	be 01 00 00 00       	mov    $0x1,%esi
  409e22:	48 89 c7             	mov    %rax,%rdi
  409e25:	e8 e6 87 ff ff       	callq  402610 <cap_set_flag@plt>
  409e2a:	85 c0                	test   %eax,%eax
  409e2c:	79 0a                	jns    409e38 <sysutil_capnetbind+0xae>
  409e2e:	bf c3 ae 40 00       	mov    $0x40aec3,%edi
  409e33:	e8 a2 d4 ff ff       	callq  4072da <die>
  409e38:	48 8b 45 f0          	mov    -0x10(%rbp),%rax
  409e3c:	48 89 c7             	mov    %rax,%rdi
  409e3f:	e8 ec 84 ff ff       	callq  402330 <cap_set_proc@plt>
  409e44:	85 c0                	test   %eax,%eax
  409e46:	79 0a                	jns    409e52 <sysutil_capnetbind+0xc8>
  409e48:	bf d0 ae 40 00       	mov    $0x40aed0,%edi
  409e4d:	e8 88 d4 ff ff       	callq  4072da <die>
  409e52:	48 8b 45 f0          	mov    -0x10(%rbp),%rax
  409e56:	48 89 c7             	mov    %rax,%rdi
  409e59:	e8 42 87 ff ff       	callq  4025a0 <cap_free@plt>
  409e5e:	90                   	nop
  409e5f:	48 8b 45 f8          	mov    -0x8(%rbp),%rax
  409e63:	64 48 33 04 25 28 00 	xor    %fs:0x28,%rax
  409e6a:	00 00 
  409e6c:	74 05                	je     409e73 <sysutil_capnetbind+0xe9>
  409e6e:	e8 2d 83 ff ff       	callq  4021a0 <__stack_chk_fail@plt>
  409e73:	c9                   	leaveq 
  409e74:	c3                   	retq   

0000000000409e75 <sysutil_localnet_ipaddress>:
  409e75:	55                   	push   %rbp
  409e76:	48 89 e5             	mov    %rsp,%rbp
  409e79:	48 83 ec 30          	sub    $0x30,%rsp
  409e7d:	48 89 7d d8          	mov    %rdi,-0x28(%rbp)
  409e81:	64 48 8b 04 25 28 00 	mov    %fs:0x28,%rax
  409e88:	00 00 
  409e8a:	48 89 45 f8          	mov    %rax,-0x8(%rbp)
  409e8e:	31 c0                	xor    %eax,%eax
  409e90:	48 c7 45 e0 00 00 00 	movq   $0x0,-0x20(%rbp)
  409e97:	00 
  409e98:	48 c7 45 e8 00 00 00 	movq   $0x0,-0x18(%rbp)
  409e9f:	00 
  409ea0:	48 8b 45 d8          	mov    -0x28(%rbp),%rax
  409ea4:	48 8b 00             	mov    (%rax),%rax
  409ea7:	48 83 c0 04          	add    $0x4,%rax
  409eab:	48 89 c7             	mov    %rax,%rdi
  409eae:	e8 6d f5 ff ff       	callq  409420 <sysutil_inet_ntoa>
  409eb3:	48 89 45 f0          	mov    %rax,-0x10(%rbp)
  409eb7:	48 8b 45 f0          	mov    -0x10(%rbp),%rax
  409ebb:	be dd ae 40 00       	mov    $0x40aedd,%esi
  409ec0:	48 89 c7             	mov    %rax,%rdi
  409ec3:	e8 c3 e3 ff ff       	callq  40828b <sysutil_strcmp>
  409ec8:	85 c0                	test   %eax,%eax
  409eca:	75 06                	jne    409ed2 <sysutil_localnet_ipaddress+0x5d>
  409ecc:	48 8b 45 f0          	mov    -0x10(%rbp),%rax
  409ed0:	eb 74                	jmp    409f46 <sysutil_localnet_ipaddress+0xd1>
  409ed2:	48 8d 45 e0          	lea    -0x20(%rbp),%rax
  409ed6:	48 89 c7             	mov    %rax,%rdi
  409ed9:	e8 72 85 ff ff       	callq  402450 <getifaddrs@plt>
  409ede:	85 c0                	test   %eax,%eax
  409ee0:	74 07                	je     409ee9 <sysutil_localnet_ipaddress+0x74>
  409ee2:	b8 00 00 00 00       	mov    $0x0,%eax
  409ee7:	eb 5d                	jmp    409f46 <sysutil_localnet_ipaddress+0xd1>
  409ee9:	48 8b 45 e0          	mov    -0x20(%rbp),%rax
  409eed:	48 89 45 e8          	mov    %rax,-0x18(%rbp)
  409ef1:	eb 4c                	jmp    409f3f <sysutil_localnet_ipaddress+0xca>
  409ef3:	48 8b 45 e8          	mov    -0x18(%rbp),%rax
  409ef7:	48 8b 40 08          	mov    0x8(%rax),%rax
  409efb:	be e7 ae 40 00       	mov    $0x40aee7,%esi
  409f00:	48 89 c7             	mov    %rax,%rdi
  409f03:	e8 83 e3 ff ff       	callq  40828b <sysutil_strcmp>
  409f08:	85 c0                	test   %eax,%eax
  409f0a:	74 27                	je     409f33 <sysutil_localnet_ipaddress+0xbe>
  409f0c:	48 8b 45 e8          	mov    -0x18(%rbp),%rax
  409f10:	48 8b 40 18          	mov    0x18(%rax),%rax
  409f14:	0f b7 00             	movzwl (%rax),%eax
  409f17:	66 83 f8 02          	cmp    $0x2,%ax
  409f1b:	75 17                	jne    409f34 <sysutil_localnet_ipaddress+0xbf>
  409f1d:	48 8b 45 e8          	mov    -0x18(%rbp),%rax
  409f21:	48 8b 40 18          	mov    0x18(%rax),%rax
  409f25:	48 83 c0 04          	add    $0x4,%rax
  409f29:	48 89 c7             	mov    %rax,%rdi
  409f2c:	e8 ef f4 ff ff       	callq  409420 <sysutil_inet_ntoa>
  409f31:	eb 13                	jmp    409f46 <sysutil_localnet_ipaddress+0xd1>
  409f33:	90                   	nop
  409f34:	48 8b 45 e8          	mov    -0x18(%rbp),%rax
  409f38:	48 8b 00             	mov    (%rax),%rax
  409f3b:	48 89 45 e8          	mov    %rax,-0x18(%rbp)
  409f3f:	48 83 7d e8 00       	cmpq   $0x0,-0x18(%rbp)
  409f44:	75 ad                	jne    409ef3 <sysutil_localnet_ipaddress+0x7e>
  409f46:	48 8b 55 f8          	mov    -0x8(%rbp),%rdx
  409f4a:	64 48 33 14 25 28 00 	xor    %fs:0x28,%rdx
  409f51:	00 00 
  409f53:	74 05                	je     409f5a <sysutil_localnet_ipaddress+0xe5>
  409f55:	e8 46 82 ff ff       	callq  4021a0 <__stack_chk_fail@plt>
  409f5a:	c9                   	leaveq 
  409f5b:	c3                   	retq   

0000000000409f5c <twoprogress>:
  409f5c:	55                   	push   %rbp
  409f5d:	48 89 e5             	mov    %rsp,%rbp
  409f60:	48 83 ec 20          	sub    $0x20,%rsp
  409f64:	48 89 7d e8          	mov    %rdi,-0x18(%rbp)
  409f68:	48 8b 45 e8          	mov    -0x18(%rbp),%rax
  409f6c:	48 89 c7             	mov    %rax,%rdi
  409f6f:	b8 00 00 00 00       	mov    $0x0,%eax
  409f74:	e8 75 00 00 00       	callq  409fee <set_private_unix_socket>
  409f79:	ba f0 ae 40 00       	mov    $0x40aef0,%edx
  409f7e:	be dc 00 00 00       	mov    $0xdc,%esi
  409f83:	bf 00 00 00 00       	mov    $0x0,%edi
  409f88:	e8 45 8a ff ff       	callq  4029d2 <write_cmd_respond>
  409f8d:	e8 69 e0 ff ff       	callq  407ffb <sysutil_fork>
  409f92:	89 45 fc             	mov    %eax,-0x4(%rbp)
  409f95:	83 7d fc 00          	cmpl   $0x0,-0x4(%rbp)
  409f99:	74 2e                	je     409fc9 <twoprogress+0x6d>
  409f9b:	bf 03 00 00 00       	mov    $0x3,%edi
  409fa0:	e8 7a d3 ff ff       	callq  40731f <sysutil_install_null_sighandler>
  409fa5:	bf 04 00 00 00       	mov    $0x4,%edi
  409faa:	e8 70 d3 ff ff       	callq  40731f <sysutil_install_null_sighandler>
  409faf:	48 8b 45 e8          	mov    -0x18(%rbp),%rax
  409fb3:	48 89 c7             	mov    %rax,%rdi
  409fb6:	e8 93 00 00 00       	callq  40a04e <close_child_context>
  409fbb:	48 8b 45 e8          	mov    -0x18(%rbp),%rax
  409fbf:	48 89 c7             	mov    %rax,%rdi
  409fc2:	e8 80 01 00 00       	callq  40a147 <deal_private_req>
  409fc7:	eb f2                	jmp    409fbb <twoprogress+0x5f>
  409fc9:	48 8b 45 e8          	mov    -0x18(%rbp),%rax
  409fcd:	48 89 c7             	mov    %rax,%rdi
  409fd0:	e8 4b 00 00 00       	callq  40a020 <close_parent_context>
  409fd5:	b8 00 00 00 00       	mov    $0x0,%eax
  409fda:	e8 9d 00 00 00       	callq  40a07c <del_privilege>
  409fdf:	48 8b 45 e8          	mov    -0x18(%rbp),%rax
  409fe3:	48 89 c7             	mov    %rax,%rdi
  409fe6:	e8 d7 b2 ff ff       	callq  4052c2 <init_connection>
  409feb:	90                   	nop
  409fec:	c9                   	leaveq 
  409fed:	c3                   	retq   

0000000000409fee <set_private_unix_socket>:
  409fee:	55                   	push   %rbp
  409fef:	48 89 e5             	mov    %rsp,%rbp
  409ff2:	48 83 ec 20          	sub    $0x20,%rsp
  409ff6:	48 89 7d e8          	mov    %rdi,-0x18(%rbp)
  409ffa:	e8 d6 e7 ff ff       	callq  4087d5 <sysutil_unix_stream_socketpair>
  409fff:	48 89 45 f0          	mov    %rax,-0x10(%rbp)
  40a003:	8b 55 f0             	mov    -0x10(%rbp),%edx
  40a006:	48 8b 45 e8          	mov    -0x18(%rbp),%rax
  40a00a:	89 90 14 01 00 00    	mov    %edx,0x114(%rax)
  40a010:	8b 55 f4             	mov    -0xc(%rbp),%edx
  40a013:	48 8b 45 e8          	mov    -0x18(%rbp),%rax
  40a017:	89 90 10 01 00 00    	mov    %edx,0x110(%rax)
  40a01d:	90                   	nop
  40a01e:	c9                   	leaveq 
  40a01f:	c3                   	retq   

000000000040a020 <close_parent_context>:
  40a020:	55                   	push   %rbp
  40a021:	48 89 e5             	mov    %rsp,%rbp
  40a024:	48 83 ec 10          	sub    $0x10,%rsp
  40a028:	48 89 7d f8          	mov    %rdi,-0x8(%rbp)
  40a02c:	48 8b 45 f8          	mov    -0x8(%rbp),%rax
  40a030:	8b 80 10 01 00 00    	mov    0x110(%rax),%eax
  40a036:	89 c7                	mov    %eax,%edi
  40a038:	e8 5c d8 ff ff       	callq  407899 <sysutil_close>
  40a03d:	48 8b 45 f8          	mov    -0x8(%rbp),%rax
  40a041:	c7 80 10 01 00 00 ff 	movl   $0xffffffff,0x110(%rax)
  40a048:	ff ff ff 
  40a04b:	90                   	nop
  40a04c:	c9                   	leaveq 
  40a04d:	c3                   	retq   

000000000040a04e <close_child_context>:
  40a04e:	55                   	push   %rbp
  40a04f:	48 89 e5             	mov    %rsp,%rbp
  40a052:	48 83 ec 10          	sub    $0x10,%rsp
  40a056:	48 89 7d f8          	mov    %rdi,-0x8(%rbp)
  40a05a:	48 8b 45 f8          	mov    -0x8(%rbp),%rax
  40a05e:	8b 80 14 01 00 00    	mov    0x114(%rax),%eax
  40a064:	89 c7                	mov    %eax,%edi
  40a066:	e8 2e d8 ff ff       	callq  407899 <sysutil_close>
  40a06b:	48 8b 45 f8          	mov    -0x8(%rbp),%rax
  40a06f:	c7 80 14 01 00 00 ff 	movl   $0xffffffff,0x114(%rax)
  40a076:	ff ff ff 
  40a079:	90                   	nop
  40a07a:	c9                   	leaveq 
  40a07b:	c3                   	retq   

000000000040a07c <del_privilege>:
  40a07c:	55                   	push   %rbp
  40a07d:	48 89 e5             	mov    %rsp,%rbp
  40a080:	48 83 ec 30          	sub    $0x30,%rsp
  40a084:	64 48 8b 04 25 28 00 	mov    %fs:0x28,%rax
  40a08b:	00 00 
  40a08d:	48 89 45 f8          	mov    %rax,-0x8(%rbp)
  40a091:	31 c0                	xor    %eax,%eax
  40a093:	48 c7 45 d8 00 00 00 	movq   $0x0,-0x28(%rbp)
  40a09a:	00 
  40a09b:	48 8b 15 6e 06 00 00 	mov    0x66e(%rip),%rdx        # 40a710 <tunable_nobody>
  40a0a2:	48 8d 45 e0          	lea    -0x20(%rbp),%rax
  40a0a6:	48 89 d6             	mov    %rdx,%rsi
  40a0a9:	48 89 c7             	mov    %rax,%rdi
  40a0ac:	e8 0b bd ff ff       	callq  405dbc <str_alloc_text>
  40a0b1:	48 8d 45 e0          	lea    -0x20(%rbp),%rax
  40a0b5:	48 89 c7             	mov    %rax,%rdi
  40a0b8:	e8 fe bf ff ff       	callq  4060bb <str_getbuf>
  40a0bd:	48 89 c7             	mov    %rax,%rdi
  40a0c0:	e8 b4 f3 ff ff       	callq  409479 <sysutil_getpwnam>
  40a0c5:	48 89 45 d8          	mov    %rax,-0x28(%rbp)
  40a0c9:	48 83 7d d8 00       	cmpq   $0x0,-0x28(%rbp)
  40a0ce:	75 16                	jne    40a0e6 <del_privilege+0x6a>
  40a0d0:	48 8d 45 e0          	lea    -0x20(%rbp),%rax
  40a0d4:	48 89 c7             	mov    %rax,%rdi
  40a0d7:	e8 15 bf ff ff       	callq  405ff1 <str_free>
  40a0dc:	bf 07 af 40 00       	mov    $0x40af07,%edi
  40a0e1:	e8 f4 d1 ff ff       	callq  4072da <die>
  40a0e6:	bf 11 af 40 00       	mov    $0x40af11,%edi
  40a0eb:	e8 20 f7 ff ff       	callq  409810 <sysutil_chroot>
  40a0f0:	b8 00 00 00 00       	mov    $0x0,%eax
  40a0f5:	e8 da f8 ff ff       	callq  4099d4 <sysutil_set_no_procs>
  40a0fa:	b8 00 00 00 00       	mov    $0x0,%eax
  40a0ff:	e8 6e f8 ff ff       	callq  409972 <sysutil_set_no_fds>
  40a104:	e8 07 f5 ff ff       	callq  409610 <sysutil_getuid>
  40a109:	89 45 d0             	mov    %eax,-0x30(%rbp)
  40a10c:	e8 d8 de ff ff       	callq  407fe9 <sysutil_getpid>
  40a111:	89 45 d4             	mov    %eax,-0x2c(%rbp)
  40a114:	48 8b 45 d8          	mov    -0x28(%rbp),%rax
  40a118:	8b 40 14             	mov    0x14(%rax),%eax
  40a11b:	89 c7                	mov    %eax,%edi
  40a11d:	e8 e5 f5 ff ff       	callq  409707 <sysutil_setgid_numeric>
  40a122:	48 8b 45 d8          	mov    -0x28(%rbp),%rax
  40a126:	8b 40 10             	mov    0x10(%rax),%eax
  40a129:	89 c7                	mov    %eax,%edi
  40a12b:	e8 ac f5 ff ff       	callq  4096dc <sysutil_setuid_numeric>
  40a130:	90                   	nop
  40a131:	48 8b 45 f8          	mov    -0x8(%rbp),%rax
  40a135:	64 48 33 04 25 28 00 	xor    %fs:0x28,%rax
  40a13c:	00 00 
  40a13e:	74 05                	je     40a145 <del_privilege+0xc9>
  40a140:	e8 5b 80 ff ff       	callq  4021a0 <__stack_chk_fail@plt>
  40a145:	c9                   	leaveq 
  40a146:	c3                   	retq   

000000000040a147 <deal_private_req>:
  40a147:	55                   	push   %rbp
  40a148:	48 89 e5             	mov    %rsp,%rbp
  40a14b:	48 83 ec 30          	sub    $0x30,%rsp
  40a14f:	48 89 7d d8          	mov    %rdi,-0x28(%rbp)
  40a153:	64 48 8b 04 25 28 00 	mov    %fs:0x28,%rax
  40a15a:	00 00 
  40a15c:	48 89 45 f8          	mov    %rax,-0x8(%rbp)
  40a160:	31 c0                	xor    %eax,%eax
  40a162:	48 c7 45 e0 00 00 00 	movq   $0x0,-0x20(%rbp)
  40a169:	00 
  40a16a:	c7 45 e8 00 00 00 00 	movl   $0x0,-0x18(%rbp)
  40a171:	c7 45 ec 00 00 00 00 	movl   $0x0,-0x14(%rbp)
  40a178:	48 8d 45 e0          	lea    -0x20(%rbp),%rax
  40a17c:	ba 00 04 00 00       	mov    $0x400,%edx
  40a181:	be 00 00 00 00       	mov    $0x0,%esi
  40a186:	48 89 c7             	mov    %rax,%rdi
  40a189:	e8 8e bb ff ff       	callq  405d1c <private_str_alloc_memchunk>
  40a18e:	48 8b 45 d8          	mov    -0x28(%rbp),%rax
  40a192:	8b 80 10 01 00 00    	mov    0x110(%rax),%eax
  40a198:	48 8d 55 e0          	lea    -0x20(%rbp),%rdx
  40a19c:	48 89 d6             	mov    %rdx,%rsi
  40a19f:	89 c7                	mov    %eax,%edi
  40a1a1:	e8 2d 8b ff ff       	callq  402cd3 <get_internal_cmd_data>
  40a1a6:	48 8d 55 e0          	lea    -0x20(%rbp),%rdx
  40a1aa:	48 8b 45 d8          	mov    -0x28(%rbp),%rax
  40a1ae:	48 89 d6             	mov    %rdx,%rsi
  40a1b1:	48 89 c7             	mov    %rax,%rdi
  40a1b4:	e8 53 00 00 00       	callq  40a20c <parse_cmd>
  40a1b9:	48 8d 45 e0          	lea    -0x20(%rbp),%rax
  40a1bd:	48 89 c7             	mov    %rax,%rdi
  40a1c0:	e8 fa bd ff ff       	callq  405fbf <str_empty>
  40a1c5:	48 8b 45 d8          	mov    -0x28(%rbp),%rax
  40a1c9:	8b 80 30 01 00 00    	mov    0x130(%rax),%eax
  40a1cf:	85 c0                	test   %eax,%eax
  40a1d1:	74 15                	je     40a1e8 <deal_private_req+0xa1>
  40a1d3:	e8 e3 de ff ff       	callq  4080bb <sysutil_wait_reap_one>
  40a1d8:	85 c0                	test   %eax,%eax
  40a1da:	74 b2                	je     40a18e <deal_private_req+0x47>
  40a1dc:	bf 00 00 00 00       	mov    $0x0,%edi
  40a1e1:	e8 5a de ff ff       	callq  408040 <sysutil_exit>
  40a1e6:	eb a6                	jmp    40a18e <deal_private_req+0x47>
  40a1e8:	90                   	nop
  40a1e9:	48 8b 45 d8          	mov    -0x28(%rbp),%rax
  40a1ed:	48 89 c7             	mov    %rax,%rdi
  40a1f0:	e8 37 b3 ff ff       	callq  40552c <user_common_deal>
  40a1f5:	90                   	nop
  40a1f6:	48 8b 45 f8          	mov    -0x8(%rbp),%rax
  40a1fa:	64 48 33 04 25 28 00 	xor    %fs:0x28,%rax
  40a201:	00 00 
  40a203:	74 05                	je     40a20a <deal_private_req+0xc3>
  40a205:	e8 96 7f ff ff       	callq  4021a0 <__stack_chk_fail@plt>
  40a20a:	c9                   	leaveq 
  40a20b:	c3                   	retq   

000000000040a20c <parse_cmd>:
  40a20c:	55                   	push   %rbp
  40a20d:	48 89 e5             	mov    %rsp,%rbp
  40a210:	48 83 ec 20          	sub    $0x20,%rsp
  40a214:	48 89 7d e8          	mov    %rdi,-0x18(%rbp)
  40a218:	48 89 75 e0          	mov    %rsi,-0x20(%rbp)
  40a21c:	c7 45 f8 00 00 00 00 	movl   $0x0,-0x8(%rbp)
  40a223:	48 8b 45 e0          	mov    -0x20(%rbp),%rax
  40a227:	8b 40 08             	mov    0x8(%rax),%eax
  40a22a:	85 c0                	test   %eax,%eax
  40a22c:	75 08                	jne    40a236 <parse_cmd+0x2a>
  40a22e:	8b 45 f8             	mov    -0x8(%rbp),%eax
  40a231:	e9 98 01 00 00       	jmpq   40a3ce <parse_cmd+0x1c2>
  40a236:	48 8b 45 e0          	mov    -0x20(%rbp),%rax
  40a23a:	be 00 00 00 00       	mov    $0x0,%esi
  40a23f:	48 89 c7             	mov    %rax,%rdi
  40a242:	e8 22 cb ff ff       	callq  406d69 <str_get_char_at>
  40a247:	0f be c0             	movsbl %al,%eax
  40a24a:	89 45 fc             	mov    %eax,-0x4(%rbp)
  40a24d:	83 7d fc 10          	cmpl   $0x10,-0x4(%rbp)
  40a251:	0f 87 68 01 00 00    	ja     40a3bf <parse_cmd+0x1b3>
  40a257:	8b 45 fc             	mov    -0x4(%rbp),%eax
  40a25a:	48 8b 04 c5 18 af 40 	mov    0x40af18(,%rax,8),%rax
  40a261:	00 
  40a262:	ff e0                	jmpq   *%rax
  40a264:	48 8b 55 e8          	mov    -0x18(%rbp),%rdx
  40a268:	48 8b 45 e0          	mov    -0x20(%rbp),%rax
  40a26c:	48 89 d6             	mov    %rdx,%rsi
  40a26f:	48 89 c7             	mov    %rax,%rdi
  40a272:	e8 de b6 ff ff       	callq  405955 <prepare_login>
  40a277:	89 45 f8             	mov    %eax,-0x8(%rbp)
  40a27a:	e9 40 01 00 00       	jmpq   40a3bf <parse_cmd+0x1b3>
  40a27f:	48 8b 55 e8          	mov    -0x18(%rbp),%rdx
  40a283:	48 8b 45 e0          	mov    -0x20(%rbp),%rax
  40a287:	48 89 d6             	mov    %rdx,%rsi
  40a28a:	48 89 c7             	mov    %rax,%rdi
  40a28d:	e8 09 8d ff ff       	callq  402f9b <prepare_port_pattern>
  40a292:	e9 28 01 00 00       	jmpq   40a3bf <parse_cmd+0x1b3>
  40a297:	48 8b 45 e8          	mov    -0x18(%rbp),%rax
  40a29b:	48 89 c7             	mov    %rax,%rdi
  40a29e:	e8 59 8f ff ff       	callq  4031fc <prepare_pasv_pattern>
  40a2a3:	e9 17 01 00 00       	jmpq   40a3bf <parse_cmd+0x1b3>
  40a2a8:	48 8b 45 e8          	mov    -0x18(%rbp),%rax
  40a2ac:	48 89 c7             	mov    %rax,%rdi
  40a2af:	e8 aa 92 ff ff       	callq  40355e <prepare_pwd>
  40a2b4:	e9 06 01 00 00       	jmpq   40a3bf <parse_cmd+0x1b3>
  40a2b9:	48 8b 55 e8          	mov    -0x18(%rbp),%rdx
  40a2bd:	48 8b 45 e0          	mov    -0x20(%rbp),%rax
  40a2c1:	48 89 d6             	mov    %rdx,%rsi
  40a2c4:	48 89 c7             	mov    %rax,%rdi
  40a2c7:	b8 00 00 00 00       	mov    $0x0,%eax
  40a2cc:	e8 13 96 ff ff       	callq  4038e4 <prepare_cwd>
  40a2d1:	e9 e9 00 00 00       	jmpq   40a3bf <parse_cmd+0x1b3>
  40a2d6:	48 8b 55 e8          	mov    -0x18(%rbp),%rdx
  40a2da:	48 8b 45 e0          	mov    -0x20(%rbp),%rax
  40a2de:	48 89 d6             	mov    %rdx,%rsi
  40a2e1:	48 89 c7             	mov    %rax,%rdi
  40a2e4:	e8 3a 97 ff ff       	callq  403a23 <prepare_mkd>
  40a2e9:	e9 d1 00 00 00       	jmpq   40a3bf <parse_cmd+0x1b3>
  40a2ee:	48 8b 45 e8          	mov    -0x18(%rbp),%rax
  40a2f2:	48 89 c7             	mov    %rax,%rdi
  40a2f5:	e8 2a 93 ff ff       	callq  403624 <prepare_list>
  40a2fa:	e9 c0 00 00 00       	jmpq   40a3bf <parse_cmd+0x1b3>
  40a2ff:	48 8b 55 e8          	mov    -0x18(%rbp),%rdx
  40a303:	48 8b 45 e0          	mov    -0x20(%rbp),%rax
  40a307:	48 89 d6             	mov    %rdx,%rsi
  40a30a:	48 89 c7             	mov    %rax,%rdi
  40a30d:	b8 00 00 00 00       	mov    $0x0,%eax
  40a312:	e8 bb 93 ff ff       	callq  4036d2 <prepare_type>
  40a317:	e9 a3 00 00 00       	jmpq   40a3bf <parse_cmd+0x1b3>
  40a31c:	48 8b 45 e8          	mov    -0x18(%rbp),%rax
  40a320:	48 89 c7             	mov    %rax,%rdi
  40a323:	e8 f1 94 ff ff       	callq  403819 <prepare_cdup>
  40a328:	e9 92 00 00 00       	jmpq   40a3bf <parse_cmd+0x1b3>
  40a32d:	48 8b 55 e8          	mov    -0x18(%rbp),%rdx
  40a331:	48 8b 45 e0          	mov    -0x20(%rbp),%rax
  40a335:	48 89 d6             	mov    %rdx,%rsi
  40a338:	48 89 c7             	mov    %rax,%rdi
  40a33b:	e8 0b 9c ff ff       	callq  403f4b <prepare_rest>
  40a340:	eb 7d                	jmp    40a3bf <parse_cmd+0x1b3>
  40a342:	48 8b 55 e8          	mov    -0x18(%rbp),%rdx
  40a346:	48 8b 45 e0          	mov    -0x20(%rbp),%rax
  40a34a:	48 89 d6             	mov    %rdx,%rsi
  40a34d:	48 89 c7             	mov    %rax,%rdi
  40a350:	e8 e1 96 ff ff       	callq  403a36 <prepare_retr>
  40a355:	eb 68                	jmp    40a3bf <parse_cmd+0x1b3>
  40a357:	48 8b 55 e8          	mov    -0x18(%rbp),%rdx
  40a35b:	48 8b 45 e0          	mov    -0x20(%rbp),%rax
  40a35f:	48 89 d6             	mov    %rdx,%rsi
  40a362:	48 89 c7             	mov    %rax,%rdi
  40a365:	e8 ce 9b ff ff       	callq  403f38 <prepare_stor>
  40a36a:	eb 53                	jmp    40a3bf <parse_cmd+0x1b3>
  40a36c:	48 8b 55 e8          	mov    -0x18(%rbp),%rdx
  40a370:	48 8b 45 e0          	mov    -0x20(%rbp),%rax
  40a374:	48 89 d6             	mov    %rdx,%rsi
  40a377:	48 89 c7             	mov    %rax,%rdi
  40a37a:	e8 df 9b ff ff       	callq  403f5e <prepare_rmd>
  40a37f:	eb 3e                	jmp    40a3bf <parse_cmd+0x1b3>
  40a381:	48 8b 55 e8          	mov    -0x18(%rbp),%rdx
  40a385:	48 8b 45 e0          	mov    -0x20(%rbp),%rax
  40a389:	48 89 d6             	mov    %rdx,%rsi
  40a38c:	48 89 c7             	mov    %rax,%rdi
  40a38f:	e8 dd 9b ff ff       	callq  403f71 <prepare_dele>
  40a394:	eb 29                	jmp    40a3bf <parse_cmd+0x1b3>
  40a396:	48 8b 55 e8          	mov    -0x18(%rbp),%rdx
  40a39a:	48 8b 45 e0          	mov    -0x20(%rbp),%rax
  40a39e:	48 89 d6             	mov    %rdx,%rsi
  40a3a1:	48 89 c7             	mov    %rax,%rdi
  40a3a4:	e8 e7 98 ff ff       	callq  403c90 <prepare_size>
  40a3a9:	eb 14                	jmp    40a3bf <parse_cmd+0x1b3>
  40a3ab:	48 8b 55 e8          	mov    -0x18(%rbp),%rdx
  40a3af:	48 8b 45 e0          	mov    -0x20(%rbp),%rax
  40a3b3:	48 89 d6             	mov    %rdx,%rsi
  40a3b6:	48 89 c7             	mov    %rax,%rdi
  40a3b9:	e8 33 9a ff ff       	callq  403df1 <prepare_mdtm>
  40a3be:	90                   	nop
  40a3bf:	48 8b 45 e0          	mov    -0x20(%rbp),%rax
  40a3c3:	48 89 c7             	mov    %rax,%rdi
  40a3c6:	e8 f4 bb ff ff       	callq  405fbf <str_empty>
  40a3cb:	8b 45 f8             	mov    -0x8(%rbp),%eax
  40a3ce:	c9                   	leaveq 
  40a3cf:	c3                   	retq   

000000000040a3d0 <standalone_socket>:
  40a3d0:	55                   	push   %rbp
  40a3d1:	48 89 e5             	mov    %rsp,%rbp
  40a3d4:	48 83 ec 30          	sub    $0x30,%rsp
  40a3d8:	48 89 7d d8          	mov    %rdi,-0x28(%rbp)
  40a3dc:	64 48 8b 04 25 28 00 	mov    %fs:0x28,%rax
  40a3e3:	00 00 
  40a3e5:	48 89 45 f8          	mov    %rax,-0x8(%rbp)
  40a3e9:	31 c0                	xor    %eax,%eax
  40a3eb:	e8 0b dc ff ff       	callq  407ffb <sysutil_fork>
  40a3f0:	85 c0                	test   %eax,%eax
  40a3f2:	7e 0a                	jle    40a3fe <standalone_socket+0x2e>
  40a3f4:	bf 00 00 00 00       	mov    $0x0,%edi
  40a3f9:	e8 42 dc ff ff       	callq  408040 <sysutil_exit>
  40a3fe:	b8 00 00 00 00       	mov    $0x0,%eax
  40a403:	e8 b8 7e ff ff       	callq  4022c0 <setsid@plt>
  40a408:	85 c0                	test   %eax,%eax
  40a40a:	79 0a                	jns    40a416 <standalone_socket+0x46>
  40a40c:	bf a0 af 40 00       	mov    $0x40afa0,%edi
  40a411:	e8 c4 ce ff ff       	callq  4072da <die>
  40a416:	e8 e0 db ff ff       	callq  407ffb <sysutil_fork>
  40a41b:	85 c0                	test   %eax,%eax
  40a41d:	7e 0a                	jle    40a429 <standalone_socket+0x59>
  40a41f:	bf 00 00 00 00       	mov    $0x0,%edi
  40a424:	e8 17 dc ff ff       	callq  408040 <sysutil_exit>
  40a429:	b8 00 00 00 00       	mov    $0x0,%eax
  40a42e:	e8 2f f6 ff ff       	callq  409a62 <sysutil_clear_fd>
  40a433:	bf a7 af 40 00       	mov    $0x40afa7,%edi
  40a438:	e8 43 d2 ff ff       	callq  407680 <sysutil_chdir>
  40a43d:	bf 00 00 00 00       	mov    $0x0,%edi
  40a442:	e8 f0 f0 ff ff       	callq  409537 <sysutil_set_umask>
  40a447:	48 c7 45 e8 00 00 00 	movq   $0x0,-0x18(%rbp)
  40a44e:	00 
  40a44f:	48 c7 45 f0 00 00 00 	movq   $0x0,-0x10(%rbp)
  40a456:	00 
  40a457:	e8 2f e3 ff ff       	callq  40878b <sysutil_get_ipv4_sock>
  40a45c:	89 45 e0             	mov    %eax,-0x20(%rbp)
  40a45f:	8b 45 e0             	mov    -0x20(%rbp),%eax
  40a462:	89 c7                	mov    %eax,%edi
  40a464:	e8 09 ec ff ff       	callq  409072 <sysutil_activate_reuseaddr>
  40a469:	48 8d 45 e8          	lea    -0x18(%rbp),%rax
  40a46d:	48 89 c7             	mov    %rax,%rdi
  40a470:	e8 f7 df ff ff       	callq  40846c <sysutil_sockaddr_alloc_ipv4>
  40a475:	48 8b 45 e8          	mov    -0x18(%rbp),%rax
  40a479:	48 89 c7             	mov    %rax,%rdi
  40a47c:	e8 f8 e0 ff ff       	callq  408579 <sysutil_sockaddr_set_any>
  40a481:	48 8b 45 e8          	mov    -0x18(%rbp),%rax
  40a485:	be 15 00 00 00       	mov    $0x15,%esi
  40a48a:	48 89 c7             	mov    %rax,%rdi
  40a48d:	e8 a3 e1 ff ff       	callq  408635 <sysutil_sockaddr_set_port>
  40a492:	48 8b 55 e8          	mov    -0x18(%rbp),%rdx
  40a496:	8b 45 e0             	mov    -0x20(%rbp),%eax
  40a499:	48 89 d6             	mov    %rdx,%rsi
  40a49c:	89 c7                	mov    %eax,%edi
  40a49e:	e8 8d e3 ff ff       	callq  408830 <sysutil_bind>
  40a4a3:	85 c0                	test   %eax,%eax
  40a4a5:	74 0a                	je     40a4b1 <standalone_socket+0xe1>
  40a4a7:	bf a9 af 40 00       	mov    $0x40afa9,%edi
  40a4ac:	e8 29 ce ff ff       	callq  4072da <die>
  40a4b1:	48 8d 45 e8          	lea    -0x18(%rbp),%rax
  40a4b5:	48 89 c7             	mov    %rax,%rdi
  40a4b8:	e8 7a df ff ff       	callq  408437 <sysutil_sockaddr_clear>
  40a4bd:	8b 45 e0             	mov    -0x20(%rbp),%eax
  40a4c0:	be 80 00 00 00       	mov    $0x80,%esi
  40a4c5:	89 c7                	mov    %eax,%edi
  40a4c7:	e8 0d e4 ff ff       	callq  4088d9 <sysutil_listen>
  40a4cc:	85 c0                	test   %eax,%eax
  40a4ce:	74 0a                	je     40a4da <standalone_socket+0x10a>
  40a4d0:	bf b3 af 40 00       	mov    $0x40afb3,%edi
  40a4d5:	e8 00 ce ff ff       	callq  4072da <die>
  40a4da:	48 8d 45 f0          	lea    -0x10(%rbp),%rax
  40a4de:	48 89 c7             	mov    %rax,%rdi
  40a4e1:	e8 86 df ff ff       	callq  40846c <sysutil_sockaddr_alloc_ipv4>
  40a4e6:	bf 03 00 00 00       	mov    $0x3,%edi
  40a4eb:	e8 2f ce ff ff       	callq  40731f <sysutil_install_null_sighandler>
  40a4f0:	48 8b 4d f0          	mov    -0x10(%rbp),%rcx
  40a4f4:	8b 45 e0             	mov    -0x20(%rbp),%eax
  40a4f7:	ba 00 00 00 00       	mov    $0x0,%edx
  40a4fc:	48 89 ce             	mov    %rcx,%rsi
  40a4ff:	89 c7                	mov    %eax,%edi
  40a501:	e8 d1 e4 ff ff       	callq  4089d7 <sysutil_accept_timeout>
  40a506:	89 45 e4             	mov    %eax,-0x1c(%rbp)
  40a509:	8b 45 e4             	mov    -0x1c(%rbp),%eax
  40a50c:	89 c7                	mov    %eax,%edi
  40a50e:	e8 f1 cd ff ff       	callq  407304 <sysutil_retval_is_error>
  40a513:	85 c0                	test   %eax,%eax
  40a515:	0f 85 86 00 00 00    	jne    40a5a1 <standalone_socket+0x1d1>
  40a51b:	8b 45 e4             	mov    -0x1c(%rbp),%eax
  40a51e:	89 c7                	mov    %eax,%edi
  40a520:	e8 53 ed ff ff       	callq  409278 <sysutil_activate_noblock>
  40a525:	8b 45 e4             	mov    -0x1c(%rbp),%eax
  40a528:	89 c7                	mov    %eax,%edi
  40a52a:	e8 07 f5 ff ff       	callq  409a36 <sysutil_set_sockopt>
  40a52f:	48 8d 45 e8          	lea    -0x18(%rbp),%rax
  40a533:	48 89 c7             	mov    %rax,%rdi
  40a536:	e8 31 df ff ff       	callq  40846c <sysutil_sockaddr_alloc_ipv4>
  40a53b:	48 8d 55 e8          	lea    -0x18(%rbp),%rdx
  40a53f:	8b 45 e4             	mov    -0x1c(%rbp),%eax
  40a542:	48 89 d6             	mov    %rdx,%rsi
  40a545:	89 c7                	mov    %eax,%edi
  40a547:	e8 c1 e3 ff ff       	callq  40890d <sysutil_getsockname>
  40a54c:	48 8b 55 e8          	mov    -0x18(%rbp),%rdx
  40a550:	48 8b 45 d8          	mov    -0x28(%rbp),%rax
  40a554:	48 89 10             	mov    %rdx,(%rax)
  40a557:	48 8b 55 f0          	mov    -0x10(%rbp),%rdx
  40a55b:	48 8b 45 d8          	mov    -0x28(%rbp),%rax
  40a55f:	48 89 50 08          	mov    %rdx,0x8(%rax)
  40a563:	e8 b8 da ff ff       	callq  408020 <sysutil_fork_failok>
  40a568:	85 c0                	test   %eax,%eax
  40a56a:	75 26                	jne    40a592 <standalone_socket+0x1c2>
  40a56c:	8b 45 e0             	mov    -0x20(%rbp),%eax
  40a56f:	89 c7                	mov    %eax,%edi
  40a571:	e8 23 d3 ff ff       	callq  407899 <sysutil_close>
  40a576:	8b 45 e4             	mov    -0x1c(%rbp),%eax
  40a579:	89 c7                	mov    %eax,%edi
  40a57b:	e8 2e 00 00 00       	callq  40a5ae <util_client_dup2>
  40a580:	90                   	nop
  40a581:	48 8b 45 f8          	mov    -0x8(%rbp),%rax
  40a585:	64 48 33 04 25 28 00 	xor    %fs:0x28,%rax
  40a58c:	00 00 
  40a58e:	74 1c                	je     40a5ac <standalone_socket+0x1dc>
  40a590:	eb 15                	jmp    40a5a7 <standalone_socket+0x1d7>
  40a592:	8b 45 e4             	mov    -0x1c(%rbp),%eax
  40a595:	89 c7                	mov    %eax,%edi
  40a597:	e8 fd d2 ff ff       	callq  407899 <sysutil_close>
  40a59c:	e9 4f ff ff ff       	jmpq   40a4f0 <standalone_socket+0x120>
  40a5a1:	90                   	nop
  40a5a2:	e9 49 ff ff ff       	jmpq   40a4f0 <standalone_socket+0x120>
  40a5a7:	e8 f4 7b ff ff       	callq  4021a0 <__stack_chk_fail@plt>
  40a5ac:	c9                   	leaveq 
  40a5ad:	c3                   	retq   

000000000040a5ae <util_client_dup2>:
  40a5ae:	55                   	push   %rbp
  40a5af:	48 89 e5             	mov    %rsp,%rbp
  40a5b2:	48 83 ec 10          	sub    $0x10,%rsp
  40a5b6:	89 7d fc             	mov    %edi,-0x4(%rbp)
  40a5b9:	8b 45 fc             	mov    -0x4(%rbp),%eax
  40a5bc:	be 00 00 00 00       	mov    $0x0,%esi
  40a5c1:	89 c7                	mov    %eax,%edi
  40a5c3:	e8 9e d2 ff ff       	callq  407866 <sysutil_dupfd2>
  40a5c8:	8b 45 fc             	mov    -0x4(%rbp),%eax
  40a5cb:	be 01 00 00 00       	mov    $0x1,%esi
  40a5d0:	89 c7                	mov    %eax,%edi
  40a5d2:	e8 8f d2 ff ff       	callq  407866 <sysutil_dupfd2>
  40a5d7:	8b 45 fc             	mov    -0x4(%rbp),%eax
  40a5da:	be 02 00 00 00       	mov    $0x2,%esi
  40a5df:	89 c7                	mov    %eax,%edi
  40a5e1:	e8 80 d2 ff ff       	callq  407866 <sysutil_dupfd2>
  40a5e6:	83 7d fc 02          	cmpl   $0x2,-0x4(%rbp)
  40a5ea:	7e 0a                	jle    40a5f6 <util_client_dup2+0x48>
  40a5ec:	8b 45 fc             	mov    -0x4(%rbp),%eax
  40a5ef:	89 c7                	mov    %eax,%edi
  40a5f1:	e8 a3 d2 ff ff       	callq  407899 <sysutil_close>
  40a5f6:	90                   	nop
  40a5f7:	c9                   	leaveq 
  40a5f8:	c3                   	retq   

000000000040a5f9 <init_session>:
  40a5f9:	55                   	push   %rbp
  40a5fa:	48 89 e5             	mov    %rsp,%rbp
  40a5fd:	90                   	nop
  40a5fe:	5d                   	pop    %rbp
  40a5ff:	c3                   	retq   

000000000040a600 <load_default_config>:
  40a600:	55                   	push   %rbp
  40a601:	48 89 e5             	mov    %rsp,%rbp
  40a604:	90                   	nop
  40a605:	5d                   	pop    %rbp
  40a606:	c3                   	retq   
  40a607:	66 0f 1f 84 00 00 00 	nopw   0x0(%rax,%rax,1)
  40a60e:	00 00 

000000000040a610 <__libc_csu_init>:
  40a610:	41 57                	push   %r15
  40a612:	41 56                	push   %r14
  40a614:	41 89 ff             	mov    %edi,%r15d
  40a617:	41 55                	push   %r13
  40a619:	41 54                	push   %r12
  40a61b:	4c 8d 25 ce 47 20 00 	lea    0x2047ce(%rip),%r12        # 60edf0 <__frame_dummy_init_array_entry>
  40a622:	55                   	push   %rbp
  40a623:	48 8d 2d ce 47 20 00 	lea    0x2047ce(%rip),%rbp        # 60edf8 <__init_array_end>
  40a62a:	53                   	push   %rbx
  40a62b:	49 89 f6             	mov    %rsi,%r14
  40a62e:	49 89 d5             	mov    %rdx,%r13
  40a631:	4c 29 e5             	sub    %r12,%rbp
  40a634:	48 83 ec 08          	sub    $0x8,%rsp
  40a638:	48 c1 fd 03          	sar    $0x3,%rbp
  40a63c:	e8 37 79 ff ff       	callq  401f78 <_init>
  40a641:	48 85 ed             	test   %rbp,%rbp
  40a644:	74 20                	je     40a666 <__libc_csu_init+0x56>
  40a646:	31 db                	xor    %ebx,%ebx
  40a648:	0f 1f 84 00 00 00 00 	nopl   0x0(%rax,%rax,1)
  40a64f:	00 
  40a650:	4c 89 ea             	mov    %r13,%rdx
  40a653:	4c 89 f6             	mov    %r14,%rsi
  40a656:	44 89 ff             	mov    %r15d,%edi
  40a659:	41 ff 14 dc          	callq  *(%r12,%rbx,8)
  40a65d:	48 83 c3 01          	add    $0x1,%rbx
  40a661:	48 39 eb             	cmp    %rbp,%rbx
  40a664:	75 ea                	jne    40a650 <__libc_csu_init+0x40>
  40a666:	48 83 c4 08          	add    $0x8,%rsp
  40a66a:	5b                   	pop    %rbx
  40a66b:	5d                   	pop    %rbp
  40a66c:	41 5c                	pop    %r12
  40a66e:	41 5d                	pop    %r13
  40a670:	41 5e                	pop    %r14
  40a672:	41 5f                	pop    %r15
  40a674:	c3                   	retq   
  40a675:	90                   	nop
  40a676:	66 2e 0f 1f 84 00 00 	nopw   %cs:0x0(%rax,%rax,1)
  40a67d:	00 00 00 

000000000040a680 <__libc_csu_fini>:
  40a680:	f3 c3                	repz retq 
  40a682:	66 2e 0f 1f 84 00 00 	nopw   %cs:0x0(%rax,%rax,1)
  40a689:	00 00 00 
  40a68c:	0f 1f 40 00          	nopl   0x0(%rax)

000000000040a690 <atexit>:
  40a690:	48 8d 05 29 4d 20 00 	lea    0x204d29(%rip),%rax        # 60f3c0 <__dso_handle>
  40a697:	48 85 c0             	test   %rax,%rax
  40a69a:	74 14                	je     40a6b0 <atexit+0x20>
  40a69c:	48 8b 10             	mov    (%rax),%rdx
  40a69f:	31 f6                	xor    %esi,%esi
  40a6a1:	e9 2a 7f ff ff       	jmpq   4025d0 <__cxa_atexit@plt>
  40a6a6:	66 2e 0f 1f 84 00 00 	nopw   %cs:0x0(%rax,%rax,1)
  40a6ad:	00 00 00 
  40a6b0:	31 d2                	xor    %edx,%edx
  40a6b2:	31 f6                	xor    %esi,%esi
  40a6b4:	e9 17 7f ff ff       	jmpq   4025d0 <__cxa_atexit@plt>
  40a6b9:	0f 1f 80 00 00 00 00 	nopl   0x0(%rax)

000000000040a6c0 <__stat>:
  40a6c0:	48 89 f2             	mov    %rsi,%rdx
  40a6c3:	48 89 fe             	mov    %rdi,%rsi
  40a6c6:	bf 01 00 00 00       	mov    $0x1,%edi
  40a6cb:	e9 50 7d ff ff       	jmpq   402420 <__xstat@plt>

000000000040a6d0 <__fstat>:
  40a6d0:	48 89 f2             	mov    %rsi,%rdx
  40a6d3:	89 fe                	mov    %edi,%esi
  40a6d5:	bf 01 00 00 00       	mov    $0x1,%edi
  40a6da:	e9 91 7d ff ff       	jmpq   402470 <__fxstat@plt>
  40a6df:	90                   	nop

000000000040a6e0 <__lstat>:
  40a6e0:	48 89 f2             	mov    %rsi,%rdx
  40a6e3:	48 89 fe             	mov    %rdi,%rsi
  40a6e6:	bf 01 00 00 00       	mov    $0x1,%edi
  40a6eb:	e9 90 7a ff ff       	jmpq   402180 <__lxstat@plt>

Disassembly of section .fini:

000000000040a6f0 <_fini>:
  40a6f0:	48 83 ec 08          	sub    $0x8,%rsp
  40a6f4:	48 83 c4 08          	add    $0x8,%rsp
  40a6f8:	c3                   	retq   
